###############################################################################
#                                                                             #
# IAR ELF Linker V6.10.1.52143/W32 for ARM              22/Jun/2017  13:37:35 #
# Copyright 2007-2010 IAR Systems AB.                                         #
#                                                                             #
#    Output file  =  E:\proj\ARKN141\sw\xspace\proj\ARKN141_DEMO\HONGJING_CVB #
#                    S_3D_OFF\Exe\ARKN141_DEMO.out                            #
#    Map file     =  E:\proj\ARKN141\sw\xspace\proj\ARKN141_DEMO\HONGJING_CVB #
#                    S_3D_OFF\List\ARKN141_DEMO.map                           #
#    Command line =  -f E:\proj\ARKN141\sw\xspace\proj\ARKN141_DEMO\EW49CC.tm #
#                    p ("C:\Program Files (x86)\IAR Systems\Embedded          #
#                    Workbench 6.0\arm\PowerPac\RTOS\Lib\os5t_al__d.a"        #
#                    E:\proj\ARKN141\sw\xspace\hwlib\lpng167.a                #
#                    E:\proj\ARKN141\sw\xspace\hwlib\speech_decoder_arm.a     #
#                    E:\proj\ARKN141\sw\xspace\hwlib\speech_decoder_thumb.a   #
#                    E:\proj\ARKN141\sw\xspace\hwlib\zlib-1.2.8.a             #
#                    E:\proj\ARKN141\sw\xspace\proj\ARKN141_DEMO\HONGJING_CVB #
#                    S_3D_OFF\Obj\AudioFunction.o                             #
#                    E:\proj\ARKN141\sw\xspace\proj\ARKN141_DEMO\HONGJING_CVB #
#                    S_3D_OFF\Obj\CdrRequest.o E:\proj\ARKN141\sw\xspace\proj #
#                    \ARKN141_DEMO\HONGJING_CVBS_3D_OFF\Obj\ConfigDrive.o     #
#                    E:\proj\ARKN141\sw\xspace\proj\ARKN141_DEMO\HONGJING_CVB #
#                    S_3D_OFF\Obj\CpuClkCounter.o                             #
#                    E:\proj\ARKN141\sw\xspace\proj\ARKN141_DEMO\HONGJING_CVB #
#                    S_3D_OFF\Obj\DecGetOption.o                              #
#                    E:\proj\ARKN141\sw\xspace\proj\ARKN141_DEMO\HONGJING_CVB #
#                    S_3D_OFF\Obj\EncGetOption.o                              #
#                    E:\proj\ARKN141\sw\xspace\proj\ARKN141_DEMO\HONGJING_CVB #
#                    S_3D_OFF\Obj\EncJpeg.o E:\proj\ARKN141\sw\xspace\proj\AR #
#                    KN141_DEMO\HONGJING_CVBS_3D_OFF\Obj\EncJpegCodeFrame.o   #
#                    E:\proj\ARKN141\sw\xspace\proj\ARKN141_DEMO\HONGJING_CVB #
#                    S_3D_OFF\Obj\EncJpegInit.o E:\proj\ARKN141\sw\xspace\pro #
#                    j\ARKN141_DEMO\HONGJING_CVBS_3D_OFF\Obj\EncJpegPutBits.o #
#                     E:\proj\ARKN141\sw\xspace\proj\ARKN141_DEMO\HONGJING_CV #
#                    BS_3D_OFF\Obj\FAT_API.o E:\proj\ARKN141\sw\xspace\proj\A #
#                    RKN141_DEMO\HONGJING_CVBS_3D_OFF\Obj\FAT_CheckDisk.o     #
#                    E:\proj\ARKN141\sw\xspace\proj\ARKN141_DEMO\HONGJING_CVB #
#                    S_3D_OFF\Obj\FAT_Dir.o E:\proj\ARKN141\sw\xspace\proj\AR #
#                    KN141_DEMO\HONGJING_CVBS_3D_OFF\Obj\FAT_DirEntry.o       #
#                    E:\proj\ARKN141\sw\xspace\proj\ARKN141_DEMO\HONGJING_CVB #
#                    S_3D_OFF\Obj\FAT_DiskInfo.o                              #
#                    E:\proj\ARKN141\sw\xspace\proj\ARKN141_DEMO\HONGJING_CVB #
#                    S_3D_OFF\Obj\FAT_Format.o E:\proj\ARKN141\sw\xspace\proj #
#                    \ARKN141_DEMO\HONGJING_CVBS_3D_OFF\Obj\FAT_FormatSD.o    #
#                    E:\proj\ARKN141\sw\xspace\proj\ARKN141_DEMO\HONGJING_CVB #
#                    S_3D_OFF\Obj\FAT_FreeCluster.o                           #
#                    E:\proj\ARKN141\sw\xspace\proj\ARKN141_DEMO\HONGJING_CVB #
#                    S_3D_OFF\Obj\FAT_GetFileClusterSectorInfo.o              #
#                    E:\proj\ARKN141\sw\xspace\proj\ARKN141_DEMO\HONGJING_CVB #
#                    S_3D_OFF\Obj\FAT_Ioct.o E:\proj\ARKN141\sw\xspace\proj\A #
#                    RKN141_DEMO\HONGJING_CVBS_3D_OFF\Obj\FAT_LFN.o           #
#                    E:\proj\ARKN141\sw\xspace\proj\ARKN141_DEMO\HONGJING_CVB #
#                    S_3D_OFF\Obj\FAT_Misc.o E:\proj\ARKN141\sw\xspace\proj\A #
#                    RKN141_DEMO\HONGJING_CVBS_3D_OFF\Obj\FAT_Move.o          #
#                    E:\proj\ARKN141\sw\xspace\proj\ARKN141_DEMO\HONGJING_CVB #
#                    S_3D_OFF\Obj\FAT_Open.o E:\proj\ARKN141\sw\xspace\proj\A #
#                    RKN141_DEMO\HONGJING_CVBS_3D_OFF\Obj\FAT_Read.o          #
#                    E:\proj\ARKN141\sw\xspace\proj\ARKN141_DEMO\HONGJING_CVB #
#                    S_3D_OFF\Obj\FAT_Rename.o E:\proj\ARKN141\sw\xspace\proj #
#                    \ARKN141_DEMO\HONGJING_CVBS_3D_OFF\Obj\FAT_SetEndOfFile. #
#                    o E:\proj\ARKN141\sw\xspace\proj\ARKN141_DEMO\HONGJING_C #
#                    VBS_3D_OFF\Obj\FAT_VolumeLabel.o                         #
#                    E:\proj\ARKN141\sw\xspace\proj\ARKN141_DEMO\HONGJING_CVB #
#                    S_3D_OFF\Obj\FAT_Write.o E:\proj\ARKN141\sw\xspace\proj\ #
#                    ARKN141_DEMO\HONGJING_CVBS_3D_OFF\Obj\FS_AddSpaceHex.o   #
#                    E:\proj\ARKN141\sw\xspace\proj\ARKN141_DEMO\HONGJING_CVB #
#                    S_3D_OFF\Obj\FS_AssignCache.o                            #
#                    E:\proj\ARKN141\sw\xspace\proj\ARKN141_DEMO\HONGJING_CVB #
#                    S_3D_OFF\Obj\FS_Attrib.o E:\proj\ARKN141\sw\xspace\proj\ #
#                    ARKN141_DEMO\HONGJING_CVBS_3D_OFF\Obj\FS_CLib.o          #
#                    E:\proj\ARKN141\sw\xspace\proj\ARKN141_DEMO\HONGJING_CVB #
#                    S_3D_OFF\Obj\FS_CacheAll.o E:\proj\ARKN141\sw\xspace\pro #
#                    j\ARKN141_DEMO\HONGJING_CVBS_3D_OFF\Obj\FS_CacheMan.o    #
#                    E:\proj\ARKN141\sw\xspace\proj\ARKN141_DEMO\HONGJING_CVB #
#                    S_3D_OFF\Obj\FS_CacheRW.o E:\proj\ARKN141\sw\xspace\proj #
#                    \ARKN141_DEMO\HONGJING_CVBS_3D_OFF\Obj\FS_CacheRWQuota.o #
#                     E:\proj\ARKN141\sw\xspace\proj\ARKN141_DEMO\HONGJING_CV #
#                    BS_3D_OFF\Obj\FS_CopyFile.o                              #
#                    E:\proj\ARKN141\sw\xspace\proj\ARKN141_DEMO\HONGJING_CVB #
#                    S_3D_OFF\Obj\FS_Core.o E:\proj\ARKN141\sw\xspace\proj\AR #
#                    KN141_DEMO\HONGJING_CVBS_3D_OFF\Obj\FS_CreateDir.o       #
#                    E:\proj\ARKN141\sw\xspace\proj\ARKN141_DEMO\HONGJING_CVB #
#                    S_3D_OFF\Obj\FS_Dir.o E:\proj\ARKN141\sw\xspace\proj\ARK #
#                    N141_DEMO\HONGJING_CVBS_3D_OFF\Obj\FS_DirOld.o           #
#                    E:\proj\ARKN141\sw\xspace\proj\ARKN141_DEMO\HONGJING_CVB #
#                    S_3D_OFF\Obj\FS_ErrorNo2Text.o                           #
#                    E:\proj\ARKN141\sw\xspace\proj\ARKN141_DEMO\HONGJING_CVB #
#                    S_3D_OFF\Obj\FS_ErrorOut.o E:\proj\ARKN141\sw\xspace\pro #
#                    j\ARKN141_DEMO\HONGJING_CVBS_3D_OFF\Obj\FS_FRead.o       #
#                    E:\proj\ARKN141\sw\xspace\proj\ARKN141_DEMO\HONGJING_CVB #
#                    S_3D_OFF\Obj\FS_FWrite.o E:\proj\ARKN141\sw\xspace\proj\ #
#                    ARKN141_DEMO\HONGJING_CVBS_3D_OFF\Obj\FS_Format.o        #
#                    E:\proj\ARKN141\sw\xspace\proj\ARKN141_DEMO\HONGJING_CVB #
#                    S_3D_OFF\Obj\FS_GetFilePos.o                             #
#                    E:\proj\ARKN141\sw\xspace\proj\ARKN141_DEMO\HONGJING_CVB #
#                    S_3D_OFF\Obj\FS_GetFileSize.o                            #
#                    E:\proj\ARKN141\sw\xspace\proj\ARKN141_DEMO\HONGJING_CVB #
#                    S_3D_OFF\Obj\FS_GetNumFiles.o                            #
#                    E:\proj\ARKN141\sw\xspace\proj\ARKN141_DEMO\HONGJING_CVB #
#                    S_3D_OFF\Obj\FS_GetNumOpenFiles.o                        #
#                    E:\proj\ARKN141\sw\xspace\proj\ARKN141_DEMO\HONGJING_CVB #
#                    S_3D_OFF\Obj\FS_Journal.o E:\proj\ARKN141\sw\xspace\proj #
#                    \ARKN141_DEMO\HONGJING_CVBS_3D_OFF\Obj\FS_Log.o          #
#                    E:\proj\ARKN141\sw\xspace\proj\ARKN141_DEMO\HONGJING_CVB #
#                    S_3D_OFF\Obj\FS_LogBlock.o E:\proj\ARKN141\sw\xspace\pro #
#                    j\ARKN141_DEMO\HONGJING_CVBS_3D_OFF\Obj\FS_LogVolume.o   #
#                    E:\proj\ARKN141\sw\xspace\proj\ARKN141_DEMO\HONGJING_CVB #
#                    S_3D_OFF\Obj\FS_Misc.o E:\proj\ARKN141\sw\xspace\proj\AR #
#                    KN141_DEMO\HONGJING_CVBS_3D_OFF\Obj\FS_Move.o            #
#                    E:\proj\ARKN141\sw\xspace\proj\ARKN141_DEMO\HONGJING_CVB #
#                    S_3D_OFF\Obj\FS_OS.o E:\proj\ARKN141\sw\xspace\proj\ARKN #
#                    141_DEMO\HONGJING_CVBS_3D_OFF\Obj\FS_OS_Interface.o      #
#                    E:\proj\ARKN141\sw\xspace\proj\ARKN141_DEMO\HONGJING_CVB #
#                    S_3D_OFF\Obj\FS_Partition.o                              #
#                    E:\proj\ARKN141\sw\xspace\proj\ARKN141_DEMO\HONGJING_CVB #
#                    S_3D_OFF\Obj\FS_Read.o E:\proj\ARKN141\sw\xspace\proj\AR #
#                    KN141_DEMO\HONGJING_CVBS_3D_OFF\Obj\FS_Rename.o          #
#                    E:\proj\ARKN141\sw\xspace\proj\ARKN141_DEMO\HONGJING_CVB #
#                    S_3D_OFF\Obj\FS_SetEndOfFile.o                           #
#                    E:\proj\ARKN141\sw\xspace\proj\ARKN141_DEMO\HONGJING_CVB #
#                    S_3D_OFF\Obj\FS_SetFilePos.o                             #
#                    E:\proj\ARKN141\sw\xspace\proj\ARKN141_DEMO\HONGJING_CVB #
#                    S_3D_OFF\Obj\FS_Storage.o E:\proj\ARKN141\sw\xspace\proj #
#                    \ARKN141_DEMO\HONGJING_CVBS_3D_OFF\Obj\FS_Time.o         #
#                    E:\proj\ARKN141\sw\xspace\proj\ARKN141_DEMO\HONGJING_CVB #
#                    S_3D_OFF\Obj\FS_Truncate.o E:\proj\ARKN141\sw\xspace\pro #
#                    j\ARKN141_DEMO\HONGJING_CVBS_3D_OFF\Obj\FS_Unmount.o     #
#                    E:\proj\ARKN141\sw\xspace\proj\ARKN141_DEMO\HONGJING_CVB #
#                    S_3D_OFF\Obj\FS_Verify.o E:\proj\ARKN141\sw\xspace\proj\ #
#                    ARKN141_DEMO\HONGJING_CVBS_3D_OFF\Obj\FS_Volume.o        #
#                    E:\proj\ARKN141\sw\xspace\proj\ARKN141_DEMO\HONGJING_CVB #
#                    S_3D_OFF\Obj\FS_Warn.o E:\proj\ARKN141\sw\xspace\proj\AR #
#                    KN141_DEMO\HONGJING_CVBS_3D_OFF\Obj\FS_Write.o           #
#                    E:\proj\ARKN141\sw\xspace\proj\ARKN141_DEMO\HONGJING_CVB #
#                    S_3D_OFF\Obj\FS_X_Panic.o E:\proj\ARKN141\sw\xspace\proj #
#                    \ARKN141_DEMO\HONGJING_CVBS_3D_OFF\Obj\FS__ECC256.o      #
#                    E:\proj\ARKN141\sw\xspace\proj\ARKN141_DEMO\HONGJING_CVB #
#                    S_3D_OFF\Obj\FS_memcpy.o E:\proj\ARKN141\sw\xspace\proj\ #
#                    ARKN141_DEMO\HONGJING_CVBS_3D_OFF\Obj\Gem_isp.o          #
#                    E:\proj\ARKN141\sw\xspace\proj\ARKN141_DEMO\HONGJING_CVB #
#                    S_3D_OFF\Obj\Gem_isp_ae.o E:\proj\ARKN141\sw\xspace\proj #
#                    \ARKN141_DEMO\HONGJING_CVBS_3D_OFF\Obj\Gem_isp_awb.o     #
#                    E:\proj\ARKN141\sw\xspace\proj\ARKN141_DEMO\HONGJING_CVB #
#                    S_3D_OFF\Obj\Gem_isp_colors.o                            #
#                    E:\proj\ARKN141\sw\xspace\proj\ARKN141_DEMO\HONGJING_CVB #
#                    S_3D_OFF\Obj\Gem_isp_config.o                            #
#                    E:\proj\ARKN141\sw\xspace\proj\ARKN141_DEMO\HONGJING_CVB #
#                    S_3D_OFF\Obj\Gem_isp_debug.o                             #
#                    E:\proj\ARKN141\sw\xspace\proj\ARKN141_DEMO\HONGJING_CVB #
#                    S_3D_OFF\Obj\Gem_isp_denoise.o                           #
#                    E:\proj\ARKN141\sw\xspace\proj\ARKN141_DEMO\HONGJING_CVB #
#                    S_3D_OFF\Obj\Gem_isp_enhance.o                           #
#                    E:\proj\ARKN141\sw\xspace\proj\ARKN141_DEMO\HONGJING_CVB #
#                    S_3D_OFF\Obj\Gem_isp_eris.o                              #
#                    E:\proj\ARKN141\sw\xspace\proj\ARKN141_DEMO\HONGJING_CVB #
#                    S_3D_OFF\Obj\Gem_isp_fesp.o                              #
#                    E:\proj\ARKN141\sw\xspace\proj\ARKN141_DEMO\HONGJING_CVB #
#                    S_3D_OFF\Obj\Gem_isp_io.o E:\proj\ARKN141\sw\xspace\proj #
#                    \ARKN141_DEMO\HONGJING_CVBS_3D_OFF\Obj\Gem_isp_sys.o     #
#                    E:\proj\ARKN141\sw\xspace\proj\ARKN141_DEMO\HONGJING_CVB #
#                    S_3D_OFF\Obj\H264Cabac.o E:\proj\ARKN141\sw\xspace\proj\ #
#                    ARKN141_DEMO\HONGJING_CVBS_3D_OFF\Obj\H264CodeFrame.o    #
#                    E:\proj\ARKN141\sw\xspace\proj\ARKN141_DEMO\HONGJING_CVB #
#                    S_3D_OFF\Obj\H264DecTestBench.o                          #
#                    E:\proj\ARKN141\sw\xspace\proj\ARKN141_DEMO\HONGJING_CVB #
#                    S_3D_OFF\Obj\H264EncApi.o E:\proj\ARKN141\sw\xspace\proj #
#                    \ARKN141_DEMO\HONGJING_CVBS_3D_OFF\Obj\H264Init.o        #
#                    E:\proj\ARKN141\sw\xspace\proj\ARKN141_DEMO\HONGJING_CVB #
#                    S_3D_OFF\Obj\H264Mad.o E:\proj\ARKN141\sw\xspace\proj\AR #
#                    KN141_DEMO\HONGJING_CVBS_3D_OFF\Obj\H264NalUnit.o        #
#                    E:\proj\ARKN141\sw\xspace\proj\ARKN141_DEMO\HONGJING_CVB #
#                    S_3D_OFF\Obj\H264PictureParameterSet.o                   #
#                    E:\proj\ARKN141\sw\xspace\proj\ARKN141_DEMO\HONGJING_CVB #
#                    S_3D_OFF\Obj\H264PutBits.o E:\proj\ARKN141\sw\xspace\pro #
#                    j\ARKN141_DEMO\HONGJING_CVBS_3D_OFF\Obj\H264RateControl. #
#                    o E:\proj\ARKN141\sw\xspace\proj\ARKN141_DEMO\HONGJING_C #
#                    VBS_3D_OFF\Obj\H264Sei.o E:\proj\ARKN141\sw\xspace\proj\ #
#                    ARKN141_DEMO\HONGJING_CVBS_3D_OFF\Obj\H264SequenceParame #
#                    terSet.o E:\proj\ARKN141\sw\xspace\proj\ARKN141_DEMO\HON #
#                    GJING_CVBS_3D_OFF\Obj\H264Slice.o                        #
#                    E:\proj\ARKN141\sw\xspace\proj\ARKN141_DEMO\HONGJING_CVB #
#                    S_3D_OFF\Obj\H264TestBench.o                             #
#                    E:\proj\ARKN141\sw\xspace\proj\ARKN141_DEMO\HONGJING_CVB #
#                    S_3D_OFF\Obj\H264TestId.o E:\proj\ARKN141\sw\xspace\proj #
#                    \ARKN141_DEMO\HONGJING_CVBS_3D_OFF\Obj\IO.o              #
#                    E:\proj\ARKN141\sw\xspace\proj\ARKN141_DEMO\HONGJING_CVB #
#                    S_3D_OFF\Obj\InitSetting.o E:\proj\ARKN141\sw\xspace\pro #
#                    j\ARKN141_DEMO\HONGJING_CVBS_3D_OFF\Obj\IntegrationTestR #
#                    egister.o E:\proj\ARKN141\sw\xspace\proj\ARKN141_DEMO\HO #
#                    NGJING_CVBS_3D_OFF\Obj\JpegEncApi.o                      #
#                    E:\proj\ARKN141\sw\xspace\proj\ARKN141_DEMO\HONGJING_CVB #
#                    S_3D_OFF\Obj\JpegEncTestBench.o                          #
#                    E:\proj\ARKN141\sw\xspace\proj\ARKN141_DEMO\HONGJING_CVB #
#                    S_3D_OFF\Obj\Jpegdectestbench.o                          #
#                    E:\proj\ARKN141\sw\xspace\proj\ARKN141_DEMO\HONGJING_CVB #
#                    S_3D_OFF\Obj\OS_Error.o E:\proj\ARKN141\sw\xspace\proj\A #
#                    RKN141_DEMO\HONGJING_CVBS_3D_OFF\Obj\SD_MMC1_Drive.o     #
#                    E:\proj\ARKN141\sw\xspace\proj\ARKN141_DEMO\HONGJING_CVB #
#                    S_3D_OFF\Obj\SD_MMC_Drive.o                              #
#                    E:\proj\ARKN141\sw\xspace\proj\ARKN141_DEMO\HONGJING_CVB #
#                    S_3D_OFF\Obj\SensorCommon.o                              #
#                    E:\proj\ARKN141\sw\xspace\proj\ARKN141_DEMO\HONGJING_CVB #
#                    S_3D_OFF\Obj\SystemAPI.o E:\proj\ARKN141\sw\xspace\proj\ #
#                    ARKN141_DEMO\HONGJING_CVBS_3D_OFF\Obj\Uart_Protocal.o    #
#                    E:\proj\ARKN141\sw\xspace\proj\ARKN141_DEMO\HONGJING_CVB #
#                    S_3D_OFF\Obj\UsbRequest.o E:\proj\ARKN141\sw\xspace\proj #
#                    \ARKN141_DEMO\HONGJING_CVBS_3D_OFF\Obj\UvcRequest.o      #
#                    E:\proj\ARKN141\sw\xspace\proj\ARKN141_DEMO\HONGJING_CVB #
#                    S_3D_OFF\Obj\UvcVideo.o E:\proj\ARKN141\sw\xspace\proj\A #
#                    RKN141_DEMO\HONGJING_CVBS_3D_OFF\Obj\VideoFunction.o     #
#                    E:\proj\ARKN141\sw\xspace\proj\ARKN141_DEMO\HONGJING_CVB #
#                    S_3D_OFF\Obj\alert_view.o E:\proj\ARKN141\sw\xspace\proj #
#                    \ARKN141_DEMO\HONGJING_CVBS_3D_OFF\Obj\ap0330.o          #
#                    E:\proj\ARKN141\sw\xspace\proj\ARKN141_DEMO\HONGJING_CVB #
#                    S_3D_OFF\Obj\app_album.o E:\proj\ARKN141\sw\xspace\proj\ #
#                    ARKN141_DEMO\HONGJING_CVBS_3D_OFF\Obj\app_albumlistview. #
#                    o E:\proj\ARKN141\sw\xspace\proj\ARKN141_DEMO\HONGJING_C #
#                    VBS_3D_OFF\Obj\app_albumview.o                           #
#                    E:\proj\ARKN141\sw\xspace\proj\ARKN141_DEMO\HONGJING_CVB #
#                    S_3D_OFF\Obj\app_button.o E:\proj\ARKN141\sw\xspace\proj #
#                    \ARKN141_DEMO\HONGJING_CVBS_3D_OFF\Obj\app_datetimesetti #
#                    ng.o E:\proj\ARKN141\sw\xspace\proj\ARKN141_DEMO\HONGJIN #
#                    G_CVBS_3D_OFF\Obj\app_format.o                           #
#                    E:\proj\ARKN141\sw\xspace\proj\ARKN141_DEMO\HONGJING_CVB #
#                    S_3D_OFF\Obj\app_gps_alarm.o                             #
#                    E:\proj\ARKN141\sw\xspace\proj\ARKN141_DEMO\HONGJING_CVB #
#                    S_3D_OFF\Obj\app_icon_library.o                          #
#                    E:\proj\ARKN141\sw\xspace\proj\ARKN141_DEMO\HONGJING_CVB #
#                    S_3D_OFF\Obj\app_init.o E:\proj\ARKN141\sw\xspace\proj\A #
#                    RKN141_DEMO\HONGJING_CVBS_3D_OFF\Obj\app_menudata.o      #
#                    E:\proj\ARKN141\sw\xspace\proj\ARKN141_DEMO\HONGJING_CVB #
#                    S_3D_OFF\Obj\app_menuid.o E:\proj\ARKN141\sw\xspace\proj #
#                    \ARKN141_DEMO\HONGJING_CVBS_3D_OFF\Obj\app_menuoptionvie #
#                    w.o E:\proj\ARKN141\sw\xspace\proj\ARKN141_DEMO\HONGJING #
#                    _CVBS_3D_OFF\Obj\app_messageview.o                       #
#                    E:\proj\ARKN141\sw\xspace\proj\ARKN141_DEMO\HONGJING_CVB #
#                    S_3D_OFF\Obj\app_okcancelview.o                          #
#                    E:\proj\ARKN141\sw\xspace\proj\ARKN141_DEMO\HONGJING_CVB #
#                    S_3D_OFF\Obj\app_onekey_photograph.o                     #
#                    E:\proj\ARKN141\sw\xspace\proj\ARKN141_DEMO\HONGJING_CVB #
#                    S_3D_OFF\Obj\app_processview.o                           #
#                    E:\proj\ARKN141\sw\xspace\proj\ARKN141_DEMO\HONGJING_CVB #
#                    S_3D_OFF\Obj\app_recycleview.o                           #
#                    E:\proj\ARKN141\sw\xspace\proj\ARKN141_DEMO\HONGJING_CVB #
#                    S_3D_OFF\Obj\app_romimage.o                              #
#                    E:\proj\ARKN141\sw\xspace\proj\ARKN141_DEMO\HONGJING_CVB #
#                    S_3D_OFF\Obj\app_settingview.o                           #
#                    E:\proj\ARKN141\sw\xspace\proj\ARKN141_DEMO\HONGJING_CVB #
#                    S_3D_OFF\Obj\app_soundvolumeview.o                       #
#                    E:\proj\ARKN141\sw\xspace\proj\ARKN141_DEMO\HONGJING_CVB #
#                    S_3D_OFF\Obj\app_switch_button.o                         #
#                    E:\proj\ARKN141\sw\xspace\proj\ARKN141_DEMO\HONGJING_CVB #
#                    S_3D_OFF\Obj\app_systemsettingview.o                     #
#                    E:\proj\ARKN141\sw\xspace\proj\ARKN141_DEMO\HONGJING_CVB #
#                    S_3D_OFF\Obj\app_systemupdate.o                          #
#                    E:\proj\ARKN141\sw\xspace\proj\ARKN141_DEMO\HONGJING_CVB #
#                    S_3D_OFF\Obj\app_systemversionview.o                     #
#                    E:\proj\ARKN141\sw\xspace\proj\ARKN141_DEMO\HONGJING_CVB #
#                    S_3D_OFF\Obj\app_task.o E:\proj\ARKN141\sw\xspace\proj\A #
#                    RKN141_DEMO\HONGJING_CVBS_3D_OFF\Obj\app_time.o          #
#                    E:\proj\ARKN141\sw\xspace\proj\ARKN141_DEMO\HONGJING_CVB #
#                    S_3D_OFF\Obj\app_titlebar.o                              #
#                    E:\proj\ARKN141\sw\xspace\proj\ARKN141_DEMO\HONGJING_CVB #
#                    S_3D_OFF\Obj\app_video.o E:\proj\ARKN141\sw\xspace\proj\ #
#                    ARKN141_DEMO\HONGJING_CVBS_3D_OFF\Obj\app_videolistview. #
#                    o E:\proj\ARKN141\sw\xspace\proj\ARKN141_DEMO\HONGJING_C #
#                    VBS_3D_OFF\Obj\app_videosettingview.o                    #
#                    E:\proj\ARKN141\sw\xspace\proj\ARKN141_DEMO\HONGJING_CVB #
#                    S_3D_OFF\Obj\app_videoview.o                             #
#                    E:\proj\ARKN141\sw\xspace\proj\ARKN141_DEMO\HONGJING_CVB #
#                    S_3D_OFF\Obj\app_voice.o E:\proj\ARKN141\sw\xspace\proj\ #
#                    ARKN141_DEMO\HONGJING_CVBS_3D_OFF\Obj\ar0238.o           #
#                    E:\proj\ARKN141\sw\xspace\proj\ARKN141_DEMO\HONGJING_CVB #
#                    S_3D_OFF\Obj\arkn141_cmos_sensor_ar0238.o                #
#                    E:\proj\ARKN141\sw\xspace\proj\ARKN141_DEMO\HONGJING_CVB #
#                    S_3D_OFF\Obj\arkn141_cmos_sensor_ar0238_io.o             #
#                    E:\proj\ARKN141\sw\xspace\proj\ARKN141_DEMO\HONGJING_CVB #
#                    S_3D_OFF\Obj\arkn141_cmos_sensor_ar0330.o                #
#                    E:\proj\ARKN141\sw\xspace\proj\ARKN141_DEMO\HONGJING_CVB #
#                    S_3D_OFF\Obj\arkn141_cmos_sensor_ar0330_io.o             #
#                    E:\proj\ARKN141\sw\xspace\proj\ARKN141_DEMO\HONGJING_CVB #
#                    S_3D_OFF\Obj\arkn141_cmos_sensor_bg0806.o                #
#                    E:\proj\ARKN141\sw\xspace\proj\ARKN141_DEMO\HONGJING_CVB #
#                    S_3D_OFF\Obj\arkn141_cmos_sensor_bg0806_io.o             #
#                    E:\proj\ARKN141\sw\xspace\proj\ARKN141_DEMO\HONGJING_CVB #
#                    S_3D_OFF\Obj\arkn141_cmos_sensor_imx322.o                #
#                    E:\proj\ARKN141\sw\xspace\proj\ARKN141_DEMO\HONGJING_CVB #
#                    S_3D_OFF\Obj\arkn141_cmos_sensor_imx322_io.o             #
#                    E:\proj\ARKN141\sw\xspace\proj\ARKN141_DEMO\HONGJING_CVB #
#                    S_3D_OFF\Obj\arkn141_cmos_sensor_ps1210k.o               #
#                    E:\proj\ARKN141\sw\xspace\proj\ARKN141_DEMO\HONGJING_CVB #
#                    S_3D_OFF\Obj\arkn141_cmos_sensor_ps1210k_io.o            #
#                    E:\proj\ARKN141\sw\xspace\proj\ARKN141_DEMO\HONGJING_CVB #
#                    S_3D_OFF\Obj\arkn141_codec.o                             #
#                    E:\proj\ARKN141\sw\xspace\proj\ARKN141_DEMO\HONGJING_CVB #
#                    S_3D_OFF\Obj\arkn141_codec_test.o                        #
#                    E:\proj\ARKN141\sw\xspace\proj\ARKN141_DEMO\HONGJING_CVB #
#                    S_3D_OFF\Obj\arkn141_h264_decoder.o                      #
#                    E:\proj\ARKN141\sw\xspace\proj\ARKN141_DEMO\HONGJING_CVB #
#                    S_3D_OFF\Obj\arkn141_h264_encoder.o                      #
#                    E:\proj\ARKN141\sw\xspace\proj\ARKN141_DEMO\HONGJING_CVB #
#                    S_3D_OFF\Obj\arkn141_h264_encoder_test.o                 #
#                    E:\proj\ARKN141\sw\xspace\proj\ARKN141_DEMO\HONGJING_CVB #
#                    S_3D_OFF\Obj\arkn141_isp_exposure.o                      #
#                    E:\proj\ARKN141\sw\xspace\proj\ARKN141_DEMO\HONGJING_CVB #
#                    S_3D_OFF\Obj\arkn141_isp_exposure_cmos.o                 #
#                    E:\proj\ARKN141\sw\xspace\proj\ARKN141_DEMO\HONGJING_CVB #
#                    S_3D_OFF\Obj\arkn141_jpeg_decoder.o                      #
#                    E:\proj\ARKN141\sw\xspace\proj\ARKN141_DEMO\HONGJING_CVB #
#                    S_3D_OFF\Obj\arkn141_jpeg_encoder.o                      #
#                    E:\proj\ARKN141\sw\xspace\proj\ARKN141_DEMO\HONGJING_CVB #
#                    S_3D_OFF\Obj\arkn141_jpeg_test.o                         #
#                    E:\proj\ARKN141\sw\xspace\proj\ARKN141_DEMO\HONGJING_CVB #
#                    S_3D_OFF\Obj\arkn141_scale.o                             #
#                    E:\proj\ARKN141\sw\xspace\proj\ARKN141_DEMO\HONGJING_CVB #
#                    S_3D_OFF\Obj\avi_codec_task.o                            #
#                    E:\proj\ARKN141\sw\xspace\proj\ARKN141_DEMO\HONGJING_CVB #
#                    S_3D_OFF\Obj\avio.o E:\proj\ARKN141\sw\xspace\proj\ARKN1 #
#                    41_DEMO\HONGJING_CVBS_3D_OFF\Obj\bg0806.o                #
#                    E:\proj\ARKN141\sw\xspace\proj\ARKN141_DEMO\HONGJING_CVB #
#                    S_3D_OFF\Obj\bqueue.o E:\proj\ARKN141\sw\xspace\proj\ARK #
#                    N141_DEMO\HONGJING_CVBS_3D_OFF\Obj\calender.o            #
#                    E:\proj\ARKN141\sw\xspace\proj\ARKN141_DEMO\HONGJING_CVB #
#                    S_3D_OFF\Obj\camera_task.o E:\proj\ARKN141\sw\xspace\pro #
#                    j\ARKN141_DEMO\HONGJING_CVBS_3D_OFF\Obj\clock.o          #
#                    E:\proj\ARKN141\sw\xspace\proj\ARKN141_DEMO\HONGJING_CVB #
#                    S_3D_OFF\Obj\common_chardef.o                            #
#                    E:\proj\ARKN141\sw\xspace\proj\ARKN141_DEMO\HONGJING_CVB #
#                    S_3D_OFF\Obj\common_chartype.o                           #
#                    E:\proj\ARKN141\sw\xspace\proj\ARKN141_DEMO\HONGJING_CVB #
#                    S_3D_OFF\Obj\common_rbtr.o E:\proj\ARKN141\sw\xspace\pro #
#                    j\ARKN141_DEMO\HONGJING_CVBS_3D_OFF\Obj\common_string.o  #
#                    E:\proj\ARKN141\sw\xspace\proj\ARKN141_DEMO\HONGJING_CVB #
#                    S_3D_OFF\Obj\common_wstring.o                            #
#                    E:\proj\ARKN141\sw\xspace\proj\ARKN141_DEMO\HONGJING_CVB #
#                    S_3D_OFF\Obj\cortex_a5_board_cstartup_iar.o              #
#                    E:\proj\ARKN141\sw\xspace\proj\ARKN141_DEMO\HONGJING_CVB #
#                    S_3D_OFF\Obj\cortex_a5_cp15.o                            #
#                    E:\proj\ARKN141\sw\xspace\proj\ARKN141_DEMO\HONGJING_CVB #
#                    S_3D_OFF\Obj\cortex_a5_cp15_asm_iar.o                    #
#                    E:\proj\ARKN141\sw\xspace\proj\ARKN141_DEMO\HONGJING_CVB #
#                    S_3D_OFF\Obj\cortex_a5_mmu.o                             #
#                    E:\proj\ARKN141\sw\xspace\proj\ARKN141_DEMO\HONGJING_CVB #
#                    S_3D_OFF\Obj\crc16.o E:\proj\ARKN141\sw\xspace\proj\ARKN #
#                    141_DEMO\HONGJING_CVBS_3D_OFF\Obj\csc.o                  #
#                    E:\proj\ARKN141\sw\xspace\proj\ARKN141_DEMO\HONGJING_CVB #
#                    S_3D_OFF\Obj\descript.o E:\proj\ARKN141\sw\xspace\proj\A #
#                    RKN141_DEMO\HONGJING_CVBS_3D_OFF\Obj\descript_def.o      #
#                    E:\proj\ARKN141\sw\xspace\proj\ARKN141_DEMO\HONGJING_CVB #
#                    S_3D_OFF\Obj\desktop.o E:\proj\ARKN141\sw\xspace\proj\AR #
#                    KN141_DEMO\HONGJING_CVBS_3D_OFF\Obj\dma.o                #
#                    E:\proj\ARKN141\sw\xspace\proj\ARKN141_DEMO\HONGJING_CVB #
#                    S_3D_OFF\Obj\dwl_iar.o E:\proj\ARKN141\sw\xspace\proj\AR #
#                    KN141_DEMO\HONGJING_CVBS_3D_OFF\Obj\dwl_x170_iar_no_drv. #
#                    o E:\proj\ARKN141\sw\xspace\proj\ARKN141_DEMO\HONGJING_C #
#                    VBS_3D_OFF\Obj\encasiccontroller.o                       #
#                    E:\proj\ARKN141\sw\xspace\proj\ARKN141_DEMO\HONGJING_CVB #
#                    S_3D_OFF\Obj\encasiccontroller_v2.o                      #
#                    E:\proj\ARKN141\sw\xspace\proj\ARKN141_DEMO\HONGJING_CVB #
#                    S_3D_OFF\Obj\encpreprocess.o                             #
#                    E:\proj\ARKN141\sw\xspace\proj\ARKN141_DEMO\HONGJING_CVB #
#                    S_3D_OFF\Obj\ewl_x280_common.o                           #
#                    E:\proj\ARKN141\sw\xspace\proj\ARKN141_DEMO\HONGJING_CVB #
#                    S_3D_OFF\Obj\ewl_x280_polling.o                          #
#                    E:\proj\ARKN141\sw\xspace\proj\ARKN141_DEMO\HONGJING_CVB #
#                    S_3D_OFF\Obj\exception_dump.o                            #
#                    E:\proj\ARKN141\sw\xspace\proj\ARKN141_DEMO\HONGJING_CVB #
#                    S_3D_OFF\Obj\flash.o E:\proj\ARKN141\sw\xspace\proj\ARKN #
#                    141_DEMO\HONGJING_CVBS_3D_OFF\Obj\fs_cache_file_test.o   #
#                    E:\proj\ARKN141\sw\xspace\proj\ARKN141_DEMO\HONGJING_CVB #
#                    S_3D_OFF\Obj\fs_sd1_test.o E:\proj\ARKN141\sw\xspace\pro #
#                    j\ARKN141_DEMO\HONGJING_CVBS_3D_OFF\Obj\fs_sd_test.o     #
#                    E:\proj\ARKN141\sw\xspace\proj\ARKN141_DEMO\HONGJING_CVB #
#                    S_3D_OFF\Obj\gif.o E:\proj\ARKN141\sw\xspace\proj\ARKN14 #
#                    1_DEMO\HONGJING_CVBS_3D_OFF\Obj\globaldata.o             #
#                    E:\proj\ARKN141\sw\xspace\proj\ARKN141_DEMO\HONGJING_CVB #
#                    S_3D_OFF\Obj\globalfunc.o E:\proj\ARKN141\sw\xspace\proj #
#                    \ARKN141_DEMO\HONGJING_CVBS_3D_OFF\Obj\gpio.o            #
#                    E:\proj\ARKN141\sw\xspace\proj\ARKN141_DEMO\HONGJING_CVB #
#                    S_3D_OFF\Obj\gpio_function.o                             #
#                    E:\proj\ARKN141\sw\xspace\proj\ARKN141_DEMO\HONGJING_CVB #
#                    S_3D_OFF\Obj\gpioi2c.o E:\proj\ARKN141\sw\xspace\proj\AR #
#                    KN141_DEMO\HONGJING_CVBS_3D_OFF\Obj\h264_pp_pipeline.o   #
#                    E:\proj\ARKN141\sw\xspace\proj\ARKN141_DEMO\HONGJING_CVB #
#                    S_3D_OFF\Obj\h264decapi.o E:\proj\ARKN141\sw\xspace\proj #
#                    \ARKN141_DEMO\HONGJING_CVBS_3D_OFF\Obj\h264decapi_e.o    #
#                    E:\proj\ARKN141\sw\xspace\proj\ARKN141_DEMO\HONGJING_CVB #
#                    S_3D_OFF\Obj\h264encapi_ext.o                            #
#                    E:\proj\ARKN141\sw\xspace\proj\ARKN141_DEMO\HONGJING_CVB #
#                    S_3D_OFF\Obj\h264hwd_asic.o                              #
#                    E:\proj\ARKN141\sw\xspace\proj\ARKN141_DEMO\HONGJING_CVB #
#                    S_3D_OFF\Obj\h264hwd_byte_stream.o                       #
#                    E:\proj\ARKN141\sw\xspace\proj\ARKN141_DEMO\HONGJING_CVB #
#                    S_3D_OFF\Obj\h264hwd_cabac.o                             #
#                    E:\proj\ARKN141\sw\xspace\proj\ARKN141_DEMO\HONGJING_CVB #
#                    S_3D_OFF\Obj\h264hwd_cavlc.o                             #
#                    E:\proj\ARKN141\sw\xspace\proj\ARKN141_DEMO\HONGJING_CVB #
#                    S_3D_OFF\Obj\h264hwd_conceal.o                           #
#                    E:\proj\ARKN141\sw\xspace\proj\ARKN141_DEMO\HONGJING_CVB #
#                    S_3D_OFF\Obj\h264hwd_decoder.o                           #
#                    E:\proj\ARKN141\sw\xspace\proj\ARKN141_DEMO\HONGJING_CVB #
#                    S_3D_OFF\Obj\h264hwd_dpb.o E:\proj\ARKN141\sw\xspace\pro #
#                    j\ARKN141_DEMO\HONGJING_CVBS_3D_OFF\Obj\h264hwd_inter_pr #
#                    ediction.o E:\proj\ARKN141\sw\xspace\proj\ARKN141_DEMO\H #
#                    ONGJING_CVBS_3D_OFF\Obj\h264hwd_intra_prediction.o       #
#                    E:\proj\ARKN141\sw\xspace\proj\ARKN141_DEMO\HONGJING_CVB #
#                    S_3D_OFF\Obj\h264hwd_macroblock_layer.o                  #
#                    E:\proj\ARKN141\sw\xspace\proj\ARKN141_DEMO\HONGJING_CVB #
#                    S_3D_OFF\Obj\h264hwd_nal_unit.o                          #
#                    E:\proj\ARKN141\sw\xspace\proj\ARKN141_DEMO\HONGJING_CVB #
#                    S_3D_OFF\Obj\h264hwd_neighbour.o                         #
#                    E:\proj\ARKN141\sw\xspace\proj\ARKN141_DEMO\HONGJING_CVB #
#                    S_3D_OFF\Obj\h264hwd_pic_order_cnt.o                     #
#                    E:\proj\ARKN141\sw\xspace\proj\ARKN141_DEMO\HONGJING_CVB #
#                    S_3D_OFF\Obj\h264hwd_pic_param_set.o                     #
#                    E:\proj\ARKN141\sw\xspace\proj\ARKN141_DEMO\HONGJING_CVB #
#                    S_3D_OFF\Obj\h264hwd_seq_param_set.o                     #
#                    E:\proj\ARKN141\sw\xspace\proj\ARKN141_DEMO\HONGJING_CVB #
#                    S_3D_OFF\Obj\h264hwd_slice_data.o                        #
#                    E:\proj\ARKN141\sw\xspace\proj\ARKN141_DEMO\HONGJING_CVB #
#                    S_3D_OFF\Obj\h264hwd_slice_group_map.o                   #
#                    E:\proj\ARKN141\sw\xspace\proj\ARKN141_DEMO\HONGJING_CVB #
#                    S_3D_OFF\Obj\h264hwd_slice_header.o                      #
#                    E:\proj\ARKN141\sw\xspace\proj\ARKN141_DEMO\HONGJING_CVB #
#                    S_3D_OFF\Obj\h264hwd_storage.o                           #
#                    E:\proj\ARKN141\sw\xspace\proj\ARKN141_DEMO\HONGJING_CVB #
#                    S_3D_OFF\Obj\h264hwd_stream.o                            #
#                    E:\proj\ARKN141\sw\xspace\proj\ARKN141_DEMO\HONGJING_CVB #
#                    S_3D_OFF\Obj\h264hwd_util.o                              #
#                    E:\proj\ARKN141\sw\xspace\proj\ARKN141_DEMO\HONGJING_CVB #
#                    S_3D_OFF\Obj\h264hwd_vlc.o E:\proj\ARKN141\sw\xspace\pro #
#                    j\ARKN141_DEMO\HONGJING_CVBS_3D_OFF\Obj\h264hwd_vui.o    #
#                    E:\proj\ARKN141\sw\xspace\proj\ARKN141_DEMO\HONGJING_CVB #
#                    S_3D_OFF\Obj\hardtimer_task.o                            #
#                    E:\proj\ARKN141\sw\xspace\proj\ARKN141_DEMO\HONGJING_CVB #
#                    S_3D_OFF\Obj\hdmi.o E:\proj\ARKN141\sw\xspace\proj\ARKN1 #
#                    41_DEMO\HONGJING_CVBS_3D_OFF\Obj\hdmi_i2c.o              #
#                    E:\proj\ARKN141\sw\xspace\proj\ARKN141_DEMO\HONGJING_CVB #
#                    S_3D_OFF\Obj\hdmi_main.o E:\proj\ARKN141\sw\xspace\proj\ #
#                    ARKN141_DEMO\HONGJING_CVBS_3D_OFF\Obj\hdmitx_drv.o       #
#                    E:\proj\ARKN141\sw\xspace\proj\ARKN141_DEMO\HONGJING_CVB #
#                    S_3D_OFF\Obj\hdmitx_hdcp.o E:\proj\ARKN141\sw\xspace\pro #
#                    j\ARKN141_DEMO\HONGJING_CVBS_3D_OFF\Obj\hdmitx_input.o   #
#                    E:\proj\ARKN141\sw\xspace\proj\ARKN141_DEMO\HONGJING_CVB #
#                    S_3D_OFF\Obj\hdmitx_sys.o E:\proj\ARKN141\sw\xspace\proj #
#                    \ARKN141_DEMO\HONGJING_CVBS_3D_OFF\Obj\hongjing_uart_soc #
#                    ket.o E:\proj\ARKN141\sw\xspace\proj\ARKN141_DEMO\HONGJI #
#                    NG_CVBS_3D_OFF\Obj\hw_osd_layer_iar.o                    #
#                    E:\proj\ARKN141\sw\xspace\proj\ARKN141_DEMO\HONGJING_CVB #
#                    S_3D_OFF\Obj\hx170dec.o E:\proj\ARKN141\sw\xspace\proj\A #
#                    RKN141_DEMO\HONGJING_CVBS_3D_OFF\Obj\hx280enc.o          #
#                    E:\proj\ARKN141\sw\xspace\proj\ARKN141_DEMO\HONGJING_CVB #
#                    S_3D_OFF\Obj\imx322.o E:\proj\ARKN141\sw\xspace\proj\ARK #
#                    N141_DEMO\HONGJING_CVBS_3D_OFF\Obj\interrupt.o           #
#                    E:\proj\ARKN141\sw\xspace\proj\ARKN141_DEMO\HONGJING_CVB #
#                    S_3D_OFF\Obj\irq.o E:\proj\ARKN141\sw\xspace\proj\ARKN14 #
#                    1_DEMO\HONGJING_CVBS_3D_OFF\Obj\itu656.o                 #
#                    E:\proj\ARKN141\sw\xspace\proj\ARKN141_DEMO\HONGJING_CVB #
#                    S_3D_OFF\Obj\itu656_test.o E:\proj\ARKN141\sw\xspace\pro #
#                    j\ARKN141_DEMO\HONGJING_CVBS_3D_OFF\Obj\jpeg_task.o      #
#                    E:\proj\ARKN141\sw\xspace\proj\ARKN141_DEMO\HONGJING_CVB #
#                    S_3D_OFF\Obj\jpegdecapi.o E:\proj\ARKN141\sw\xspace\proj #
#                    \ARKN141_DEMO\HONGJING_CVBS_3D_OFF\Obj\jpegdechdrs.o     #
#                    E:\proj\ARKN141\sw\xspace\proj\ARKN141_DEMO\HONGJING_CVB #
#                    S_3D_OFF\Obj\jpegdecinternal.o                           #
#                    E:\proj\ARKN141\sw\xspace\proj\ARKN141_DEMO\HONGJING_CVB #
#                    S_3D_OFF\Obj\jpegdecscan.o E:\proj\ARKN141\sw\xspace\pro #
#                    j\ARKN141_DEMO\HONGJING_CVBS_3D_OFF\Obj\jpegdecutils.o   #
#                    E:\proj\ARKN141\sw\xspace\proj\ARKN141_DEMO\HONGJING_CVB #
#                    S_3D_OFF\Obj\lcd.o E:\proj\ARKN141\sw\xspace\proj\ARKN14 #
#                    1_DEMO\HONGJING_CVBS_3D_OFF\Obj\lcdc_rgb.o               #
#                    E:\proj\ARKN141\sw\xspace\proj\ARKN141_DEMO\HONGJING_CVB #
#                    S_3D_OFF\Obj\lcdc_rgb_RM68172.o                          #
#                    E:\proj\ARKN141\sw\xspace\proj\ARKN141_DEMO\HONGJING_CVB #
#                    S_3D_OFF\Obj\main.o E:\proj\ARKN141\sw\xspace\proj\ARKN1 #
#                    41_DEMO\HONGJING_CVBS_3D_OFF\Obj\message_task.o          #
#                    E:\proj\ARKN141\sw\xspace\proj\ARKN141_DEMO\HONGJING_CVB #
#                    S_3D_OFF\Obj\on2_TestBench.o                             #
#                    E:\proj\ARKN141\sw\xspace\proj\ARKN141_DEMO\HONGJING_CVB #
#                    S_3D_OFF\Obj\onekeyphotograph_task.o                     #
#                    E:\proj\ARKN141\sw\xspace\proj\ARKN141_DEMO\HONGJING_CVB #
#                    S_3D_OFF\Obj\os_change_task.o                            #
#                    E:\proj\ARKN141\sw\xspace\proj\ARKN141_DEMO\HONGJING_CVB #
#                    S_3D_OFF\Obj\pc_main.o E:\proj\ARKN141\sw\xspace\proj\AR #
#                    KN141_DEMO\HONGJING_CVBS_3D_OFF\Obj\ps1210k.o            #
#                    E:\proj\ARKN141\sw\xspace\proj\ARKN141_DEMO\HONGJING_CVB #
#                    S_3D_OFF\Obj\pwm.o E:\proj\ARKN141\sw\xspace\proj\ARKN14 #
#                    1_DEMO\HONGJING_CVBS_3D_OFF\Obj\queue.o                  #
#                    E:\proj\ARKN141\sw\xspace\proj\ARKN141_DEMO\HONGJING_CVB #
#                    S_3D_OFF\Obj\recycle_video_alert_view.o                  #
#                    E:\proj\ARKN141\sw\xspace\proj\ARKN141_DEMO\HONGJING_CVB #
#                    S_3D_OFF\Obj\recycle_video_graph_view.o                  #
#                    E:\proj\ARKN141\sw\xspace\proj\ARKN141_DEMO\HONGJING_CVB #
#                    S_3D_OFF\Obj\refbuffer.o E:\proj\ARKN141\sw\xspace\proj\ #
#                    ARKN141_DEMO\HONGJING_CVBS_3D_OFF\Obj\regdrv.o           #
#                    E:\proj\ARKN141\sw\xspace\proj\ARKN141_DEMO\HONGJING_CVB #
#                    S_3D_OFF\Obj\rtc.o E:\proj\ARKN141\sw\xspace\proj\ARKN14 #
#                    1_DEMO\HONGJING_CVBS_3D_OFF\Obj\rtosinit.o               #
#                    E:\proj\ARKN141\sw\xspace\proj\ARKN141_DEMO\HONGJING_CVB #
#                    S_3D_OFF\Obj\sdmmc.o E:\proj\ARKN141\sw\xspace\proj\ARKN #
#                    141_DEMO\HONGJING_CVBS_3D_OFF\Obj\sensor_task.o          #
#                    E:\proj\ARKN141\sw\xspace\proj\ARKN141_DEMO\HONGJING_CVB #
#                    S_3D_OFF\Obj\sensorlib.o E:\proj\ARKN141\sw\xspace\proj\ #
#                    ARKN141_DEMO\HONGJING_CVBS_3D_OFF\Obj\sha1.o             #
#                    E:\proj\ARKN141\sw\xspace\proj\ARKN141_DEMO\HONGJING_CVB #
#                    S_3D_OFF\Obj\srgb.o E:\proj\ARKN141\sw\xspace\proj\ARKN1 #
#                    41_DEMO\HONGJING_CVBS_3D_OFF\Obj\ssi.o                   #
#                    E:\proj\ARKN141\sw\xspace\proj\ARKN141_DEMO\HONGJING_CVB #
#                    S_3D_OFF\Obj\system_check.o                              #
#                    E:\proj\ARKN141\sw\xspace\proj\ARKN141_DEMO\HONGJING_CVB #
#                    S_3D_OFF\Obj\target.o E:\proj\ARKN141\sw\xspace\proj\ARK #
#                    N141_DEMO\HONGJING_CVBS_3D_OFF\Obj\target_ucosii.o       #
#                    E:\proj\ARKN141\sw\xspace\proj\ARKN141_DEMO\HONGJING_CVB #
#                    S_3D_OFF\Obj\tiledref.o E:\proj\ARKN141\sw\xspace\proj\A #
#                    RKN141_DEMO\HONGJING_CVBS_3D_OFF\Obj\timer.o             #
#                    E:\proj\ARKN141\sw\xspace\proj\ARKN141_DEMO\HONGJING_CVB #
#                    S_3D_OFF\Obj\tv_ntsc.o E:\proj\ARKN141\sw\xspace\proj\AR #
#                    KN141_DEMO\HONGJING_CVBS_3D_OFF\Obj\tv_pal.o             #
#                    E:\proj\ARKN141\sw\xspace\proj\ARKN141_DEMO\HONGJING_CVB #
#                    S_3D_OFF\Obj\uart.o E:\proj\ARKN141\sw\xspace\proj\ARKN1 #
#                    41_DEMO\HONGJING_CVBS_3D_OFF\Obj\ucFS_Version.o          #
#                    E:\proj\ARKN141\sw\xspace\proj\ARKN141_DEMO\HONGJING_CVB #
#                    S_3D_OFF\Obj\vidstabalg.o E:\proj\ARKN141\sw\xspace\proj #
#                    \ARKN141_DEMO\HONGJING_CVBS_3D_OFF\Obj\vidstabapi.o      #
#                    E:\proj\ARKN141\sw\xspace\proj\ARKN141_DEMO\HONGJING_CVB #
#                    S_3D_OFF\Obj\vidstabcommon.o                             #
#                    E:\proj\ARKN141\sw\xspace\proj\ARKN141_DEMO\HONGJING_CVB #
#                    S_3D_OFF\Obj\vidstabinternal.o                           #
#                    E:\proj\ARKN141\sw\xspace\proj\ARKN141_DEMO\HONGJING_CVB #
#                    S_3D_OFF\Obj\wdt.o E:\proj\ARKN141\sw\xspace\proj\ARKN14 #
#                    1_DEMO\HONGJING_CVBS_3D_OFF\Obj\workaround.o             #
#                    E:\proj\ARKN141\sw\xspace\proj\ARKN141_DEMO\HONGJING_CVB #
#                    S_3D_OFF\Obj\xm_adc.o E:\proj\ARKN141\sw\xspace\proj\ARK #
#                    N141_DEMO\HONGJING_CVBS_3D_OFF\Obj\xm_argb32bpp_drv.o    #
#                    E:\proj\ARKN141\sw\xspace\proj\ARKN141_DEMO\HONGJING_CVB #
#                    S_3D_OFF\Obj\xm_at.o E:\proj\ARKN141\sw\xspace\proj\ARKN #
#                    141_DEMO\HONGJING_CVBS_3D_OFF\Obj\xm_autotest.o          #
#                    E:\proj\ARKN141\sw\xspace\proj\ARKN141_DEMO\HONGJING_CVB #
#                    S_3D_OFF\Obj\xm_canvas.o E:\proj\ARKN141\sw\xspace\proj\ #
#                    ARKN141_DEMO\HONGJING_CVBS_3D_OFF\Obj\xm_core_file.o     #
#                    E:\proj\ARKN141\sw\xspace\proj\ARKN141_DEMO\HONGJING_CVB #
#                    S_3D_OFF\Obj\xm_core_linear_memory.o                     #
#                    E:\proj\ARKN141\sw\xspace\proj\ARKN141_DEMO\HONGJING_CVB #
#                    S_3D_OFF\Obj\xm_fb_argb454_drv.o                         #
#                    E:\proj\ARKN141\sw\xspace\proj\ARKN141_DEMO\HONGJING_CVB #
#                    S_3D_OFF\Obj\xm_fb_argb888_drv.o                         #
#                    E:\proj\ARKN141\sw\xspace\proj\ARKN141_DEMO\HONGJING_CVB #
#                    S_3D_OFF\Obj\xm_fb_drv.o E:\proj\ARKN141\sw\xspace\proj\ #
#                    ARKN141_DEMO\HONGJING_CVBS_3D_OFF\Obj\xm_fb_rgb565_drv.o #
#                     E:\proj\ARKN141\sw\xspace\proj\ARKN141_DEMO\HONGJING_CV #
#                    BS_3D_OFF\Obj\xm_file.o E:\proj\ARKN141\sw\xspace\proj\A #
#                    RKN141_DEMO\HONGJING_CVBS_3D_OFF\Obj\xm_file_manager_tas #
#                    k.o E:\proj\ARKN141\sw\xspace\proj\ARKN141_DEMO\HONGJING #
#                    _CVBS_3D_OFF\Obj\xm_gdi_graph.o                          #
#                    E:\proj\ARKN141\sw\xspace\proj\ARKN141_DEMO\HONGJING_CVB #
#                    S_3D_OFF\Obj\xm_gdi_image.o                              #
#                    E:\proj\ARKN141\sw\xspace\proj\ARKN141_DEMO\HONGJING_CVB #
#                    S_3D_OFF\Obj\xm_gdi_rom_image.o                          #
#                    E:\proj\ARKN141\sw\xspace\proj\ARKN141_DEMO\HONGJING_CVB #
#                    S_3D_OFF\Obj\xm_h264_cache_command_queue.o               #
#                    E:\proj\ARKN141\sw\xspace\proj\ARKN141_DEMO\HONGJING_CVB #
#                    S_3D_OFF\Obj\xm_h264_cache_file.o                        #
#                    E:\proj\ARKN141\sw\xspace\proj\ARKN141_DEMO\HONGJING_CVB #
#                    S_3D_OFF\Obj\xm_h264_file.o                              #
#                    E:\proj\ARKN141\sw\xspace\proj\ARKN141_DEMO\HONGJING_CVB #
#                    S_3D_OFF\Obj\xm_hybrid_stream.o                          #
#                    E:\proj\ARKN141\sw\xspace\proj\ARKN141_DEMO\HONGJING_CVB #
#                    S_3D_OFF\Obj\xm_i2c.o E:\proj\ARKN141\sw\xspace\proj\ARK #
#                    N141_DEMO\HONGJING_CVBS_3D_OFF\Obj\xm_icon_manage.o      #
#                    E:\proj\ARKN141\sw\xspace\proj\ARKN141_DEMO\HONGJING_CVB #
#                    S_3D_OFF\Obj\xm_iisadc.o E:\proj\ARKN141\sw\xspace\proj\ #
#                    ARKN141_DEMO\HONGJING_CVBS_3D_OFF\Obj\xm_isp_scalar.o    #
#                    E:\proj\ARKN141\sw\xspace\proj\ARKN141_DEMO\HONGJING_CVB #
#                    S_3D_OFF\Obj\xm_itu656_in.o                              #
#                    E:\proj\ARKN141\sw\xspace\proj\ARKN141_DEMO\HONGJING_CVB #
#                    S_3D_OFF\Obj\xm_kbd_drv.o E:\proj\ARKN141\sw\xspace\proj #
#                    \ARKN141_DEMO\HONGJING_CVBS_3D_OFF\Obj\xm_led.o          #
#                    E:\proj\ARKN141\sw\xspace\proj\ARKN141_DEMO\HONGJING_CVB #
#                    S_3D_OFF\Obj\xm_osd_framebuffer.o                        #
#                    E:\proj\ARKN141\sw\xspace\proj\ARKN141_DEMO\HONGJING_CVB #
#                    S_3D_OFF\Obj\xm_osd_framebuffer_config.o                 #
#                    E:\proj\ARKN141\sw\xspace\proj\ARKN141_DEMO\HONGJING_CVB #
#                    S_3D_OFF\Obj\xm_osd_layer.o                              #
#                    E:\proj\ARKN141\sw\xspace\proj\ARKN141_DEMO\HONGJING_CVB #
#                    S_3D_OFF\Obj\xm_osd_layer_animate.o                      #
#                    E:\proj\ARKN141\sw\xspace\proj\ARKN141_DEMO\HONGJING_CVB #
#                    S_3D_OFF\Obj\xm_osd_layer_gif.o                          #
#                    E:\proj\ARKN141\sw\xspace\proj\ARKN141_DEMO\HONGJING_CVB #
#                    S_3D_OFF\Obj\xm_power.o E:\proj\ARKN141\sw\xspace\proj\A #
#                    RKN141_DEMO\HONGJING_CVBS_3D_OFF\Obj\xm_recycle.o        #
#                    E:\proj\ARKN141\sw\xspace\proj\ARKN141_DEMO\HONGJING_CVB #
#                    S_3D_OFF\Obj\xm_semaphore.o                              #
#                    E:\proj\ARKN141\sw\xspace\proj\ARKN141_DEMO\HONGJING_CVB #
#                    S_3D_OFF\Obj\xm_system_update.o                          #
#                    E:\proj\ARKN141\sw\xspace\proj\ARKN141_DEMO\HONGJING_CVB #
#                    S_3D_OFF\Obj\xm_tester.o E:\proj\ARKN141\sw\xspace\proj\ #
#                    ARKN141_DEMO\HONGJING_CVBS_3D_OFF\Obj\xm_tester_script.o #
#                     E:\proj\ARKN141\sw\xspace\proj\ARKN141_DEMO\HONGJING_CV #
#                    BS_3D_OFF\Obj\xm_time_drv.o                              #
#                    "E:\proj\ARKN141\sw\xspace\proj\ARKN141_DEMO\HONGJING_CV #
#                    BS_3D_OFF\Obj\xm_touch_drv .o"                           #
#                    E:\proj\ARKN141\sw\xspace\proj\ARKN141_DEMO\HONGJING_CVB #
#                    S_3D_OFF\Obj\xm_uart.o E:\proj\ARKN141\sw\xspace\proj\AR #
#                    KN141_DEMO\HONGJING_CVBS_3D_OFF\Obj\xm_uart_drv.o        #
#                    E:\proj\ARKN141\sw\xspace\proj\ARKN141_DEMO\HONGJING_CVB #
#                    S_3D_OFF\Obj\xm_uvc_socket.o                             #
#                    E:\proj\ARKN141\sw\xspace\proj\ARKN141_DEMO\HONGJING_CVB #
#                    S_3D_OFF\Obj\xm_video_task.o                             #
#                    E:\proj\ARKN141\sw\xspace\proj\ARKN141_DEMO\HONGJING_CVB #
#                    S_3D_OFF\Obj\xm_win_base.o E:\proj\ARKN141\sw\xspace\pro #
#                    j\ARKN141_DEMO\HONGJING_CVBS_3D_OFF\Obj\xm_win_gdi.o     #
#                    E:\proj\ARKN141\sw\xspace\proj\ARKN141_DEMO\HONGJING_CVB #
#                    S_3D_OFF\Obj\xm_win_main.o E:\proj\ARKN141\sw\xspace\pro #
#                    j\ARKN141_DEMO\HONGJING_CVBS_3D_OFF\Obj\xm_win_mem.o     #
#                    E:\proj\ARKN141\sw\xspace\proj\ARKN141_DEMO\HONGJING_CVB #
#                    S_3D_OFF\Obj\xm_win_user.o E:\proj\ARKN141\sw\xspace\pro #
#                    j\ARKN141_DEMO\HONGJING_CVBS_3D_OFF\Obj\xm_win_widget.o  #
#                    E:\proj\ARKN141\sw\xspace\proj\ARKN141_DEMO\HONGJING_CVB #
#                    S_3D_OFF\Obj\xm_xml.o E:\proj\ARKN141\sw\xspace\proj\ARK #
#                    N141_DEMO\HONGJING_CVBS_3D_OFF\Obj\xmvideoitem.o -o      #
#                    E:\proj\ARKN141\sw\xspace\proj\ARKN141_DEMO\HONGJING_CVB #
#                    S_3D_OFF\Exe\ARKN141_DEMO.out --map                      #
#                    E:\proj\ARKN141\sw\xspace\proj\ARKN141_DEMO\HONGJING_CVB #
#                    S_3D_OFF\List\ARKN141_DEMO.map --config                  #
#                    E:\proj\ARKN141\sw\xspace\proj\ARKN141_DEMO\arkn141_hong #
#                    jing_cvbs.icf --image_input=E:\proj\ARKN141\sw\xspace\pr #
#                    oj\ARKN141_DEMO\..\..\rtos\core\rom.bin,_ROM_BIN_,       #
#                    _ROM_SECTION_,32 --image_input=E:\proj\ARKN141\sw\xspace #
#                    \proj\ARKN141_DEMO\..\..\rtos\core\dvr.jpg,_DVR_BIN_,    #
#                    _DVR_SECTION_,32 E:\proj\ARKN141\sw\xspace\proj\ARKN141_ #
#                    DEMO\..\..\hwlib\libavcodec.a                            #
#                    E:\proj\ARKN141\sw\xspace\proj\ARKN141_DEMO\..\..\hwlib\ #
#                    libavformat.a E:\proj\ARKN141\sw\xspace\proj\ARKN141_DEM #
#                    O\..\..\hwlib\libavutil.a --entry __iar_program_start)   #
#                                                                             #
#                                                                             #
###############################################################################

*******************************************************************************
*** MESSAGES
***

Warning[Lt017]: Old abi version used in g729_dec.o(speech_decoder_thumb.a) and
          25 other objects
Warning[Lt009]: Inconsistent wchar_t size
          E:\proj\ARKN141\sw\xspace\proj\ARKN141_DEMO\HONGJING_CVBS_3D_OFF\Obj\
                    AudioFunction.o and 535 other objects has wchar_t size 16
                    bits
          tachograph.o(libavformat.a) and 50 other objects has wchar_t size 32
                    bits
Warning[Lt010]: Inconsistent enum container size
          E:\proj\ARKN141\sw\xspace\proj\ARKN141_DEMO\HONGJING_CVBS_3D_OFF\Obj\
                    EncJpeg.o and 157 other objects uses smallest possible
          tachograph.o(libavformat.a) and 50 other objects uses word size


*******************************************************************************
*** RUNTIME MODEL ATTRIBUTES
***

CppFlavor                   = *
__CPP_Exceptions            = *
__CPP_Language              = C++
__SystemLibrary             = DLib
__dlib_iterator_debugging   = 0
__dlib_jmp_buf_num_elements = 8
__iar_jmp_buf_elem_needed   = 8


*******************************************************************************
*** PLACEMENT SUMMARY
***

"A1":  place at 0x80000000 { ro section .intvec };
"P3":  place in [from 0x80000080 to 0x802fffff] { ro };
"P4":  place in [from 0x80300000 to 0x83ffffff] {
          rw, block CSTACK, block SVC_STACK, block IRQ_STACK, block FIQ_STACK,
          block UND_STACK, block ABT_STACK, block HEAP };

  Section                 Kind        Address       Size  Object
  -------                 ----        -------       ----  ------
"A1":                                               0x40
  .intvec                 ro code  0x80000000       0x40  cortex_a5_board_cstartup_iar.o [1]
                                 - 0x80000040       0x40

"P3":                                           0x1e4b2c
  _ROM_SECTION_                    0x80000080    0xe04bf  <Block>
    _ROM_SECTION_         const    0x80000080    0xe04bf  rom.bin [2]
  .text                   ro code  0x800e0540     0xb930  utils.o [6]
  .text                   ro code  0x800ebe70       0x24  strspn.o [4]
  .text                   ro code  0x800ebea0      0xb20  mem.o [7]
  .text                   ro code  0x800ec9c0       0x54  strlen.o [11]
  .text                   ro code  0x800eca14       0x74  strcmp.o [11]
  .text                   ro code  0x800eca88       0x14  xmvideoitem.o [1]
  .text                   ro code  0x800ecaa0      0x710  log.o [7]
  .text                   ro code  0x800ed1b0        0xa  strtol.o [4]
  .text                   ro code  0x800ed1ba        0xa  abort.o [4]
  .text                   ro code  0x800ed1c4       0x30  S32ToDbl.o [9]
  .text                   ro code  0x800ed1f4      0x38c  DblDiv.o [9]
  .text                   ro code  0x800ed580      0x204  DblMul.o [9]
  .text                   ro code  0x800ed784       0x14  DblLogGt.o [11]
  .text                   ro code  0x800ed7a0      0xab0  rational.o [7]
  .text                   ro code  0x800ee250      0x1ec  DblSub.o [9]
  .text                   ro code  0x800ee440      0xac0  avpacket.o [5]
  .text                   ro code  0x800eef00      0xf30  parseutils.o [7]
  .text                   ro code  0x800efe30       0x20  strchr.o [11]
  .text                   ro code  0x800efe50      0x680  avstring.o [7]
  Veneer                  ro code  0x800f04d0        0x8  - Linker created -
  .text                   ro code  0x800f04d8        0x4  xmvideoitem.o [1]
  Veneer                  ro code  0x800f04dc        0x8  - Linker created -
  .text                   ro code  0x800f04e4        0x4  xmvideoitem.o [1]
  .text                   ro code  0x800f04f0      0x900  mathematics.o [7]
  .text                   ro code  0x800f0df0     0x1b90  mux.o [6]
  .text                   ro code  0x800f2980       0x3c  vsnprint.o [4]
  .text                   ro code  0x800f29c0     0x5ff0  utils.o [5]
  .text                   ro code  0x800f89b0      0x1a8  I32DivMod.o [11]
  Veneer                  ro code  0x800f8b58        0x8  - Linker created -
  Veneer                  ro code  0x800f8b60        0x8  - Linker created -
  .text                   ro code  0x800f8b68      0x164  avio.o [1]
  .text                   ro code  0x800f8ccc       0x48  snprintf.o [4]
  .text                   ro code  0x800f8d20       0x80  time.o [7]
  .text                   ro code  0x800f8da0      0x184  I64DivMod.o [11]
  .text                   ro code  0x800f8f30      0x4d0  dict.o [7]
  .text                   ro code  0x800f9400       0x24  strcspn.o [4]
  .text                   ro code  0x800f9424       0xac  DblToFlt.o [9]
  .text                   ro code  0x800f94d0       0x40  lrintf.o [9]
  .text                   ro code  0x800f9510       0x5c  S64ToDbl.o [11]
  .text                   ro code  0x800f9570      0x470  options.o [5]
  .text                   ro code  0x800f99e0      0xc60  parser.o [5]
  .text                   ro code  0x800fa640     0x3b00  opt.o [7]
  .text                   ro code  0x800fe140     0x3560  aviobuf.o [6]
  .text                   ro code  0x801016a0       0x14  memmove.o [11]
  .text                   ro code  0x801016c0      0x6c0  buffer.o [7]
  .text                   ro code  0x80101d80       0x14  DblLogGe.o [11]
  .text                   ro code  0x80101d94       0x14  DblLogLe.o [11]
  .text                   ro code  0x80101da8       0x60  DblToS32.o [9]
  .text                   ro code  0x80101e08       0x70  I64ToFlt.o [11]
  .text                   ro code  0x80101e78      0x1c0  FltDiv.o [9]
  .text                   ro code  0x80102038       0x64  FltToDbl.o [9]
  .text                   ro code  0x801020a0     0x1360  id3v2.o [6]
  .text                   ro code  0x80103400       0x24  xmvideoitem.o [1]
  .text                   ro code  0x80103430      0x100  codec_desc.o [5]
  .text                   ro code  0x80103530     0x1900  tachograph.o [6]
  .text                   ro code  0x80104e30      0xbd0  avio.o [6]
  .text.unlikely          ro code  0x80105a00      0x110  utils.o [5]
  .text                   ro code  0x80105b10       0x14  DblLogLt.o [11]
  .text                   ro code  0x80105b30       0x30  raw.o [5]
  .text                   ro code  0x80105b60      0x670  rawdec.o [5]
  .text                   ro code  0x801061d0       0x4c  llrint.o [9]
  .text                   ro code  0x8010621c      0x140  DblAdd.o [9]
  .text                   ro code  0x80106360      0x150  options.o [6]
  .text                   ro code  0x801064b0     0x11fc  target.o [1]
  .text                   ro code  0x801076ac       0xd4  ABImemcpy.o [11]
  .text                   ro code  0x80107780       0x48  getenv.o [4]
  .text                   ro code  0x801077c8       0x68  strcpy.o [11]
  .text                   ro code  0x80107830       0x9c  xstol.o [4]
  .text                   ro code  0x801078cc       0x14  XXexit.o [11]
  .text                   ro code  0x801078e0       0x38  DblCmpGe.o [9]
  .text                   ro code  0x80107918        0xa  log.o [9]
  .constdata              const    0x80107922       0x62  rom_table.o [13]
  .text                   ro code  0x80107984       0x14  DblLogEq.o [11]
  .text                   ro code  0x801079a0       0x10  random_seed.o [7]
  .text                   ro code  0x801079b0       0x30  strncmp.o [4]
  .text                   ro code  0x801079e0        0x8  strtoul.o [4]
  .text                   ro code  0x801079e8        0xc  U32ToDbl.o [9]
  .text                   ro code  0x801079f4       0x3c  DblToU32.o [9]
  .text                   ro code  0x80107a30        0xa  strtod.o [9]
  .text                   ro code  0x80107a3a       0x3e  bsearch.o [4]
  .text                   ro code  0x80107a80     0x1ea0  eval.o [7]
  .text                   ro code  0x80109920        0xe  time.o [4]
  .text                   ro code  0x8010992e        0xe  gmtime.o [4]
  .text                   ro code  0x8010993c       0xe8  mktime.o [4]
  .text                   ro code  0x80109a24       0xc0  localtim.o [4]
  .text                   ro code  0x80109af0      0x9f0  bprint.o [7]
  .text                   ro code  0x8010a4e0       0x74  memcmp.o [11]
  .text                   ro code  0x8010a554       0x2e  strstr.o [4]
  .text                   ro code  0x8010a582       0x1a  strrchr.o [4]
  .text                   ro code  0x8010a59c      0xe2e  xprintffull.o [4]
  .text                   ro code  0x8010b3d0     0x10f0  frame.o [7]
  .text                   ro code  0x8010c4c0      0xe50  pixdesc.o [7]
  .text                   ro code  0x8010d310     0x1180  imgutils.o [7]
  .text                   ro code  0x8010e490      0x710  channel_layout.o [7]
  .text                   ro code  0x8010eba0      0x820  samplefmt.o [7]
  .text                   ro code  0x8010f3c0      0x230  utils.o [7]
  .text                   ro code  0x8010f5f0        0x4  IntDivZer.o [11]
  .text                   ro code  0x8010f5f4       0x24  printf.o [4]
  .text                   ro code  0x8010f618       0x1c  vsscanf.o [4]
  .text                   ro code  0x8010f634       0x98  rand.o [4]
  .text                   ro code  0x8010f6cc        0x4  I64DivZer.o [11]
  .text                   ro code  0x8010f6d0       0x1c  nearbyintf.o [9]
  .text                   ro code  0x8010f6ec       0x2c  FltCmpGe.o [9]
  .text                   ro code  0x8010f718       0x2c  FltCmpLe.o [9]
  .text                   ro code  0x8010f744       0x58  FltToS32.o [9]
  .text                   ro code  0x8010f79c       0x10  errno.o [4]
  .text                   ro code  0x8010f7ac       0xb8  DblToS64.o [11]
  .text                   ro code  0x8010f870       0x80  error.o [7]
  .text                   ro code  0x8010f8f0      0x2c0  crc.o [7]
  .text                   ro code  0x8010fbb0       0xd4  ABImemmove.o [11]
  .text                   ro code  0x8010fc84       0x38  DblCmpLe.o [9]
  .text                   ro code  0x8010fcc0      0x410  metadata.o [6]
  .text                   ro code  0x801100d0       0x78  ABImemset.o [11]
  .text                   ro code  0x80110148       0x31  puts.o [4]
  .text                   ro code  0x80110180       0x60  allformats.o [6]
  .text                   ro code  0x801101e0     0x26b8  xm_osd_layer.o [1]
  .text                   ro code  0x80112898      0x47c  rtosinit.o [1]
  .text                   ro code  0x80112d14     0x21a4  avi_codec_task.o [1]
  .text                   ro code  0x80114eb8      0x9a0  OSKERN.o [10]
  .text                   ro code  0x80115858      0xc50  xm_iisadc.o [1]
  .text                   ro code  0x801164a8      0xce0  xm_video_task.o [1]
  .text                   ro code  0x80117188       0x38  sprintf.o [4]
  .text                   ro code  0x801171c0      0x3f8  xm_h264_file.o [1]
  .text                   ro code  0x801175b8     0x12b0  sensor_task.o [1]
  .text                   ro code  0x80118868      0x204  xm_hybrid_stream.o [1]
  .text                   ro code  0x80118a70       0xd0  avpicture.o [5]
  .text                   ro code  0x80118b40       0x3c  xdtest.o [9]
  .text                   ro code  0x80118b7c       0x1e  nearbyint.o [9]
  .constdata              const    0x80118b9a       0x42  rom_table.o [13]
  .text                   ro code  0x80118bdc      0x658  lcd.o [1]
  .text                   ro code  0x80119234      0x208  xm_kbd_drv.o [1]
  .text                   ro code  0x8011943c      0x168  wdt.o [1]
  .text                   ro code  0x801195a4      0x258  xm_power.o [1]
  .text                   ro code  0x801197fc      0xf4c  hw_osd_layer_iar.o [1]
  .text                   ro code  0x8011a748      0x434  xm_adc.o [1]
  .text                   ro code  0x8011ab7c      0xfa0  ssi.o [1]
  .text                   ro code  0x8011bb1c      0x178  FS_Time.o [1]
  .text                   ro code  0x8011bc94      0x2ac  FS_Dir.o [1]
  .text                   ro code  0x8011bf40      0x6a4  FS_Misc.o [1]
  .text                   ro code  0x8011c5e4       0xa0  FS_Move.o [1]
  .text                   ro code  0x8011c684      0x420  FS_Volume.o [1]
  .text                   ro code  0x8011caa4       0xd4  FS_Attrib.o [1]
  .text                   ro code  0x8011cb78     0x27ac  xm_uvc_socket.o [1]
  .text                   ro code  0x8011f324       0x78  OS_Alloc.o [10]
  .text                   ro code  0x8011f39c     0x4df4  sdmmc.o [1]
  .text                   ro code  0x80124190      0x184  xstoul.o [4]
  .text                   ro code  0x80124314      0x37c  xlog.o [9]
  .text                   ro code  0x80124690       0x2c  DblCmpEq.o [9]
  .text                   ro code  0x801246bc      0x152  xstod.o [9]
  .text                   ro code  0x8012480e       0x12  trunc.o [9]
  .text                   ro code  0x80124820       0x84  ceil.o [9]
  .text                   ro code  0x801248a4       0x78  DblToU64.o [11]
  .text                   ro code  0x8012491c       0x10  U64ToDbl.o [11]
  .text                   ro code  0x8012492c      0x184  sqrt.o [9]
  .text                   ro code  0x80124ab0       0x84  floor.o [9]
  .rodata.str1.4          const    0x80124b34       0x74  mathematics.o [7]
  .text                   ro code  0x80124ba8      0x8a8  pow.o [9]
  .text                   ro code  0x80125450       0x40  exp.o [9]
  .text                   ro code  0x80125490      0x15c  xttotm.o [4]
  .text                   ro code  0x801255ec       0x28  xtls.o [10]
  .text                   ro code  0x80125614       0x2c  setlocale.o [4]
  .text                   ro code  0x80125640        0x6  getzone.o [4]
  .text                   ro code  0x80125646       0x40  xgettime.o [4]
  .text                   ro code  0x80125686       0x1e  strftime.o [4]
  .text                   ro code  0x801256a4       0x94  memchr.o [11]
  .text                   ro code  0x80125738       0x48  xdnorm.o [9]
  .text                   ro code  0x80125780      0x128  xdscale.o [9]
  .text                   ro code  0x801258a8       0x20  div.o [4]
  .text                   ro code  0x801258c8        0x8  strtoll.o [4]
  .text                   ro code  0x801258d0      0xb00  xscanffull.o [4]
  .text                   ro code  0x801263d0       0x68  xfrint.o [9]
  .text                   ro code  0x80126438      0x258  main.o [1]
  .text                   ro code  0x80126690       0x40  allcodecs.o [5]
  .text                   ro code  0x801266d0      0xb3c  pngread.o [8]
  .text                   ro code  0x8012720c      0x150  app_task.o [1]
  .text                   ro code  0x8012735c     0x1338  png.o [8]
  .text                   ro code  0x80128694      0x554  xm_win_gdi.o [1]
  .text                   ro code  0x80128be8      0x134  uart.o [1]
  .text                   ro code  0x80128d1c      0x1f4  cortex_a5_mmu.o [1]
  .text                   ro code  0x80128f10      0x578  os_change_task.o [1]
  .text                   ro code  0x80129488      0x68c  timer.o [1]
  .text                   ro code  0x80129b14      0x11c  OS_TICK_HandleEx.o [10]
  .text                   ro code  0x80129c30      0xa14  rtc.o [1]
  .text                   ro code  0x8012a644      0x28c  hardtimer_task.o [1]
  .text                   ro code  0x8012a8d0      0x8ac  dma.o [1]
  .text                   ro code  0x8012b17c      0x9fc  gpio.o [1]
  .text                   ro code  0x8012bb78     0x12a4  xm_uart.o [1]
  .text                   ro code  0x8012ce1c     0x1abc  xm_i2c.o [1]
  .text                   ro code  0x8012e8d8      0x2b8  irq.o [1]
  .text                   ro code  0x8012eb90       0x94  OS_Error.o [1]
  .text                   ro code  0x8012ec24       0x2c  vsprintf.o [4]
  .text                   ro code  0x8012ec50      0xdd8  app_menudata.o [1]
  .text                   ro code  0x8012fa28      0xc24  Gem_isp.o [1]
  .text                   ro code  0x8013064c       0xa8  OSCMB.o [10]
  .text                   ro code  0x801306f4      0x14c  OSPM1.o [10]
  .text                   ro code  0x80130840      0x284  OSRSEM.o [10]
  Veneer                  ro code  0x80130ac4        0x8  - Linker created -
  .text                   ro code  0x80130acc     0x4568  xmvideoitem.o [1]
  .text                   ro code  0x80135034       0x38  OSEVENGE.o [10]
  .text                   ro code  0x8013506c       0xec  OSEVENWS.o [10]
  .text                   ro code  0x80135158       0xe8  OSEVENW.o [10]
  .text                   ro code  0x80135240       0xf0  OSMAIL.o [10]
  .text                   ro code  0x80135330      0x120  OS_CreateTask.o [10]
  .text                   ro code  0x80135450     0x13e4  xm_system_update.o [1]
  .text                   ro code  0x80136834       0x9c  OSEVENS.o [10]
  .text                   ro code  0x801368d0       0xe8  OSGMT.o [10]
  .text                   ro code  0x801369b8        0x8  abs.o [4]
  .text                   ro code  0x801369c0     0x1714  xm_osd_framebuffer.o [1]
  .text                   ro code  0x801380d4       0x34  OS_STACKINFO_ARM.o [10]
  .text                   ro code  0x80138108       0x54  OS_GetCPUState.o [10]
  .text                   ro code  0x8013815c      0x180  rtos.o [10]
  .text                   ro code  0x801382dc      0x23c  OSCSEM.o [10]
  .text                   ro code  0x80138518       0x90  OS_SetCSemaValue.o [10]
  .text                   ro code  0x801385a8       0x56  xassert.o [4]
  .constdata              const    0x801385fe       0x42  rom_table.o [13]
  .text                   ro code  0x80138640       0xb0  queue.o [1]
  .text                   ro code  0x801386f0      0xf58  xm_isp_scalar.o [1]
  .text                   ro code  0x80139648      0x2c0  OSTIME.o [10]
  .text                   ro code  0x80139908     0x10b8  arkn141_scale.o [1]
  .text                   ro code  0x8013a9c0      0xff0  xm_icon_manage.o [1]
  .text                   ro code  0x8013b9b0      0x5fc  camera_task.o [1]
  .text                   ro code  0x8013bfac     0x13a8  jpeg_task.o [1]
  .text                   ro code  0x8013d354       0x20  OSTimeD.o [10]
  .text                   ro code  0x8013d374      0x618  xm_core_file.o [1]
  Veneer                  ro code  0x8013d98c        0x8  - Linker created -
  .text                   ro code  0x8013d994     0x22a8  xm_h264_cache_file.o [1]
  .text                   ro code  0x8013fc3c      0x578  Gem_isp_sys.o [1]
  .text                   ro code  0x801401b4       0x7c  OSEVENCL.o [10]
  .text                   ro code  0x80140230      0x128  OSTERM.o [10]
  .text                   ro code  0x80140358      0x14c  OSGM1.o [10]
  .text                   ro code  0x801404a4     0x1384  CdrRequest.o [1]
  .text                   ro code  0x80141828       0x80  xrint.o [9]
  .text                   ro code  0x801418a8       0x18  lcd.o [1]
  .text                   ro code  0x801418c0      0x308  tv_ntsc.o [1]
  .text                   ro code  0x80141bc8      0x148  FltMul.o [9]
  .text                   ro code  0x80141d10       0x34  FltToU32.o [9]
  .text                   ro code  0x80141d44     0x13a8  CpuClkCounter.o [1]
  .text                   ro code  0x801430ec       0x24  FltCmpEq.o [11]
  .text                   ro code  0x80143110       0x5c  OSTIMERX.o [10]
  .text                   ro code  0x8014316c      0x300  tv_pal.o [1]
  .text                   ro code  0x8014346c       0x40  lcdc_rgb.o [1]
  .text                   ro code  0x801434ac       0x28  OS_EVENT_Create.o [10]
  .text                   ro code  0x801434d4       0x6c  OS_EVENT_Reset.o [10]
  .text                   ro code  0x80143540       0xc4  OS_EVENT_Set.o [10]
  .text                   ro code  0x80143604       0x78  clock.o [1]
  .text                   ro code  0x8014367c      0x108  FS_OS_Interface.o [1]
  .text                   ro code  0x80143784      0x268  FAT_DirEntry.o [1]
  .text                   ro code  0x801439ec      0x3c8  FAT_Dir.o [1]
  .text                   ro code  0x80143db4       0xa0  FS_OS.o [1]
  .text                   ro code  0x80143e54      0x56c  FAT_Write.o [1]
  .text                   ro code  0x801443c0      0x6f4  FS_LogBlock.o [1]
  .text                   ro code  0x80144ab4      0x9b8  FAT_Open.o [1]
  .text                   ro code  0x8014546c      0x294  FAT_Move.o [1]
  .text                   ro code  0x80145700      0x150  FS_CopyFile.o [1]
  .text                   ro code  0x80145850      0x514  FS_Core.o [1]
  .text                   ro code  0x80145d64       0xc4  FAT_DiskInfo.o [1]
  .text                   ro code  0x80145e28     0x131c  FAT_Misc.o [1]
  .text                   ro code  0x80147144      0x564  message_task.o [1]
  .text                   ro code  0x801476a8      0x848  xm_file_manager_task.o [1]
  .text                   ro code  0x80147ef0      0x6f8  UvcVideo.o [1]
  .text                   ro code  0x801485e8      0x63c  onekeyphotograph_task.o [1]
  .text                   ro code  0x80148c24     0x1368  dlmalloc.o [4]
  .text                   ro code  0x80149f8c       0xa4  OS_EVENT_Wait.o [10]
  .text                   ro code  0x8014a030      0x134  xstopfx.o [4]
  .text                   ro code  0x8014a164      0x1b8  xstoflt.o [4]
  .rodata                 const    0x8014a31c       0x6c  log.o [7]
  .text                   ro code  0x8014a388      0x200  xdtento.o [9]
  .text                   ro code  0x8014a588      0x210  xstoxflt.o [4]
  .text                   ro code  0x8014a798       0x94  xdint.o [9]
  .text                   ro code  0x8014a82c       0x14  iarEdom.o [11]
  .text                   ro code  0x8014a840      0x2c8  xexp.o [9]
  .text                   ro code  0x8014ab08      0x140  xisdst.o [4]
  .text                   ro code  0x8014ac48      0x172  xlocale_c.o [4]
  .text                   ro code  0x8014adba       0xe8  xstrftim.o [4]
  .text                   ro code  0x8014aea2       0xc0  xstoll.o [4]
  .text                   ro code  0x8014af62        0xa  xsprout.o [4]
  .text                   ro code  0x8014af6c      0x1e0  xstoull.o [4]
  .text                   ro code  0x8014b14c      0x152  xstold.o [9]
  .text                   ro code  0x8014b29e       0x5e  xfdint.o [9]
  .text                   ro code  0x8014b2fc       0xa4  FltAdd.o [9]
  .text                   ro code  0x8014b3a0      0x188  FS_AssignCache.o [1]
  .text                   ro code  0x8014b528        0x4  xm_led.o [1]
  .text                   ro code  0x8014b52c      0x57c  arkn141_codec.o [1]
  .text                   ro code  0x8014baa8      0x67c  hongjing_uart_socket.o [1]
  .text                   ro code  0x8014c124      0x198  xm_autotest.o [1]
  .text                   ro code  0x8014c2bc       0x34  pngrio.o [8]
  .text                   ro code  0x8014c2f0      0xea4  pngrutil.o [8]
  Veneer                  ro code  0x8014d194        0x8  - Linker created -
  .text                   ro code  0x8014d19c      0x29c  pngerror.o [8]
  .text                   ro code  0x8014d438      0xc1c  pngrtran.o [8]
  .text                   ro code  0x8014e054      0x12c  pngmem.o [8]
  .text                   ro code  0x8014e180     0x1e44  inflate.o [14]
  .text                   ro code  0x8014ffc4      0x4d0  pngset.o [8]
  .text                   ro code  0x80150494        0x8  ABImemclr4.o [11]
  .text                   ro code  0x8015049c      0x12c  pngtrans.o [8]
  .text                   ro code  0x801505c8       0xdc  xm_win_main.o [1]
  .text                   ro code  0x801506a4      0x368  xm_win_mem.o [1]
  .text                   ro code  0x80150a0c      0x4c8  app_voice.o [1]
  .text                   ro code  0x80150ed4       0x74  app_init.o [1]
  .text                   ro code  0x80150f48       0x20  setjmp.o [11]
  .text                   ro code  0x80150f68      0x32c  xm_gdi_rom_image.o [1]
  .text                   ro code  0x80151294     0x25d8  xm_win_user.o [1]
  .text                   ro code  0x8015386c       0x60  xm_fb_drv.o [1]
  .text                   ro code  0x801538cc      0xe4c  xm_osd_layer_gif.o [1]
  .CP15_WriteTTB          ro code  0x80154718       0x28  cortex_a5_cp15_asm_iar.o [1]
  .CP15_WriteDomainAccessControl
                          ro code  0x80154740       0x28  cortex_a5_cp15_asm_iar.o [1]
  .text                   ro code  0x80154768       0xf0  cortex_a5_cp15.o [1]
  .CP15_ReadAuxiliaryControl
                          ro code  0x80154858        0xc  cortex_a5_cp15_asm_iar.o [1]
  .CP15_WriteAuxiliaryControl
                          ro code  0x80154864       0x28  cortex_a5_cp15_asm_iar.o [1]
  .CP15_invalidate_dcache_for_dma
                          ro code  0x8015488c       0x48  cortex_a5_cp15_asm_iar.o [1]
  .CP15_clean_dcache_for_dma
                          ro code  0x801548d4       0x34  cortex_a5_cp15_asm_iar.o [1]
  .CP15_flush_dcache_for_dma
                          ro code  0x80154908       0x34  cortex_a5_cp15_asm_iar.o [1]
  .text                   ro code  0x8015493c      0x2c0  calender.o [1]
  .text                   ro code  0x80154bfc       0xd4  OSCSEMT.o [10]
  .text                   ro code  0x80154cd0       0x6c  OSCSEMGV.o [10]
  .text                   ro code  0x80154d3c      0x104  OS_EVENT_WaitTimed.o [10]
  .text                   ro code  0x80154e40       0xa0  OSDELRS.o [10]
  .text                   ro code  0x80154ee0       0xac  OS_EVENT_Delete.o [10]
  .text                   ro code  0x80154f8c      0x23c  xm_time_drv.o [1]
  .text                   ro code  0x801551c8      0x228  Gem_isp_config.o [1]
  .text                   ro code  0x801553f0      0x268  arkn141_cmos_sensor_ar0238_io.o [1]
  .text                   ro code  0x80155658      0x7d0  Gem_isp_ae.o [1]
  .text                   ro code  0x80155e28      0x614  arkn141_isp_exposure_cmos.o [1]
  .text                   ro code  0x8015643c       0x84  OSRSEMRQ.o [10]
  .text                   ro code  0x801564c0      0x85c  arkn141_isp_exposure.o [1]
  .text                   ro code  0x80156d1c       0x8c  OS_Wait.o [10]
  .text                   ro code  0x80156da8       0x60  OS_DeactivateP.o [10]
  .text                   ro code  0x80156e08      0x788  common_rbtr.o [1]
  .text                   ro code  0x80157590      0x344  FAT_GetFileClusterSectorInfo.o [1]
  .text                   ro code  0x801578d4       0x20  strcat.o [4]
  .text                   ro code  0x801578f4       0x78  common_string.o [1]
  .text                   ro code  0x8015796c      0xbe0  xm_recycle.o [1]
  .text                   ro code  0x8015854c      0x244  crc16.o [1]
  .text                   ro code  0x80158790       0x34  FS_GetFileSize.o [1]
  .text                   ro code  0x801587c4       0xd0  FS_Read.o [1]
  .text                   ro code  0x80158894      0x4ec  xm_at.o [1]
  .text                   ro code  0x80158d80       0x6c  OS_DeactivateTP.o [10]
  .text                   ro code  0x80158dec       0xc8  OSMX.o [10]
  .text                   ro code  0x80158eb4       0xcc  xm_semaphore.o [1]
  .text                   ro code  0x80158f80      0x784  xm_osd_framebuffer_config.o [1]
  .text                   ro code  0x80159704       0x98  xreportassert.o [4]
  .text                   ro code  0x8015979c      0x228  app_icon_library.o [1]
  .text                   ro code  0x801599c4      0xc00  xm_gdi_image.o [1]
  .text                   ro code  0x8015a5c4       0x10  U32ToFlt.o [9]
  .text                   ro code  0x8015a5d4      0x37c  pc_main.o [1]
  .text                   ro code  0x8015a950      0x540  interrupt.o [1]
  .text                   ro code  0x8015ae90       0xd0  xm_core_linear_memory.o [1]
  .text                   ro code  0x8015af60      0x830  arkn141_jpeg_encoder.o [1]
  .text                   ro code  0x8015b790      0x794  arkn141_jpeg_decoder.o [1]
  .text                   ro code  0x8015bf24       0x30  FS_FRead.o [1]
  .text                   ro code  0x8015bf54       0x30  FS_FWrite.o [1]
  .text                   ro code  0x8015bf84       0x64  FS_Rename.o [1]
  .text                   ro code  0x8015bfe8      0x414  xm_h264_cache_command_queue.o [1]
  .text                   ro code  0x8015c400     0x23c8  arkn141_cmos_sensor_ar0238.o [1]
  .text                   ro code  0x8015e7c8       0x40  OS_TLS.o [10]
  .text                   ro code  0x8015e808       0xa4  ConfigDrive.o [1]
  .text                   ro code  0x8015e8ac        0x4  FAT_VolumeLabel.o [1]
  .text                   ro code  0x8015e8b0       0x48  FS_SetEndOfFile.o [1]
  .text                   ro code  0x8015e8f8      0x104  FS_Write.o [1]
  .text                   ro code  0x8015e9fc      0x154  FS_Partition.o [1]
  .text                   ro code  0x8015eb50       0x30  FS_X_Panic.o [1]
  .text                   ro code  0x8015eb80      0xcc0  FAT_FreeCluster.o [1]
  .text                   ro code  0x8015f840      0x114  FS_Unmount.o [1]
  .text                   ro code  0x8015f954       0x78  FS_Format.o [1]
  .text                   ro code  0x8015f9cc       0x28  xgetmemchunk.o [4]
  .text                   ro code  0x8015f9f4       0x94  xsyslock.o [4]
  .text                   ro code  0x8015fa88      0x128  xgetdst.o [4]
  .text                   ro code  0x8015fbb0      0x85a  xgentime.o [4]
  .constdata              const    0x8016040a        0x6  tab_ld8k.o [13]
  .text                   ro code  0x80160410       0x14  I64Mul.o [11]
  .text                   ro code  0x80160424      0x124  FltSub.o [9]
  .text                   ro code  0x80160548      0x208  hx280enc.o [1]
  .text                   ro code  0x80160750      0x3cc  hx170dec.o [1]
  .text                   ro code  0x80160b1c      0x194  xm_touch_drv .o [1]
  .text                   ro code  0x80160cb0        0x8  ABImemclr.o [11]
  .text                   ro code  0x80160cb8      0x2f4  adler32.o [14]
  .text                   ro code  0x80160fac      0x638  inftrees.o [14]
  .text                   ro code  0x801615e4      0x4c4  inffast.o [14]
  .text                   ro code  0x80161aa8       0x44  ABImemset48.o [11]
  .text                   ro code  0x80161aec      0x38c  xm_uart_drv.o [1]
  .text                   ro code  0x80161e78      0x1c0  g729_dec.o [13]
  .text                   ro code  0x80162038       0x34  S32ToFlt.o [9]
  .text                   ro code  0x8016206c        0x4  xm_win_widget.o [1]
  .text                   ro code  0x80162070     0x18e0  xm_osd_layer_animate.o [1]
  .text                   ro code  0x80163950      0xf78  desktop.o [1]
  .text                   ro code  0x801648c8       0xec  xm_fb_argb888_drv.o [1]
  .text                   ro code  0x801649b4      0x138  xm_fb_argb454_drv.o [1]
  .text                   ro code  0x80164aec      0x12c  xm_fb_rgb565_drv.o [1]
  .text                   ro code  0x80164c18      0x23c  xm_file.o [1]
  .CP15_ReadControl       ro code  0x80164e54        0xc  cortex_a5_cp15_asm_iar.o [1]
  .CP15_WriteControl      ro code  0x80164e60       0x28  cortex_a5_cp15_asm_iar.o [1]
  .text                   ro code  0x80164e88       0x20  S64Shr.o [11]
  .text                   ro code  0x80164ea8      0x468  FAT_Read.o [1]
  .text                   ro code  0x80165310      0x1b4  xm_tester.o [1]
  .text                   ro code  0x801654c4      0xe34  xm_tester_script.o [1]
  .text                   ro code  0x801662f8       0x84  OSDELCS.o [10]
  .text                   ro code  0x8016637c       0x26  putchar.o [4]
  .constdata              const    0x801663a2        0x6  tab_ld8k.o [13]
  .text                   ro code  0x801663a8      0x46c  globalfunc.o [1]
  .text                   ro code  0x80166814       0x28  sensorlib.o [1]
  .text                   ro code  0x8016683c      0x638  SensorCommon.o [1]
  .text                   ro code  0x80166e74      0xfb8  UsbRequest.o [1]
  .text                   ro code  0x80167e2c      0xb1c  JpegEncApi.o [1]
  .text                   ro code  0x80168948     0x3510  jpegdecapi.o [1]
  .text                   ro code  0x8016be58     0x2274  regdrv.o [1]
  .text                   ro code  0x8016e0cc      0xc1c  dwl_iar.o [1]
  .text                   ro code  0x8016ece8      0x540  Jpegdectestbench.o [1]
  .text                   ro code  0x8016f228       0x80  FAT_Rename.o [1]
  .text                   ro code  0x8016f2a8     0x1a30  ar0238.o [1]
  .text                   ro code  0x80170cd8      0x184  Gem_isp_awb.o [1]
  .text                   ro code  0x80170e5c      0x2b4  Gem_isp_colors.o [1]
  .text                   ro code  0x80171110      0x168  Gem_isp_denoise.o [1]
  .text                   ro code  0x80171278      0x110  Gem_isp_eris.o [1]
  .text                   ro code  0x80171388      0x1d8  Gem_isp_fesp.o [1]
  .text                   ro code  0x80171560       0x9c  Gem_isp_enhance.o [1]
  .text                   ro code  0x801715fc       0x38  xthreads.o [4]
  .text                   ro code  0x80171634       0x20  FAT_VolumeLabel.o [1]
  .text                   ro code  0x80171654      0x110  FAT_SetEndOfFile.o [1]
  .text                   ro code  0x80171764      0x8a8  FAT_Format.o [1]
  .text                   ro code  0x8017200c        0x8  xmtx.o [4]
  .text                   ro code  0x80172014      0x604  dec_ld8k.o [13]
  .text                   ro code  0x80172618     0x128c  pst.o [12]
  .text                   ro code  0x801738a4      0x824  mul64_op.o [12]
  .text                   ro code  0x801740c8      0x380  dec_sid.o [13]
  .text                   ro code  0x80174448      0x284  bits.o [13]
  .text                   ro code  0x801746cc       0x74  p_parity.o [13]
  .text                   ro code  0x80174740       0x68  util.o [13]
  .text                   ro code  0x801747a8      0x110  SystemAPI.o [1]
  .text                   ro code  0x801748b8      0x1b0  app_format.o [1]
  .text                   ro code  0x80174a68     0x15a0  alert_view.o [1]
  .text                   ro code  0x80176008       0x10  app_onekey_photograph.o [1]
  .text                   ro code  0x80176018      0xef4  recycle_video_alert_view.o [1]
  .text                   ro code  0x80176f0c      0x7f0  app_soundvolumeview.o [1]
  .text                   ro code  0x801776fc      0x344  app_systemupdate.o [1]
  .text                   ro code  0x80177a40       0x24  sscanf.o [4]
  .text                   ro code  0x80177a64        0x4  xm_tester_script.o [1]
  .text                   ro code  0x80177a68       0x40  gpio_function.o [1]
  .text                   ro code  0x80177aa8      0xda8  descript_def.o [1]
  .text                   ro code  0x80178850      0x2c8  UvcRequest.o [1]
  .text                   ro code  0x80178b18      0x75c  ewl_x280_common.o [1]
  .text                   ro code  0x80179274      0x800  EncJpegInit.o [1]
  .text                   ro code  0x80179a74      0x57c  encpreprocess.o [1]
  .text                   ro code  0x80179ff0      0x390  encasiccontroller_v2.o [1]
  .text                   ro code  0x8017a380      0x138  EncJpegPutBits.o [1]
  .text                   ro code  0x8017a4b8      0x2b4  EncJpegCodeFrame.o [1]
  .text                   ro code  0x8017a76c      0x248  dwl_x170_iar_no_drv.o [1]
  .text                   ro code  0x8017a9b4     0x4ae0  jpegdecinternal.o [1]
  .text                   ro code  0x8017f494      0x258  jpegdecutils.o [1]
  .text                   ro code  0x8017f6ec      0xc98  jpegdechdrs.o [1]
  .text                   ro code  0x80180384      0x604  jpegdecscan.o [1]
  .text                   ro code  0x80180988       0x1c  uart.o [1]
  .text                   ro code  0x801809a4       0x98  strncpy.o [11]
  .text                   ro code  0x80180a3c      0x1e4  lspdec.o [13]
  .text                   ro code  0x80180c20       0xa8  filter.o [13]
  .text                   ro code  0x80180cc8      0x50c  lpcfunc.o [13]
  .text                   ro code  0x801811d4      0x690  basic_op.o [13]
  .text                   ro code  0x80181864      0x144  dec_lag3.o [13]
  .text                   ro code  0x801819a8       0x70  pred_lt3.o [13]
  .text                   ro code  0x80181a18       0xbc  de_acelp.o [13]
  .text                   ro code  0x80181ad4      0x128  dec_gain.o [13]
  .text                   ro code  0x80181bfc      0x164  oper_32b.o [13]
  .text                   ro code  0x80181d60      0x3b0  lspgetq.o [13]
  .text                   ro code  0x80182110      0x254  qsidgain.o [13]
  .text                   ro code  0x80182364      0x6bc  calcexc.o [13]
  .text                   ro code  0x80182a20     0x4d90  app_menuid.o [1]
  .text                   ro code  0x801877b0      0x620  app_time.o [1]
  .text                   ro code  0x80187dd0       0x94  app_romimage.o [1]
  .text                   ro code  0x80187e64      0xe3c  app_okcancelview.o [1]
  .text                   ro code  0x80188ca0      0x44c  app_messageview.o [1]
  .text                   ro code  0x801890ec       0x24  xm_tester_script.o [1]
  .text                   ro code  0x80189110     0x1600  VideoFunction.o [1]
  .text                   ro code  0x8018a710      0x36c  AudioFunction.o [1]
  .text                   ro code  0x8018aa7c     0x12b8  EncJpeg.o [1]
  .text                   ro code  0x8018bd34     0x4b44  encasiccontroller.o [1]
  .text                   ro code  0x80190878      0x11c  ewl_x280_polling.o [1]
  .text                   ro code  0x80190994      0x1b8  gainpred.o [13]
  .text                   ro code  0x80190b4c      0x1a8  dspfunc.o [13]
  .text                   ro code  0x80190cf4      0x214  taming.o [13]
  .text                   ro code  0x80190f08      0x80c  app_button.o [1]
  .text                   ro code  0x80191714      0x2bc  app_titlebar.o [1]
  .rodata                 const    0x801919d0     0x4058  options.o [5]
  .text                   ro code  0x80195a28     0x3b30  H264Cabac.o [1]
  .text                   ro code  0x80199560     0x33c0  avidec.o [6]
  .text                   ro code  0x8019c920     0x10e0  riff.o [6]
  .rodata.str1.4          const    0x8019da00     0x3010  codec_desc.o [5]
  .rodata.str1.4          const    0x801a0a10     0x2dbc  options.o [5]
  .text                   ro code  0x801a37cc     0x29cc  h264hwd_dpb.o [1]
  .text                   ro code  0x801a6198     0x279c  h264decapi.o [1]
  .text                   ro code  0x801a8934     0x1000  h264hwd_decoder.o [1]
  .text                   ro code  0x801a9934     0x2550  h264hwd_asic.o [1]
  .text                   ro code  0x801abe84     0x10a8  h264hwd_storage.o [1]
  .text                   ro code  0x801acf2c      0x3b0  h264_pp_pipeline.o [1]
  .text                   ro code  0x801ad2dc      0x408  h264hwd_pic_order_cnt.o [1]
  .text                   ro code  0x801ad6e4      0x314  h264hwd_byte_stream.o [1]
  .text                   ro code  0x801ad9f8      0x1ec  h264hwd_util.o [1]
  .text                   ro code  0x801adbe4      0x280  h264hwd_neighbour.o [1]
  .text                   ro code  0x801ade64       0xd8  h264hwd_nal_unit.o [1]
  .text                   ro code  0x801adf3c      0x1c4  h264hwd_conceal.o [1]
  .text                   ro code  0x801ae100     0x12e0  h264hwd_seq_param_set.o [1]
  .text                   ro code  0x801af3e0      0x7b0  h264hwd_pic_param_set.o [1]
  .text                   ro code  0x801afb90     0x19b0  h264hwd_slice_header.o [1]
  .text                   ro code  0x801b1540      0x37c  h264hwd_slice_data.o [1]
  .text                   ro code  0x801b18bc     0x1544  refbuffer.o [1]
  .text                   ro code  0x801b2e00     0x1140  h264hwd_macroblock_layer.o [1]
  .text                   ro code  0x801b3f40      0x5e4  h264hwd_slice_group_map.o [1]
  .text                   ro code  0x801b4524      0x4d4  h264hwd_stream.o [1]
  .text                   ro code  0x801b49f8      0x3b4  h264hwd_vlc.o [1]
  .text                   ro code  0x801b4dac      0xa1c  h264hwd_vui.o [1]
  .text                   ro code  0x801b57c8     0x12fe  h264hwd_cavlc.o [1]
  .constdata              const    0x801b6ac6        0x6  rom_table.o [13]
  .text                   ro code  0x801b6acc      0x8a4  h264hwd_intra_prediction.o [1]
  .text                   ro code  0x801b7370      0x33c  h264hwd_inter_prediction.o [1]
  .text                   ro code  0x801b76ac     0x24f4  arkn141_h264_encoder.o [1]
  .text                   ro code  0x801b9ba0     0x1c14  H264EncApi.o [1]
  .text                   ro code  0x801bb7b4      0x3d0  EncGetOption.o [1]
  .text                   ro code  0x801bbb84        0xc  atoi.o [4]
  .text                   ro code  0x801bbb90       0x50  H264TestBench.o [1]
  .text                   ro code  0x801bbbe0      0x7a4  H264Init.o [1]
  .text                   ro code  0x801bc384      0xb44  H264SequenceParameterSet.o [1]
  .text                   ro code  0x801bcec8     0x1ea8  H264RateControl.o [1]
  .text                   ro code  0x801bed70      0xa38  vidstabalg.o [1]
  .text                   ro code  0x801bf7a8      0x300  H264PutBits.o [1]
  .text                   ro code  0x801bfaa8      0x5b4  H264Sei.o [1]
  .text                   ro code  0x801c005c      0x1c4  H264PictureParameterSet.o [1]
  .text                   ro code  0x801c0220      0x54c  H264Mad.o [1]
  .text                   ro code  0x801c076c      0x1a8  H264NalUnit.o [1]
  .text                   ro code  0x801c0914      0xc90  H264CodeFrame.o [1]
  .text                   ro code  0x801c15a4       0x9c  vidstabcommon.o [1]
  .text                   ro code  0x801c1640       0x74  H264Slice.o [1]
  .rodata                 const    0x801c16b4     0x1c84  codec_desc.o [5]
  .rodata.str1.4          const    0x801c3338     0x174c  utils.o [6]
  .rodata.str1.4          const    0x801c4a84     0x1694  utils.o [5]
  .rodata                 const    0x801c6118     0x1410  pixdesc.o [7]
  .text                   ro code  0x801c7530     0x13b0  avienc.o [6]
  .text                   ro code  0x801c88e0      0xf50  pcm.o [5]
  .rodata                 const    0x801c9830      0xf44  mathtables.o [5]
  .text                   ro code  0x801ca774      0xe60  h264hwd_cabac.o [1]
  .text                   ro code  0x801cb5d4      0xd34  app_settingview.o [1]
  .text                   ro code  0x801cc308      0x8dc  app_switch_button.o [1]
  .text                   ro code  0x801ccbe4      0x6ec  app_menuoptionview.o [1]
  .text                   ro code  0x801cd2d0      0x814  app_systemsettingview.o [1]
  .text                   ro code  0x801cdae4      0x960  xm_canvas.o [1]
  .text                   ro code  0x801ce444      0xce4  app_processview.o [1]
  .text                   ro code  0x801cf128      0x128  OS_CreateTaskEx.o [10]
  .text                   ro code  0x801cf250      0xaf8  gif.o [1]
  .rodata                 const    0x801cfd48      0xc68  riff.o [6]
  .text                   ro code  0x801d09b0      0xc14  app_albumview.o [1]
  .text                   ro code  0x801d15c4      0x384  app_album.o [1]
  .text                   ro code  0x801d1948      0xb34  app_videoview.o [1]
  .text                   ro code  0x801d247c      0xaac  app_videolistview.o [1]
  .text                   ro code  0x801d2f28       0x24  system_check.o [1]
  .rodata                 const    0x801d2f4c       0x4c  h264dec.o [6]
  .text                   ro code  0x801d2f98      0xa58  xquad.o [9]
  .text                   ro code  0x801d39f0      0x5a8  xprec.o [9]
  .text                   ro code  0x801d3f98      0x1fc  fmod.o [9]
  .text                   ro code  0x801d4194       0x68  xdunscal.o [9]
  .text                   ro code  0x801d41fc      0xa2c  app_videosettingview.o [1]
  .constdata              const    0x801d4c28      0xa00  rom_table.o [13]
  .text                   ro code  0x801d5628      0x980  app_recycleview.o [1]
  .text                   ro code  0x801d5fa8      0x958  app_datetimesetting.o [1]
  .rodata.str1.4          const    0x801d6900      0x8d4  utils.o [7]
  .text                   ro code  0x801d71d4      0x8ac  app_albumlistview.o [1]
  .rodata.str1.4          const    0x801d7a80      0x870  parseutils.o [7]
  .rodata.str1.4          const    0x801d82f0      0x820  options.o [6]
  .rodata                 const    0x801d8b10      0x810  options.o [6]
  .rodata.str1.4          const    0x801d9320      0x7fc  pixdesc.o [7]
  _DVR_SECTION_                    0x801d9b20      0x7be  <Block>
    _DVR_SECTION_         const    0x801d9b20      0x7be  dvr.jpg [2]
  .constdata              const    0x801da2de        0x6  rom_table.o [13]
  .rodata                 const    0x801da2e4      0x6c4  parseutils.o [7]
  .rodata.str1.4          const    0x801da9a8      0x66c  id3v2.o [6]
  .rodata.str1.4          const    0x801db014      0x658  id3v1.o [6]
  .rodata.str1.4          const    0x801db66c      0x614  opt.o [7]
  .rodata.str1.4          const    0x801dbc80      0x580  avidec.o [6]
  .rodata.str1.4          const    0x801dc200      0x54c  tachograph.o [6]
  .text                   ro code  0x801dc74c      0x528  FS_CacheRW.o [1]
  .rodata                 const    0x801dcc74      0x4d0  raw.o [5]
  .text                   ro code  0x801dd144      0x450  SD_MMC_Drive.o [1]
  .text                   ro code  0x801dd594      0x3a0  app_systemversionview.o [1]
  .rodata                 const    0x801dd934      0x35c  id3v2.o [6]
  .text                   ro code  0x801ddc90      0x310  h264_arkn141.o [5]
  .rodata.str1.4          const    0x801ddfa0      0x304  error.o [7]
  .rodata.str1.4          const    0x801de2a4      0x2e8  h264_arkn141.o [5]
  .rodata.str1.4          const    0x801de58c      0x2e4  channel_layout.o [7]
  .rodata                 const    0x801de870      0x2d0  channel_layout.o [7]
  .rodata.str1.4          const    0x801deb40      0x2bc  mux.o [6]
  .text                   ro code  0x801dedfc      0x2b0  cortex_a5_board_cstartup_iar.o [1]
  .text.unlikely          ro code  0x801df0ac      0x2b0  h264_arkn141.o [5]
  .text                   ro code  0x801df35c       0xd8  arkn141_h264_decoder.o [1]
  .text                   ro code  0x801df434      0x298  tanh.o [9]
  .rodata.str1.4          const    0x801df6cc      0x290  x264_arkn141.o [5]
  .rodata                 const    0x801df95c      0x28c  utils.o [6]
  .constdata              const    0x801dfbe8      0x280  rom_table.o [13]
  .rodata                 const    0x801dfe68      0x250  id3v1.o [6]
  .rodata.str1.4          const    0x801e00b8      0x24c  riff.o [6]
  .text.unlikely          ro code  0x801e0304      0x22c  pcm.o [5]
  .text.unlikely          ro code  0x801e0530      0x224  x264_arkn141.o [5]
  .text                   ro code  0x801e0760      0x220  x264_arkn141.o [5]
  .rodata.str1.4          const    0x801e0980      0x21c  log.o [7]
  .text                   ro code  0x801e0b9c      0x210  xsin.o [9]
  .rodata                 const    0x801e0dac       0x2c  imgutils.o [7]
  .text                   ro code  0x801e0dd8      0x208  xatan.o [9]
  .rodata.str1.4          const    0x801e0fe0      0x1f4  avienc.o [6]
  .text                   ro code  0x801e11d4      0x1f4  xsinh.o [9]
  .rodata.str1.4          const    0x801e13c8      0x1ec  eval.o [7]
  .text                   ro code  0x801e15b4       0x24  xsscin.o [4]
  .rodata                 const    0x801e15d8      0x1e8  x264_arkn141.o [5]
  .text                   ro code  0x801e17c0      0x1cc  tan.o [9]
  .text                   ro code  0x801e1990      0x1c0  file.o [6]
  .text                   ro code  0x801e1b50      0x150  h264dec.o [6]
  .rodata.str1.4          const    0x801e1ca0      0x14c  avio.o [6]
  .rodata                 const    0x801e1dec       0x1c  bprint.o [7]
  .rodata                 const    0x801e1e08      0x138  avidec.o [6]
  .rodata                 const    0x801e1f40      0x130  h264_arkn141.o [5]
  .text                   ro code  0x801e2070      0x118  exception_dump.o [1]
  .text                   ro code  0x801e2190      0x110  rawdec.o [6]
  .rodata.str1.4          const    0x801e22a0      0x108  pcm.o [5]
  .rodata.str1.4          const    0x801e23a8      0x108  rawdec.o [5]
  .rodata                 const    0x801e24b0      0x100  mathematics.o [7]
  .rodata                 const    0x801e25b0       0xe4  error.o [7]
  .constdata              const    0x801e2694       0xe0  rom_table.o [13]
  .text                   ro code  0x801e2774       0xe0  xcosh.o [9]
  .text                   ro code  0x801e2854       0xdc  asin.o [9]
  .text                   ro code  0x801e2930       0xd8  acos.o [9]
  .rodata                 const    0x801e2a08       0xc8  samplefmt.o [7]
  .rodata.str1.4          const    0x801e2ad0       0xc4  imgutils.o [7]
  .text                   ro code  0x801e2b94       0xb6  packbits_init3.o [11]
  .rodata.str1.4          const    0x801e2c4c       0xac  avpacket.o [5]
  .constdata              const    0x801e2cf8       0xa0  tab_ld8k.o [13]
  .constdata              const    0x801e2d98       0x99  rom_table.o [13]
  .text                   ro code  0x801e2e32       0x1c  xsnprout.o [4]
  .rodata                 const    0x801e2e50       0x98  eval.o [7]
  .text                   ro code  0x801e2ee8       0x98  atan.o [9]
  .rodata                 const    0x801e2f80       0x90  file.o [6]
  .constdata              const    0x801e3010       0x82  rom_table.o [13]
  .constdata              const    0x801e3092       0x80  rom_table.o [13]
  .constdata              const    0x801e3112       0x80  rom_table.o [13]
  .constdata              const    0x801e3192       0x80  rom_table.o [13]
  .constdata              const    0x801e3212       0x80  rom_table.o [13]
  .rodata.str1.4          const    0x801e3294       0x1c  samplefmt.o [7]
  .rodata                 const    0x801e32b0       0x70  aviobuf.o [6]
  .rodata                 const    0x801e3320       0x68  utils.o [5]
  .rodata.str1.4          const    0x801e3388       0x68  mem.o [7]
  .rodata                 const    0x801e33f0       0x60  avio.o [6]
  .rodata                 const    0x801e3450       0x60  rawdec.o [6]
  .text                   ro code  0x801e34b0       0x5c  zutil.o [14]
  .rodata.str1.4          const    0x801e350c       0x58  aviobuf.o [6]
  .text                   ro code  0x801e3564       0x4c  data_init3.o [11]
  .rodata.str1.4          const    0x801e35b0       0x48  buffer.o [7]
  .constdata              const    0x801e35f8       0x40  tab_ld8k.o [13]
  .constdata              const    0x801e3638       0x40  rom_table.o [13]
  .constdata              const    0x801e3678       0x40  rom_table.o [13]
  .constdata              const    0x801e36b8       0x40  rom_table.o [13]
  .rodata.str1.4          const    0x801e36f8       0x40  file.o [6]
  .constdata              const    0x801e3738       0x38  rom_table.o [13]
  .rodata                 const    0x801e3770       0x38  opt.o [7]
  .rodata.str1.4          const    0x801e37a8       0x38  h264dec.o [6]
  .text                   ro code  0x801e37e0       0x34  cmain_call_ctors.o [11]
  .text                   ro code  0x801e3814       0x18  cppinit.o [4]
  .constdata              const    0x801e382c       0x28  tab_ld8k.o [13]
  .constdata              const    0x801e3854       0x28  tab_ld8k.o [13]
  .constdata              const    0x801e387c       0x28  rom_table.o [13]
  .rodata                 const    0x801e38a4       0x28  mux.o [6]
  .rodata                 const    0x801e38cc       0x28  crc.o [7]
  .text                   ro code  0x801e38f4       0x28  zero_init3.o [11]
  .text                   ro code  0x801e391c       0x24  cmain.o [11]
  .text                   ro code  0x801e3940        0x4  low_level_init.o [4]
  .text                   ro code  0x801e3944        0x8  exit.o [4]
  .text                   ro code  0x801e394c       0x14  cexit.o [11]
  .iar.init_table         const    0x801e3960       0x54  - Linker created -
  .constdata              const    0x801e39b4       0x20  tab_ld8k.o [13]
  .constdata              const    0x801e39d4       0x20  tab_ld8k.o [13]
  .text                   ro code  0x801e3a00       0x20  rawenc.o [6]
  .rodata.str1.4          const    0x801e3a20       0x18  rawenc.o [6]
  .text                   ro code  0x801e3a38       0x16  xprout.o [4]
  .rodata.str1.4          const    0x801e3a50       0x14  bprint.o [7]
  .rodata.str1.4          const    0x801e3a64       0x14  rawdec.o [6]
  .constdata              const    0x801e3a78       0x10  tab_ld8k.o [13]
  .text                   ro code  0x801e3a88       0x10  sinh.o [9]
  .text                   ro code  0x801e3a98       0x10  cosh.o [9]
  .text                   ro code  0x801e3aa8        0xa  sin.o [9]
  .text                   ro code  0x801e3ab2        0xa  cos.o [9]
  .rodata                 const    0x801e3abc        0x8  rational.o [7]
  .rodata                 const    0x801e3ac4        0x8  frame.o [7]
  .rodata.str1.4          const    0x801e3acc        0x8  avstring.o [7]
  .text                   ro code  0x801e3ad4        0x8  fabs.o [9]
  .rodata.str1.4          const    0x801e3adc        0x4  dict.o [7]
  .rodata.str1.4          const    0x801e3ae0        0x4  metadata.o [6]
  .text                   ro code  0x801e3ae4        0x4  vectortrap.o [11]
  SHT$$PREINIT_ARRAY               0x801e3ae8        0x4  <Block>
    .prepreinit_array     const    0x801e3ae8        0x4  xlocale_c.o [4]
  SHT$$INIT_ARRAY                  0x801e3aec        0x0  <Block>
  .text                   ro code  0x801e3aec        0x0  cstart_clearlocks.o [11]
  Initializer bytes       ro data  0x801e3aec        0x8  <for __DLIB_PERTHREAD-1>
  Initializer bytes       ro data  0x801e3af4     0x10b7  <for P4 s0>
                                 - 0x801e4bab   0x1e4b2b

"P4", part 1 of 4:                                  0xd8
  __DLIB_PERTHREAD                 0x80300000       0xd8  <Block>
    __DLIB_PERTHREAD-1             0x80300000       0x8c  <Init block>
      __DLIB_PERTHREAD    inited   0x80300000       0x8c  rand.o [4]
    __DLIB_PERTHREAD      zero     0x8030008c        0x4  xthreads.o [4]
    __DLIB_PERTHREAD      zero     0x80300090        0x8  localtim.o [4]
    __DLIB_PERTHREAD      zero     0x80300098        0x4  errno.o [4]
    __DLIB_PERTHREAD      zero     0x8030009c        0x8  xisdst.o [4]
    __DLIB_PERTHREAD      zero     0x803000a4       0x2c  xttotm.o [4]
    __DLIB_PERTHREAD      zero     0x803000d0        0x8  setlocale.o [4]
                                 - 0x803000d8       0xd8

"P4", part 2 of 4:                             0x3cb5f28
  HEAP                             0x803000d8  0x1100000  <Block>
    HEAP                  uninit   0x803000d8  0x1100000  <Block tail>
  .noinit                 uninit   0x81400400  0x1001080  xm_h264_cache_file.o [1]
  .noinit                 uninit   0x82401480   0x4bf000  xm_osd_framebuffer_config.o [1]
  .noinit                 uninit   0x828c1000   0x371680  xm_video_task.o [1]
  .noinit                 uninit   0x82c32800   0x2f7600  Gem_isp.o [1]
  .noinit                 uninit   0x82f2a000   0x2f7600  Gem_isp.o [1]
  .noinit                 uninit   0x83221800   0x2f7600  Gem_isp.o [1]
  .noinit                 uninit   0x83519000   0x2f7600  Gem_isp.o [1]
  .noinit                 uninit   0x83810600   0x25f800  xm_osd_framebuffer_config.o [1]
  .noinit                 uninit   0x83a70000   0x200000  main.o [1]
  .noinit                 uninit   0x83c70000   0x200000  xm_win_mem.o [1]
  .noinit                 uninit   0x83e70000    0x80000  CdrRequest.o [1]
  .noinit                 uninit   0x83ef0000    0x40000  CdrRequest.o [1]
  .noinit                 uninit   0x83f30000    0x22000  xmvideoitem.o [1]
  .noinit                 uninit   0x83f52000    0x10000  FAT_Read.o [1]
  .noinit                 uninit   0x83f62000     0xc800  xm_iisadc.o [1]
  .noinit                 uninit   0x83f6e800     0x8000  avi_codec_task.o [1]
  .noinit                 uninit   0x83f76800     0x8000  xm_tester_script.o [1]
  .noinit                 uninit   0x83f7e800     0x5844  gif.o [1]
  .noinit                 uninit   0x83f84044     0x5828  xm_osd_layer_gif.o [1]
  .noinit                 uninit   0x83f8986c     0x4000  app_task.o [1]
  .noinit                 uninit   0x83f8d880     0x4000  avi_codec_task.o [1]
  .noinit                 uninit   0x83f94000     0x4000  cortex_a5_mmu.o [1]
  CSTACK                           0x83f98000     0x4000  <Block>
    CSTACK                uninit   0x83f98000     0x4000  <Block tail>
  SVC_STACK                        0x83f9c000     0x4000  <Block>
    SVC_STACK             uninit   0x83f9c000     0x4000  <Block tail>
  .noinit                 uninit   0x83fa0000     0x3000  app_album.o [1]
  .noinit                 uninit   0x83fa3000     0x2000  camera_task.o [1]
  .noinit                 uninit   0x83fa5000     0x2000  message_task.o [1]
  .noinit                 uninit   0x83fa7000     0x2000  onekeyphotograph_task.o [1]
  .noinit                 uninit   0x83fa9000     0x2000  xm_h264_cache_file.o [1]
  .noinit                 uninit   0x83fab000     0x2000  xm_system_update.o [1]
  .noinit                 uninit   0x83fad000     0x2000  xm_video_task.o [1]
  .noinit                 uninit   0x83faf000     0x1000  hardtimer_task.o [1]
  .noinit                 uninit   0x83fb0000     0x1000  jpeg_task.o [1]
  .noinit                 uninit   0x83fb1000     0x1000  sensor_task.o [1]
  .noinit                 uninit   0x83fb2000     0x1000  xm_file_manager_task.o [1]
  IRQ_STACK                        0x83fb3000     0x1000  <Block>
    IRQ_STACK             uninit   0x83fb3000     0x1000  <Block tail>
  FIQ_STACK                        0x83fb4000     0x1000  <Block>
    FIQ_STACK             uninit   0x83fb4000     0x1000  <Block tail>
  .noinit                 uninit   0x83fb5000      0x800  xm_autotest.o [1]
  UND_STACK                        0x83fb5800      0x400  <Block>
    UND_STACK             uninit   0x83fb5800      0x400  <Block tail>
  ABT_STACK                        0x83fb5c00      0x400  <Block>
    ABT_STACK             uninit   0x83fb5c00      0x400  <Block tail>
                                 - 0x83fb6000  0x3cb5f28

"P4", part 3 of 4:                               0x13044
  P4 s0                            0x83fb6000    0x13042  <Init block>
    .data                 inited   0x83fb6000     0x82b0  xm_tester_script.o [1]
    .data                 inited   0x83fbe2b0     0x430c  avi_codec_task.o [1]
    .data                 inited   0x83fc25bc     0x2078  app_voice.o [1]
    .data                 inited   0x83fc4634     0x2040  main.o [1]
    .data                 inited   0x83fc6674      0x804  descript_def.o [1]
    .data                 inited   0x83fc6e78      0x7ec  Gem_isp.o [1]
    .data                 inited   0x83fc7664      0x3bc  xm_win_user.o [1]
    .data                 inited   0x83fc7a20      0x1e0  xmvideoitem.o [1]
    .data                 inited   0x83fc7c00      0x1d0  jpeg_task.o [1]
    .data                 inited   0x83fc7dd0      0x1bc  xm_video_task.o [1]
    .data                 inited   0x83fc7f8c      0x158  CdrRequest.o [1]
    .data                 inited   0x83fc80e4       0xd8  pcm.o [5]
    .data                 inited   0x83fc81bc       0xb0  globaldata.o [1]
    .data                 inited   0x83fc826c       0xa0  pred_lt3.o [13]
    .data                 inited   0x83fc830c       0x68  xm_uvc_socket.o [1]
    .data                 inited   0x83fc8374       0x64  x264_arkn141.o [5]
    .data                 inited   0x83fc83d8       0x64  h264_arkn141.o [5]
    .data                 inited   0x83fc843c       0x54  sdmmc.o [1]
    .data                 inited   0x83fc8490       0x54  avienc.o [6]
    .data                 inited   0x83fc84e4       0x54  id3v2.o [6]
    .data                 inited   0x83fc8538       0x48  avidec.o [6]
    .data                 inited   0x83fc8580       0x48  rawenc.o [6]
    .data                 inited   0x83fc85c8       0x48  h264dec.o [6]
    .data                 inited   0x83fc8610       0x44  file.o [6]
    .data                 inited   0x83fc8654       0x38  descript.o [1]
    .data                 inited   0x83fc868c       0x34  xm_i2c.o [1]
    .data                 inited   0x83fc86c0       0x30  alert_view.o [1]
    .data                 inited   0x83fc8700       0x30  app_albumlistview.o [1]
    .data                 inited   0x83fc8740       0x30  app_albumview.o [1]
    .data                 inited   0x83fc8780       0x30  app_datetimesetting.o [1]
    .data                 inited   0x83fc87c0       0x30  app_menuoptionview.o [1]
    .data                 inited   0x83fc8800       0x30  app_messageview.o [1]
    .data                 inited   0x83fc8840       0x30  app_okcancelview.o [1]
    .data                 inited   0x83fc8880       0x30  app_processview.o [1]
    .data                 inited   0x83fc88c0       0x30  app_recycleview.o [1]
    .data                 inited   0x83fc8900       0x30  app_settingview.o [1]
    .data                 inited   0x83fc8940       0x30  app_soundvolumeview.o [1]
    .data                 inited   0x83fc8980       0x30  app_systemsettingview.o [1]
    .data                 inited   0x83fc89c0       0x30  app_systemversionview.o [1]
    .data                 inited   0x83fc8a00       0x30  app_videolistview.o [1]
    .data                 inited   0x83fc8a40       0x30  app_videosettingview.o [1]
    .data                 inited   0x83fc8a80       0x30  app_videoview.o [1]
    .data                 inited   0x83fc8ac0       0x30  desktop.o [1]
    .data                 inited   0x83fc8b00       0x30  recycle_video_alert_view.o [1]
    .data                 inited   0x83fc8b30       0x2c  descript.o [1]
    .data                 inited   0x83fc8b5c       0x2c  descript.o [1]
    .data                 inited   0x83fc8b88       0x2c  dec_ld8k.o [13]
    .data                 inited   0x83fc8bb4       0x28  xm_power.o [1]
    .data                 inited   0x83fc8bdc       0x28  OSGLOBAL.o [10]
    .data                 inited   0x83fc8c04       0x27  target.o [1]
    .data                 inited   0x83fc8c2b        0x1  globaldata.o [1]
    .data                 inited   0x83fc8c2c       0x24  descript.o [1]
    .data                 inited   0x83fc8c50       0x24  sdmmc.o [1]
    .data                 inited   0x83fc8c74       0x20  descript.o [1]
    .data                 inited   0x83fc8c94       0x20  descript_def.o [1]
    .data                 inited   0x83fc8cb4       0x20  descript_def.o [1]
    .data                 inited   0x83fc8cd4       0x20  xm_uvc_socket.o [1]
    .data                 inited   0x83fc8cf4       0x1c  SD_MMC_Drive.o [1]
    .data                 inited   0x83fc8d10       0x1c  descript.o [1]
    .data                 inited   0x83fc8d2c       0x1c  descript.o [1]
    .data                 inited   0x83fc8d48       0x1c  dec_sid.o [13]
    .data                 inited   0x83fc8d64       0x1a  arkn141_cmos_sensor_ar0238.o [1]
    .data                 inited   0x83fc8d7e        0x2  globaldata.o [1]
    .data                 inited   0x83fc8d80       0x18  descript.o [1]
    .data                 inited   0x83fc8d98       0x18  descript.o [1]
    .data                 inited   0x83fc8db0       0x18  g729_dec.o [13]
    .data                 inited   0x83fc8dc8       0x14  app_voice.o [1]
    .data                 inited   0x83fc8ddc       0x14  descript.o [1]
    .data                 inited   0x83fc8df0       0x14  descript.o [1]
    .data                 inited   0x83fc8e04       0x14  tab_ld8k.o [13]
    .data                 inited   0x83fc8e18       0x10  descript.o [1]
    .data                 inited   0x83fc8e28       0x10  descript.o [1]
    .data                 inited   0x83fc8e38       0x10  descript.o [1]
    .data                 inited   0x83fc8e48       0x10  rtc.o [1]
    .data                 inited   0x83fc8e58       0x10  xm_iisadc.o [1]
    .data                 inited   0x83fc8e68       0x10  log.o [7]
    .data                 inited   0x83fc8e78        0xd  FS_Core.o [1]
    .data                 inited   0x83fc8e86        0x2  globaldata.o [1]
    .data                 inited   0x83fc8e88        0xc  Gem_isp.o [1]
    .data                 inited   0x83fc8e94        0xc  SensorCommon.o [1]
    .data                 inited   0x83fc8ea0        0xc  descript.o [1]
    .data                 inited   0x83fc8eac        0xc  descript.o [1]
    .data                 inited   0x83fc8eb8        0xc  descript.o [1]
    .data                 inited   0x83fc8ec4        0xc  descript.o [1]
    .data                 inited   0x83fc8ed0        0xc  descript.o [1]
    .data                 inited   0x83fc8edc        0xc  descript.o [1]
    .data                 inited   0x83fc8ee8        0xc  descript.o [1]
    .data                 inited   0x83fc8ef4        0xc  descript.o [1]
    .data                 inited   0x83fc8f00        0xc  descript.o [1]
    .data                 inited   0x83fc8f0c        0xc  descript.o [1]
    .data                 inited   0x83fc8f18        0xc  descript.o [1]
    .data                 inited   0x83fc8f24        0xc  descript.o [1]
    .data                 inited   0x83fc8f30        0xc  descript.o [1]
    .data                 inited   0x83fc8f3c        0xc  descript.o [1]
    .data                 inited   0x83fc8f48        0xc  descript.o [1]
    .data                 inited   0x83fc8f54        0xc  descript.o [1]
    .data                 inited   0x83fc8f60        0xc  descript.o [1]
    .data                 inited   0x83fc8f6c        0xc  OS_TICK_HandleEx.o [10]
    .data                 inited   0x83fc8f78        0xc  mul64_op.o [12]
    .data                 inited   0x83fc8f84        0xc  pst.o [12]
    .data                 inited   0x83fc8f90        0x8  SensorCommon.o [1]
    .data                 inited   0x83fc8f98        0x8  arkn141_jpeg_encoder.o [1]
    .data                 inited   0x83fc8fa0        0x8  descript.o [1]
    .data                 inited   0x83fc8fa8        0x8  descript.o [1]
    .data                 inited   0x83fc8fb0        0x8  descript.o [1]
    .data                 inited   0x83fc8fb8        0x8  descript.o [1]
    .data                 inited   0x83fc8fc0        0x8  descript.o [1]
    .data                 inited   0x83fc8fc8        0x8  descript.o [1]
    .data                 inited   0x83fc8fd0        0x8  descript.o [1]
    .data                 inited   0x83fc8fd8        0x8  tab_ld8k.o [13]
    .data                 inited   0x83fc8fe0        0x8  basic_op.o [13]
    .data                 inited   0x83fc8fe8        0x8  dec_gain.o [13]
    .data                 inited   0x83fc8ff0        0x4  FAT_Misc.o [1]
    .data                 inited   0x83fc8ff4        0x4  Gem_isp.o [1]
    .data                 inited   0x83fc8ff8        0x4  Gem_isp.o [1]
    .data                 inited   0x83fc8ffc        0x4  arkn141_jpeg_decoder.o [1]
    .data                 inited   0x83fc9000        0x4  avio.o [1]
    .data                 inited   0x83fc9004        0x4  descript.o [1]
    .data                 inited   0x83fc9008        0x4  globaldata.o [1]
    .data                 inited   0x83fc900c        0x4  globaldata.o [1]
    .data                 inited   0x83fc9010        0x4  hx170dec.o [1]
    .data                 inited   0x83fc9014        0x4  hx170dec.o [1]
    .data                 inited   0x83fc9018        0x4  hx280enc.o [1]
    .data                 inited   0x83fc901c        0x4  os_change_task.o [1]
    .data                 inited   0x83fc9020        0x4  wdt.o [1]
    .data                 inited   0x83fc9024        0x4  xm_osd_layer.o [1]
    .data                 inited   0x83fc9028        0x4  mem.o [7]
    .data                 inited   0x83fc902c        0x2  globaldata.o [1]
    .data                 inited   0x83fc902e        0x2  globaldata.o [1]
    .data                 inited   0x83fc9030        0x2  globaldata.o [1]
    .data                 inited   0x83fc9032        0x2  globaldata.o [1]
    .data                 inited   0x83fc9034        0x2  sensorlib.o [1]
    .data                 inited   0x83fc9036        0x2  lspdec.o [13]
    .data                 inited   0x83fc9038        0x1  globaldata.o [1]
    .data                 inited   0x83fc9039        0x1  globaldata.o [1]
    .data                 inited   0x83fc903a        0x1  globaldata.o [1]
    .data                 inited   0x83fc903b        0x1  globaldata.o [1]
    .data                 inited   0x83fc903c        0x1  globaldata.o [1]
    .data                 inited   0x83fc903d        0x1  globaldata.o [1]
    .data                 inited   0x83fc903e        0x1  globaldata.o [1]
    .data                 inited   0x83fc903f        0x1  globaldata.o [1]
    .data                 inited   0x83fc9040        0x1  globaldata.o [1]
    .data                 inited   0x83fc9041        0x1  sensorlib.o [1]
                                 - 0x83fc9042    0x13042

"P4", part 4 of 4:                               0x24578
  .bss                    zero     0x83fc9044     0x8000  pcm.o [5]
  .bss                    zero     0x83fd1044     0x5000  crc.o [7]
  .bss                    zero     0x83fd6044     0x23f0  xm_osd_framebuffer.o [1]
  .bss                    zero     0x83fd8440     0x2000  Gem_isp.o [1]
  .bss                    zero     0x83fda440     0x2000  avi_codec_task.o [1]
  .bss                    zero     0x83fdc440     0x2000  dma.o [1]
  .bss                    zero     0x83fde440     0x1af4  xm_osd_framebuffer.o [1]
  .bss                    zero     0x83fdff34     0x19c8  xm_tester_script.o [1]
  .bss                    zero     0x83fe18fc     0x1428  xm_h264_cache_command_queue.o [1]
  .bss                    zero     0x83fe2d24     0x1400  xm_osd_layer_animate.o [1]
  .bss                    zero     0x83fe4124     0x103c  app_processview.o [1]
  .bss                    zero     0x83fe5160     0x1000  ConfigDrive.o [1]
  .bss                    zero     0x83fe6160     0x1000  hongjing_uart_socket.o [1]
  .bss                    zero     0x83fe8000     0x1000  xm_h264_cache_file.o [1]
  .bss                    zero     0x83fe9000      0x708  hardtimer_task.o [1]
  .bss                    zero     0x83fe9708      0x55c  xm_h264_file.o [1]
  .bss                    zero     0x83fe9c64      0x528  xm_h264_cache_file.o [1]
  .bss                    zero     0x83fea18c      0x414  xm_gdi_rom_image.o [1]
  .bss                    zero     0x83fea5a0      0x40c  log.o [7]
  .bss                    zero     0x83fea9ac      0x2f0  message_task.o [1]
  .bss                    zero     0x83feac9c      0x240  FS_Misc.o [1]
  .bss                    zero     0x83feaedc      0x240  gpio.o [1]
  .bss                    zero     0x83feb11c      0x200  rtosinit.o [1]
  .bss                    zero     0x83feb320      0x200  xm_iisadc.o [1]
  .bss                    zero     0x83feb520      0x1e8  dec_ld8k.o [13]
  .bss                    zero     0x83feb708      0x1d4  dlmalloc.o [4]
  .bss                    zero     0x83feb8dc      0x1d0  pst.o [12]
  .bss                    zero     0x83febaac      0x1c8  sensor_task.o [1]
  .bss                    zero     0x83febc74      0x108  xm_osd_layer.o [1]
  .bss                    zero     0x83febd7c      0x104  xm_touch_drv .o [1]
  .bss                    zero     0x83febe80       0xe4  xm_isp_scalar.o [1]
  .bss                    zero     0x83febf64       0xcc  camera_task.o [1]
  .bss                    zero     0x83fec030       0xc4  xm_uart.o [1]
  .bss                    zero     0x83fec0f4       0xc0  FS_Misc.o [1]
  .bss                    zero     0x83fec1b4       0xb4  g729_dec.o [13]
  .bss                    zero     0x83fec268       0xb0  xm_icon_manage.o [1]
  .bss                    zero     0x83fec318       0xac  FS_Volume.o [1]
  .bss                    zero     0x83fec3c4       0xa0  tab_dtx.o [13]
  .bss                    zero     0x83fec464       0x9c  app_time.o [1]
  .bss                    zero     0x83fec500       0x8c  arkn141_cmos_sensor_ar0238.o [1]
  .bss                    zero     0x83fec58c       0x8c  arkn141_scale.o [1]
  .bss                    zero     0x83fec618       0x8c  xm_tester.o [1]
  .bss                    zero     0x83fec6a4       0x88  xm_file_manager_task.o [1]
  .bss                    zero     0x83fec72c       0x84  xm_kbd_drv.o [1]
  .bss                    zero     0x83fec7b0       0x83  xm_time_drv.o [1]
  .bss                    zero     0x83fec840       0x80  dma.o [1]
  .bss                    zero     0x83fec8c0       0x80  dma.o [1]
  .bss                    zero     0x83fec940       0x80  irq.o [1]
  .bss                    zero     0x83fec9c0       0x70  onekeyphotograph_task.o [1]
  .bss                    zero     0x83feca30       0x70  xm_system_update.o [1]
  .bss                    zero     0x83fecaa0       0x64  lspdec.o [13]
  .bss                    zero     0x83fecb04       0x60  Gem_isp_ae.o [1]
  .bss                    zero     0x83fecb64       0x60  xm_win_gdi.o [1]
  .bss                    zero     0x83fecbc4       0x5c  xm_iisadc.o [1]
  .bss                    zero     0x83fecc20       0x54  xlocale_c.o [4]
  .bss                    zero     0x83fecc74       0x50  jpeg_task.o [1]
  .bss                    zero     0x83feccc4       0x50  xm_adc.o [1]
  .bss                    zero     0x83fecd14       0x4c  CdrRequest.o [1]
  .bss                    zero     0x83fecd60       0x40  globaldata.o [1]
  .bss                    zero     0x83fecda0       0x40  sdmmc.o [1]
  .bss                    zero     0x83fecde0       0x3c  Gem_isp.o [1]
  .bss                    zero     0x83fece1c       0x3c  app_task.o [1]
  .bss                    zero     0x83fece60       0x3c  avi_codec_task.o [1]
  .bss                    zero     0x83fece9c       0x3c  hardtimer_task.o [1]
  .bss                    zero     0x83fecee0       0x3c  hongjing_uart_socket.o [1]
  .bss                    zero     0x83fecf1c       0x3c  xm_autotest.o [1]
  .bss                    zero     0x83fecf58       0x34  arkn141_cmos_sensor_ar0238.o [1]
  .bss                    zero     0x83fecf8c       0x34  arkn141_codec.o [1]
  .bss                    zero     0x83fecfc0       0x34  xm_i2c.o [1]
  .bss                    zero     0x83fecff4       0x30  app_menudata.o [1]
  .bss                    zero     0x83fed024       0x30  timer.o [1]
  .bss                    zero     0x83fed054       0x30  xm_icon_manage.o [1]
  .bss                    zero     0x83fed084       0x30  xmvideoitem.o [1]
  .bss                    zero     0x83fed0b4       0x2c  UvcVideo.o [1]
  .bss                    zero     0x83fed0e0       0x2c  dma.o [1]
  .bss                    zero     0x83fed10c       0x28  app_format.o [1]
  .bss                    zero     0x83fed134       0x28  app_systemupdate.o [1]
  .bss                    zero     0x83fed15c       0x28  xm_osd_framebuffer.o [1]
  .bss                    zero     0x83fed184       0x28  utils.o [6]
  .bss                    zero     0x83fed1ac       0x24  hw_osd_layer_iar.o [1]
  .bss                    zero     0x83fed1d0       0x24  ssi.o [1]
  .bss                    zero     0x83fed1f4       0x24  xm_hybrid_stream.o [1]
  .bss                    zero     0x83fed218       0x20  FS_LogBlock.o [1]
  .bss                    zero     0x83fed238       0x20  globaldata.o [1]
  .bss                    zero     0x83fed258       0x1c  globaldata.o [1]
  .bss                    zero     0x83fed274       0x1c  xm_at.o [1]
  .bss                    zero     0x83fed290       0x1c  utils.o [5]
  .bss                    zero     0x83fed2ac       0x18  globaldata.o [1]
  .bss                    zero     0x83fed2c4       0x18  hw_osd_layer_iar.o [1]
  .bss                    zero     0x83fed2dc       0x18  hx280enc.o [1]
  .bss                    zero     0x83fed2f4       0x18  OS_Alloc.o [10]
  .bss                    zero     0x83fed30c       0x18  dlmalloc.o [4]
  .bss                    zero     0x83fed324       0x18  xsyslock.o [4]
  .bss                    zero     0x83fed340       0x14  Gem_isp.o [1]
  .bss                    zero     0x83fed354       0x14  descript.o [1]
  .bss                    zero     0x83fed368       0x14  dwl_iar.o [1]
  .bss                    zero     0x83fed37c       0x14  dwl_iar.o [1]
  .bss                    zero     0x83fed390       0x14  hx170dec.o [1]
  .bss                    zero     0x83fed3a4       0x10  FS_OS.o [1]
  .bss                    zero     0x83fed3b4       0x10  xm_win_mem.o [1]
  .bss                    zero     0x83fed3c4       0x10  taming.o [13]
  .bss                    zero     0x83fed3d4        0xf  rtc.o [1]
  .bss                    zero     0x83fed3e3        0x1  AudioFunction.o [1]
  .bss                    zero     0x83fed3e4        0xf  xm_uart_drv.o [1]
  .bss                    zero     0x83fed3f3        0x1  UsbRequest.o [1]
  .bss                    zero     0x83fed3f4        0xc  Gem_isp_sys.o [1]
  .bss                    zero     0x83fed400        0xc  UvcVideo.o [1]
  .bss                    zero     0x83fed40c        0xc  globaldata.o [1]
  .bss                    zero     0x83fed418        0xc  globaldata.o [1]
  .bss                    zero     0x83fed424        0xc  globaldata.o [1]
  .bss                    zero     0x83fed430        0xc  hw_osd_layer_iar.o [1]
  .bss                    zero     0x83fed43c        0xc  xm_osd_layer.o [1]
  .bss                    zero     0x83fed448        0x8  FS_OS_Interface.o [1]
  .bss                    zero     0x83fed450        0x8  Gem_isp_ae.o [1]
  .bss                    zero     0x83fed458        0x8  Gem_isp_ae.o [1]
  .bss                    zero     0x83fed460        0x8  H264CodeFrame.o [1]
  .bss                    zero     0x83fed468        0x8  app_task.o [1]
  .bss                    zero     0x83fed470        0x8  desktop.o [1]
  .bss                    zero     0x83fed478        0x8  globaldata.o [1]
  .bss                    zero     0x83fed480        0x8  globaldata.o [1]
  .bss                    zero     0x83fed488        0x8  hw_osd_layer_iar.o [1]
  .bss                    zero     0x83fed490        0x8  sensorlib.o [1]
  .bss                    zero     0x83fed498        0x8  xm_recycle.o [1]
  .bss                    zero     0x83fed4a0        0x8  xmvideoitem.o [1]
  .bss                    zero     0x83fed4a8        0x4  ConfigDrive.o [1]
  .bss                    zero     0x83fed4ac        0x4  H264CodeFrame.o [1]
  .bss                    zero     0x83fed4b0        0x4  H264CodeFrame.o [1]
  .bss                    zero     0x83fed4b4        0x4  H264CodeFrame.o [1]
  .bss                    zero     0x83fed4b8        0x4  SD_MMC_Drive.o [1]
  .bss                    zero     0x83fed4bc        0x4  SensorCommon.o [1]
  .bss                    zero     0x83fed4c0        0x4  SensorCommon.o [1]
  .bss                    zero     0x83fed4c4        0x4  app_album.o [1]
  .bss                    zero     0x83fed4c8        0x4  app_init.o [1]
  .bss                    zero     0x83fed4cc        0x4  arkn141_cmos_sensor_ar0238_io.o [1]
  .bss                    zero     0x83fed4d0        0x4  arkn141_h264_encoder.o [1]
  .bss                    zero     0x83fed4d4        0x4  arkn141_h264_encoder.o [1]
  .bss                    zero     0x83fed4d8        0x4  arkn141_scale.o [1]
  .bss                    zero     0x83fed4dc        0x4  avi_codec_task.o [1]
  .bss                    zero     0x83fed4e0        0x4  avi_codec_task.o [1]
  .bss                    zero     0x83fed4e4        0x4  avio.o [1]
  .bss                    zero     0x83fed4e8        0x4  desktop.o [1]
  .bss                    zero     0x83fed4ec        0x4  ewl_x280_common.o [1]
  .bss                    zero     0x83fed4f0        0x4  globaldata.o [1]
  .bss                    zero     0x83fed4f4        0x4  globaldata.o [1]
  .bss                    zero     0x83fed4f8        0x4  hongjing_uart_socket.o [1]
  .bss                    zero     0x83fed4fc        0x4  hw_osd_layer_iar.o [1]
  .bss                    zero     0x83fed500        0x4  hw_osd_layer_iar.o [1]
  .bss                    zero     0x83fed504        0x4  lcd.o [1]
  .bss                    zero     0x83fed508        0x4  os_change_task.o [1]
  .bss                    zero     0x83fed50c        0x4  pc_main.o [1]
  .bss                    zero     0x83fed510        0x4  sdmmc.o [1]
  .bss                    zero     0x83fed514        0x4  sensorlib.o [1]
  .bss                    zero     0x83fed518        0x4  sensorlib.o [1]
  .bss                    zero     0x83fed51c        0x4  sensorlib.o [1]
  .bss                    zero     0x83fed520        0x4  sensorlib.o [1]
  .bss                    zero     0x83fed524        0x4  sensorlib.o [1]
  .bss                    zero     0x83fed528        0x4  sensorlib.o [1]
  .bss                    zero     0x83fed52c        0x4  sensorlib.o [1]
  .bss                    zero     0x83fed530        0x4  sensorlib.o [1]
  .bss                    zero     0x83fed534        0x4  sensorlib.o [1]
  .bss                    zero     0x83fed538        0x4  sensorlib.o [1]
  .bss                    zero     0x83fed53c        0x4  sensorlib.o [1]
  .bss                    zero     0x83fed540        0x4  sensorlib.o [1]
  .bss                    zero     0x83fed544        0x4  sensorlib.o [1]
  .bss                    zero     0x83fed548        0x4  sensorlib.o [1]
  .bss                    zero     0x83fed54c        0x4  sensorlib.o [1]
  .bss                    zero     0x83fed550        0x4  xm_h264_cache_file.o [1]
  .bss                    zero     0x83fed554        0x4  xm_osd_layer_animate.o [1]
  .bss                    zero     0x83fed558        0x4  xmvideoitem.o [1]
  .bss                    zero     0x83fed55c        0x4  OSGLOBAL.o [10]
  .bss                    zero     0x83fed560        0x4  OSGLOBAL.o [10]
  .bss                    zero     0x83fed564        0x4  OSGLOBAL.o [10]
  .bss                    zero     0x83fed568        0x4  OSGLOBAL.o [10]
  .bss                    zero     0x83fed56c        0x4  OSGLOBAL.o [10]
  .bss                    zero     0x83fed570        0x4  OSGLOBAL.o [10]
  .bss                    zero     0x83fed574        0x4  OSTERM.o [10]
  .bss                    zero     0x83fed578        0x4  allformats.o [6]
  .bss                    zero     0x83fed57c        0x4  utils.o [5]
  .bss                    zero     0x83fed580        0x4  mux.o [6]
  .bss                    zero     0x83fed584        0x4  allcodecs.o [5]
  .bss                    zero     0x83fed588        0x4  avio.o [6]
  .bss                    zero     0x83fed58c        0x4  parser.o [5]
  .bss                    zero     0x83fed590        0x4  utils.o [7]
  .bss                    zero     0x83fed594        0x4  h264_arkn141.o [5]
  .bss                    zero     0x83fed598        0x4  xgetmemchunk.o [4]
  .bss                    zero     0x83fed59c        0x4  environ.o [4]
  .bss                    zero     0x83fed5a0        0x3  interrupt.o [1]
  .bss                    zero     0x83fed5a3        0x1  UsbRequest.o [1]
  .bss                    zero     0x83fed5a4        0x2  globaldata.o [1]
  .bss                    zero     0x83fed5a6        0x1  VideoFunction.o [1]
  .bss                    zero     0x83fed5a7        0x1  VideoFunction.o [1]
  .bss                    zero     0x83fed5a8        0x1  VideoFunction.o [1]
  .bss                    zero     0x83fed5a9        0x1  descript_def.o [1]
  .bss                    zero     0x83fed5aa        0x1  globaldata.o [1]
  .bss                    zero     0x83fed5ab        0x1  globaldata.o [1]
  .bss                    zero     0x83fed5ac        0x1  globaldata.o [1]
  .bss                    zero     0x83fed5ad        0x1  globaldata.o [1]
  .bss                    zero     0x83fed5ae        0x1  globaldata.o [1]
  .bss                    zero     0x83fed5af        0x1  pc_main.o [1]
  .bss                    zero     0x83fed5b0        0x1  pc_main.o [1]
  .bss                    zero     0x83fed5b1        0x1  pc_main.o [1]
  .bss                    zero     0x83fed5b2        0x1  pc_main.o [1]
  .bss                    zero     0x83fed5b3        0x1  OSGLOBAL.o [10]
  .bss                    zero     0x83fed5b4        0x1  OSGLOBAL.o [10]
  .bss                    zero     0x83fed5b5        0x1  OSGLOBAL.o [10]
  .bss                    zero     0x83fed5b6        0x1  OSGLOBAL.o [10]
  .bss                    zero     0x83fed5b7        0x1  OSGLOBAL.o [10]
  .bss                    zero     0x83fed5b8        0x1  OSGLOBAL.o [10]
                                 - 0x83fed5b9    0x24575


*******************************************************************************
*** INIT TABLE
***

          Address     Size
          -------     ----
Zero (__iar_zero_init3)
    2 destination ranges, total size 0x245c1:
          0x8030008c     0x4c
          0x83fc9044  0x24575

Copy/packbits (__iar_packbits_init3)
    1 source range, total size 0x8 (5% of destination):
          0x801e3aec      0x8
    1 destination range, total size 0x8c:
          0x80300000     0x8c

Copy/packbits (__iar_packbits_init3)
    1 source range, total size 0x10b7 (5% of destination):
          0x801e3af4   0x10b7
    1 destination range, total size 0x13042:
          0x83fb6000  0x13042

Extra (__iar_cstart_call_ctors)


*******************************************************************************
*** MODULE SUMMARY
***

    Module                           ro code    ro data     rw data
    ------                           -------    -------     -------
E:\proj\ARKN141\sw\xspace\proj\ARKN141_DEMO\HONGJING_CVBS_3D_OFF\Obj: [1]
    AudioFunction.o                      876                      1
    CdrRequest.o                       4 996         19     786 852
    ConfigDrive.o                        164                  4 100
    CpuClkCounter.o                    5 032
    EncGetOption.o                       976
    EncJpeg.o                          4 792
    EncJpegCodeFrame.o                   692
    EncJpegInit.o                      2 048
    EncJpegPutBits.o                     312
    FAT_Dir.o                            968
    FAT_DirEntry.o                       616
    FAT_DiskInfo.o                       196
    FAT_Format.o                       2 216
    FAT_FreeCluster.o                  3 264
    FAT_GetFileClusterSectorInfo.o       836
    FAT_Misc.o                         4 892                      4
    FAT_Move.o                           660
    FAT_Open.o                         2 488
    FAT_Read.o                         1 128                 65 536
    FAT_Rename.o                         128
    FAT_SetEndOfFile.o                   272
    FAT_VolumeLabel.o                     36
    FAT_Write.o                        1 388
    FS_AssignCache.o                     392
    FS_Attrib.o                          212
    FS_CacheRW.o                       1 320
    FS_CopyFile.o                        336
    FS_Core.o                          1 300          1          13
    FS_Dir.o                             684
    FS_FRead.o                            48
    FS_FWrite.o                           48
    FS_Format.o                          120
    FS_GetFileSize.o                      52
    FS_LogBlock.o                      1 780                     32
    FS_Misc.o                          1 700                    768
    FS_Move.o                            160
    FS_OS.o                              160                     16
    FS_OS_Interface.o                    264                      8
    FS_Partition.o                       340
    FS_Read.o                            208
    FS_Rename.o                          100
    FS_SetEndOfFile.o                     72
    FS_Time.o                            376
    FS_Unmount.o                         276
    FS_Volume.o                        1 056                    172
    FS_Write.o                           260
    FS_X_Panic.o                          48
    Gem_isp.o                          3 108        114  12 451 920
    Gem_isp_ae.o                       2 000                    112
    Gem_isp_awb.o                        388
    Gem_isp_colors.o                     692
    Gem_isp_config.o                     552
    Gem_isp_denoise.o                    360
    Gem_isp_enhance.o                    156
    Gem_isp_eris.o                       272
    Gem_isp_fesp.o                       472
    Gem_isp_sys.o                      1 400                     12
    H264Cabac.o                       15 152
    H264CodeFrame.o                    3 216                     20
    H264EncApi.o                       7 188
    H264Init.o                         1 956
    H264Mad.o                          1 356
    H264NalUnit.o                        424
    H264PictureParameterSet.o            452
    H264PutBits.o                        768
    H264RateControl.o                  7 848
    H264Sei.o                          1 460
    H264SequenceParameterSet.o         2 884
    H264Slice.o                          116
    H264TestBench.o                       80
    JpegEncApi.o                       2 844
    Jpegdectestbench.o                 1 344
    OS_Error.o                           148
    SD_MMC_Drive.o                     1 104          2          32
    SensorCommon.o                     1 592          1          28
    SystemAPI.o                          272
    UsbRequest.o                       4 024                      2
    UvcRequest.o                         712
    UvcVideo.o                         1 784                     56
    VideoFunction.o                    5 632                      3
    alert_view.o                       5 536          2          48
    app_album.o                          900                 12 292
    app_albumlistview.o                2 220          4          48
    app_albumview.o                    3 092          3          48
    app_button.o                       2 060
    app_datetimesetting.o              2 392          4          48
    app_format.o                         432                     40
    app_icon_library.o                   552
    app_init.o                           116                      4
    app_menudata.o                     3 544                     48
    app_menuid.o                      19 856
    app_menuoptionview.o               1 772          3          48
    app_messageview.o                  1 100          4          48
    app_okcancelview.o                 3 644          4          48
    app_onekey_photograph.o               16
    app_processview.o                  3 300          3       4 204
    app_recycleview.o                  2 432          4          48
    app_romimage.o                       148
    app_settingview.o                  3 380          3          48
    app_soundvolumeview.o              2 032          4          48
    app_switch_button.o                2 268
    app_systemsettingview.o            2 068          3          48
    app_systemupdate.o                   836                     40
    app_systemversionview.o              928          4          48
    app_task.o                           336                 16 452
    app_time.o                         1 568                    156
    app_titlebar.o                       700
    app_videolistview.o                2 732          3          48
    app_videosettingview.o             2 604          4          48
    app_videoview.o                    2 868          3          48
    app_voice.o                        1 224        458       8 332
    ar0238.o                           6 704
    arkn141_cmos_sensor_ar0238.o       9 160          2         218
    arkn141_cmos_sensor_ar0238_io.o      616                      4
    arkn141_codec.o                    1 404                     52
    arkn141_h264_decoder.o               216
    arkn141_h264_encoder.o             9 460                      8
    arkn141_isp_exposure.o             2 140
    arkn141_isp_exposure_cmos.o        1 556
    arkn141_jpeg_decoder.o             1 940                      4
    arkn141_jpeg_encoder.o             2 096          1           8
    arkn141_scale.o                    4 280                    144
    avi_codec_task.o                   8 612        943      74 576
    avio.o                               356                      8
    calender.o                           704
    camera_task.o                      1 532                  8 396
    clock.o                              120
    common_rbtr.o                      1 928
    common_string.o                      120
    cortex_a5_board_cstartup_iar.o       752
    cortex_a5_cp15.o                     240
    cortex_a5_cp15_asm_iar.o             360
    cortex_a5_mmu.o                      500                 16 384
    crc16.o                              580
    descript.o                                       36         688
    descript_def.o                     3 496        115       2 117
    desktop.o                          3 960          4          60
    dma.o                              2 220                  8 492
    dwl_iar.o                          3 100                     40
    dwl_x170_iar_no_drv.o                584
    encasiccontroller.o               19 268
    encasiccontroller_v2.o               912
    encpreprocess.o                    1 404
    ewl_x280_common.o                  1 884                      4
    ewl_x280_polling.o                   284
    exception_dump.o                     280
    gif.o                              2 808                 22 596
    globaldata.o                                     12         421
    globalfunc.o                       1 132
    gpio.o                             2 556                    576
    gpio_function.o                       64
    h264_pp_pipeline.o                   944
    h264decapi.o                      10 140
    h264hwd_asic.o                     9 552
    h264hwd_byte_stream.o                788
    h264hwd_cabac.o                    3 680
    h264hwd_cavlc.o                    4 862
    h264hwd_conceal.o                    452
    h264hwd_decoder.o                  4 096
    h264hwd_dpb.o                     10 700
    h264hwd_inter_prediction.o           828
    h264hwd_intra_prediction.o         2 212
    h264hwd_macroblock_layer.o         4 416
    h264hwd_nal_unit.o                   216
    h264hwd_neighbour.o                  640
    h264hwd_pic_order_cnt.o            1 032
    h264hwd_pic_param_set.o            1 968
    h264hwd_seq_param_set.o            4 832
    h264hwd_slice_data.o                 892
    h264hwd_slice_group_map.o          1 508
    h264hwd_slice_header.o             6 576
    h264hwd_storage.o                  4 264
    h264hwd_stream.o                   1 236
    h264hwd_util.o                       492
    h264hwd_vlc.o                        948
    h264hwd_vui.o                      2 588
    hardtimer_task.o                     652                  5 956
    hongjing_uart_socket.o             1 660                  4 160
    hw_osd_layer_iar.o                 3 916                     88
    hx170dec.o                           972                     28
    hx280enc.o                           520                     28
    interrupt.o                        1 344                      3
    irq.o                                696                    128
    jpeg_task.o                        5 032         25       4 640
    jpegdecapi.o                      13 584
    jpegdechdrs.o                      3 224
    jpegdecinternal.o                 19 168
    jpegdecscan.o                      1 540
    jpegdecutils.o                       600
    lcd.o                              1 648                      4
    lcdc_rgb.o                            64
    main.o                               600        454   2 105 408
    message_task.o                     1 380                  8 944
    onekeyphotograph_task.o            1 596                  8 304
    os_change_task.o                   1 400          1           8
    pc_main.o                            892                      8
    queue.o                              176
    recycle_video_alert_view.o         3 828          3          48
    refbuffer.o                        5 444
    regdrv.o                           8 820
    rtc.o                              2 580          1          31
    rtosinit.o                         1 148                    512
    sdmmc.o                           19 956          7         188
    sensor_task.o                      4 784                  4 552
    sensorlib.o                           40          1          71
    ssi.o                              4 000                     36
    system_check.o                        36
    target.o                           4 604          2          39
    timer.o                            1 676                     48
    tv_ntsc.o                            776
    tv_pal.o                             768
    uart.o                               336
    vidstabalg.o                       2 616
    vidstabcommon.o                      156
    wdt.o                                360                      4
    xm_adc.o                           1 076                     80
    xm_at.o                            1 260                     28
    xm_autotest.o                        408                  2 108
    xm_canvas.o                        2 400
    xm_core_file.o                     1 560
    xm_core_linear_memory.o              208
    xm_fb_argb454_drv.o                  312
    xm_fb_argb888_drv.o                  236
    xm_fb_drv.o                           96
    xm_fb_rgb565_drv.o                   300
    xm_file.o                            572
    xm_file_manager_task.o             2 120                  4 232
    xm_gdi_image.o                     3 072
    xm_gdi_rom_image.o                   812                  1 044
    xm_h264_cache_command_queue.o      1 044                  5 160
    xm_h264_cache_file.o               8 872             16 795 052
    xm_h264_file.o                     1 016                  1 372
    xm_hybrid_stream.o                   516                     36
    xm_i2c.o                           6 844          3         104
    xm_icon_manage.o                   4 080                    224
    xm_iisadc.o                        3 152                 51 820
    xm_isp_scalar.o                    3 928                    228
    xm_kbd_drv.o                         520                    132
    xm_led.o                               4
    xm_osd_framebuffer.o               5 908                 16 140
    xm_osd_framebuffer_config.o        1 924              7 464 960
    xm_osd_layer.o                     9 912                    280
    xm_osd_layer_animate.o             6 368                  5 124
    xm_osd_layer_gif.o                 3 660                 22 568
    xm_power.o                           600          3          40
    xm_recycle.o                       3 040                      8
    xm_semaphore.o                       204
    xm_system_update.o                 5 092                  8 304
    xm_tester.o                          436                    140
    xm_tester_script.o                 3 676      1 837      72 824
    xm_time_drv.o                        572                    131
    xm_touch_drv .o                      404                    260
    xm_uart.o                          4 772                    196
    xm_uart_drv.o                        908                     15
    xm_uvc_socket.o                   10 156          7         136
    xm_video_task.o                    3 296         24   3 618 876
    xm_win_gdi.o                       1 364                     96
    xm_win_main.o                        220
    xm_win_mem.o                         872              2 097 168
    xm_win_user.o                      9 688         52         956
    xm_win_widget.o                        4
    xmvideoitem.o                     17 832         27     139 804
    ---------------------------------------------------------------
    Total:                           635 798      4 210  45 939 653

E:\proj\ARKN141\sw\xspace\rtos\core: [2]
    dvr.jpg                                       1 982
    rom.bin                                     918 719
    ---------------------------------------------------------------
    Total:                                      920 701

command line: [3]
    ---------------------------------------------------------------
    Total:

dl5E_tln.a: [4]
    abort.o                               10
    abs.o                                  8
    atoi.o                                12
    bsearch.o                             62
    cppinit.o                             24
    div.o                                 32
    dlmalloc.o                         4 968                    492
    environ.o                                                     4
    errno.o                               16                      4
    exit.o                                 8
    getenv.o                              72
    getzone.o                              6
    gmtime.o                              14
    localtim.o                           192                      8
    low_level_init.o                       4
    mktime.o                             232
    printf.o                              36
    putchar.o                             38
    puts.o                                49
    rand.o                               152          8         140
    setlocale.o                           44                      8
    snprintf.o                            72
    sprintf.o                             56
    sscanf.o                              36
    strcat.o                              32
    strcspn.o                             36
    strftime.o                            30
    strncmp.o                             48
    strrchr.o                             26
    strspn.o                              36
    strstr.o                              46
    strtol.o                              10
    strtoll.o                              8
    strtoul.o                              8
    time.o                                14
    vsnprint.o                            60
    vsprintf.o                            44
    vsscanf.o                             28
    xassert.o                             86
    xgentime.o                         2 138
    xgetdst.o                            296
    xgetmemchunk.o                        40                      4
    xgettime.o                            64
    xisdst.o                             320                      8
    xlocale_c.o                          370          4          84
    xmtx.o                                 8
    xprintffull.o                      3 630
    xprout.o                              22
    xreportassert.o                      152
    xscanffull.o                       2 816
    xsnprout.o                            28
    xsprout.o                             10
    xsscin.o                              36
    xstoflt.o                            440
    xstol.o                              156
    xstoll.o                             192
    xstopfx.o                            308
    xstoul.o                             388
    xstoull.o                            480
    xstoxflt.o                           528
    xstrftim.o                           232
    xsyslock.o                           148                     24
    xthreads.o                            56                      4
    xttotm.o                             348                     44
    ---------------------------------------------------------------
    Total:                            19 861         12         824

libavcodec.a: [5]
    allcodecs.o                           64                      4
    avpacket.o                         2 752        172
    avpicture.o                          208
    codec_desc.o                         256     19 604
    h264_arkn141.o                     1 472      1 053         104
    mathtables.o                                  3 908
    options.o                          1 136     28 180
    parser.o                           3 168                      4
    pcm.o                              4 476        276      32 984
    raw.o                                 48      1 232
    rawdec.o                           1 648        264
    utils.o                           24 832      5 884          32
    x264_arkn141.o                     1 092      1 150         100
    ---------------------------------------------------------------
    Total:                            41 152     61 723      33 228

libavformat.a: [6]
    allformats.o                          96                      4
    avidec.o                          13 248      1 724          72
    avienc.o                           5 040        505          84
    avio.o                             3 024        428           4
    aviobuf.o                         13 664        200
    file.o                               448        212          68
    h264dec.o                            336        136          72
    id3v1.o                                       2 216
    id3v2.o                            4 960      2 508          84
    metadata.o                         1 040          4
    mux.o                              7 056        740           4
    options.o                            336      4 144
    rawdec.o                             272        116
    rawenc.o                              32         28          72
    riff.o                             4 320      3 764
    tachograph.o                       6 400      1 356
    utils.o                           47 408      6 616          40
    ---------------------------------------------------------------
    Total:                           107 680     24 697         504

libavutil.a: [7]
    avstring.o                         1 664          8
    bprint.o                           2 544         48
    buffer.o                           1 728         72
    channel_layout.o                   1 808      1 460
    crc.o                                704         40      20 480
    dict.o                             1 232          4
    error.o                              128      1 000
    eval.o                             7 840        644
    frame.o                            4 336          8
    imgutils.o                         4 480        240
    log.o                              1 808        649       1 052
    mathematics.o                      2 304        372
    mem.o                              2 848        104           4
    opt.o                             15 104      1 612
    parseutils.o                       3 888      3 892
    pixdesc.o                          3 664      7 180
    random_seed.o                         16
    rational.o                         2 736          8
    samplefmt.o                        2 080        228
    time.o                               128
    utils.o                              560      2 260           4
    ---------------------------------------------------------------
    Total:                            61 600     19 829      21 540

lpng167.a: [8]
    png.o                              4 920
    pngerror.o                           668
    pngmem.o                             300
    pngread.o                          2 876
    pngrio.o                              52
    pngrtran.o                         3 100
    pngrutil.o                         3 748
    pngset.o                           1 232
    pngtrans.o                           300
    ---------------------------------------------------------------
    Total:                            17 196

m5E_tl.a: [9]
    DblAdd.o                             320
    DblCmpEq.o                            44
    DblCmpGe.o                            56
    DblCmpLe.o                            56
    DblDiv.o                             908
    DblMul.o                             516
    DblSub.o                             492
    DblToFlt.o                           172
    DblToS32.o                            96
    DblToU32.o                            60
    FltAdd.o                             164
    FltCmpGe.o                            44
    FltCmpLe.o                            44
    FltDiv.o                             448
    FltMul.o                             328
    FltSub.o                             292
    FltToDbl.o                           100
    FltToS32.o                            88
    FltToU32.o                            52
    S32ToDbl.o                            48
    S32ToFlt.o                            52
    U32ToDbl.o                            12
    U32ToFlt.o                            16
    acos.o                               216
    asin.o                               220
    atan.o                               152
    ceil.o                               132
    cos.o                                 10
    cosh.o                                16
    exp.o                                 64
    fabs.o                                 8
    floor.o                              132
    fmod.o                               508
    llrint.o                              76
    log.o                                 10
    lrintf.o                              64
    nearbyint.o                           30
    nearbyintf.o                          28
    pow.o                              2 216
    sin.o                                 10
    sinh.o                                16
    sqrt.o                               388
    strtod.o                              10
    tan.o                                460
    tanh.o                               664
    trunc.o                               18
    xatan.o                              520
    xcosh.o                              224
    xdint.o                              148
    xdnorm.o                              72
    xdscale.o                            296
    xdtento.o                            512
    xdtest.o                              60
    xdunscal.o                           104
    xexp.o                               712
    xfdint.o                              94
    xfrint.o                             104
    xlog.o                               892
    xprec.o                            1 448
    xquad.o                            2 648
    xrint.o                              128
    xsin.o                               528
    xsinh.o                              500
    xstod.o                              338
    xstold.o                             338
    ---------------------------------------------------------------
    Total:                            19 522

os5t_al__d.a: [10]
    OSCMB.o                              168
    OSCSEM.o                             572
    OSCSEMGV.o                           108
    OSCSEMT.o                            212
    OSDELCS.o                            132
    OSDELRS.o                            160
    OSEVENCL.o                           124
    OSEVENGE.o                            56
    OSEVENS.o                            156
    OSEVENW.o                            232
    OSEVENWS.o                           236
    OSGLOBAL.o                                        2          70
    OSGM1.o                              332
    OSGMT.o                              232
    OSKERN.o                           2 464
    OSMAIL.o                             240
    OSMX.o                               200
    OSPM1.o                              332
    OSRSEM.o                             644
    OSRSEMRQ.o                           132
    OSTERM.o                             296                      4
    OSTIME.o                             704
    OSTIMERX.o                            92
    OSTimeD.o                             32
    OS_Alloc.o                           120                     24
    OS_CreateTask.o                      288
    OS_CreateTaskEx.o                    296
    OS_DeactivateP.o                      96
    OS_DeactivateTP.o                    108
    OS_EVENT_Create.o                     40
    OS_EVENT_Delete.o                    172
    OS_EVENT_Reset.o                     108
    OS_EVENT_Set.o                       196
    OS_EVENT_Wait.o                      164
    OS_EVENT_WaitTimed.o                 260
    OS_GetCPUState.o                      84
    OS_STACKINFO_ARM.o                    52
    OS_SetCSemaValue.o                   144
    OS_TICK_HandleEx.o                   284                     12
    OS_TLS.o                              64
    OS_Wait.o                            140
    rtos.o                               384
    xtls.o                                40
    ---------------------------------------------------------------
    Total:                            10 896          2         110

rt5E_al.a: [11]
    ABImemclr.o                            8
    ABImemclr4.o                           8
    ABImemcpy.o                          212
    ABImemmove.o                         212
    ABImemset.o                          120
    ABImemset48.o                         68
    DblLogEq.o                            20
    DblLogGe.o                            20
    DblLogGt.o                            20
    DblLogLe.o                            20
    DblLogLt.o                            20
    DblToS64.o                           184
    DblToU64.o                           120
    FltCmpEq.o                            36
    I32DivMod.o                          424
    I64DivMod.o                          388
    I64DivZer.o                            4
    I64Mul.o                              20
    I64ToFlt.o                           112
    IntDivZer.o                            4
    S64Shr.o                              32
    S64ToDbl.o                            92
    U64ToDbl.o                            16
    XXexit.o                              20
    cexit.o                               20
    cmain.o                               36
    cmain_call_ctors.o                    52
    cstart_clearlocks.o
    data_init3.o                          76
    iarEdom.o                             20
    memchr.o                             148
    memcmp.o                             116
    memmove.o                             20
    packbits_init3.o                     182
    setjmp.o                              32
    strchr.o                              32
    strcmp.o                             116
    strcpy.o                             104
    strlen.o                              84
    strncpy.o                            152
    vectortrap.o                           4
    zero_init3.o                          40
    ---------------------------------------------------------------
    Total:                             3 414

speech_decoder_arm.a: [12]
    mul64_op.o                         2 084          1          12
    pst.o                              4 748          1         476
    ---------------------------------------------------------------
    Total:                             6 832          2         488

speech_decoder_thumb.a: [13]
    basic_op.o                         1 680          1           8
    bits.o                               644
    calcexc.o                          1 724
    de_acelp.o                           188
    dec_gain.o                           296                      8
    dec_lag3.o                           324
    dec_ld8k.o                         1 540          2         532
    dec_sid.o                            896          1          28
    dspfunc.o                            424
    filter.o                             168
    g729_dec.o                           448          2         204
    gainpred.o                           440
    lpcfunc.o                          1 292
    lspdec.o                             484                    102
    lspgetq.o                            944
    oper_32b.o                           356
    p_parity.o                           116
    pred_lt3.o                           112          9         160
    qsidgain.o                           596
    rom_table.o                                   4 749
    tab_dtx.o                                                   160
    tab_ld8k.o                                      397          28
    taming.o                             532                     16
    util.o                               104
    ---------------------------------------------------------------
    Total:                            13 308      5 161       1 246

zlib-1.2.8.a: [14]
    adler32.o                            756
    inffast.o                          1 220
    inflate.o                          7 748
    inftrees.o                         1 592
    zutil.o                               92
    ---------------------------------------------------------------
    Total:                            11 408

    Gaps                                 231          8      20 386
    Linker created                        56         84  17 868 800
-------------------------------------------------------------------
    Grand Total:                     948 954  1 036 429  63 886 779


*******************************************************************************
*** ENTRY LIST
***

Entry                      Address       Size  Type      Object
-----                      -------       ----  ----      ------
?main                   0x801e391c             Code  Gb  cmain.o [11]
ABT_STACK$$Base         0x83fb5c00              --   Gb  - Linker created -
ABT_STACK$$Limit        0x83fb6000              --   Gb  - Linker created -
ADC_DMA_INT_handler     0x80115a5c       0xa8  Code  Lc  xm_iisadc.o [1]
APPMarkCardChecking     0x80163950       0x30  Code  Gb  desktop.o [1]
APSYS_CardChecking      0x801d2f28       0x24  Code  Gb  system_check.o [1]
AP_AlbumDeleteAllPhoto  0x801d187c       0x34  Code  Gb  app_album.o [1]
AP_AlbumDeletePhoto     0x801d17e8       0x94  Code  Gb  app_album.o [1]
AP_AlbumGetPhotoChannel
                        0x801d17bc       0x2c  Code  Gb  app_album.o [1]
AP_AlbumGetPhotoCount   0x801d1784        0xc  Code  Gb  app_album.o [1]
AP_AlbumGetPhotoFileName
                        0x801d18b4       0x80  Code  Gb  app_album.o [1]
AP_AlbumGetPhotoName    0x801d1790       0x2c  Code  Gb  app_album.o [1]
AP_AlbumInit            0x801d1684      0x100  Code  Gb  app_album.o [1]
AP_AppGetIconResource   0x8015979c       0x30  Code  Gb  app_icon_library.o [1]
AP_AppGetKeyClueRes     0x80182ae0       0x80  Code  Gb  app_menuid.o [1]
AP_AppRes2RomOffset     0x80182a80       0x60  Code  Gb  app_menuid.o [1]
AP_AppRes2RomRes        0x80182a20       0x60  Code  Gb  app_menuid.o [1]
AP_ButtonControlExit    0x80190f9c       0x24  Code  Gb  app_button.o [1]
AP_ButtonControlInit    0x80190f08       0x94  Code  Gb  app_button.o [1]
AP_ButtonControlMessageHandler
                        0x801914fc      0x218  Code  Gb  app_button.o [1]
AP_ButtonControlModify  0x80190fc0       0x58  Code  Gb  app_button.o [1]
AP_ButtonControlSetEnable
                        0x80191448       0x20  Code  Gb  app_button.o [1]
AP_ButtonControlSetFlag
                        0x80191018       0x10  Code  Gb  app_button.o [1]
AP_ButtonDirectPaint    0x80191300      0x10c  Code  Lc  app_button.o [1]
AP_ButtonPaint          0x80191028      0x2d8  Code  Lc  app_button.o [1]
AP_DrawTitlebarControl  0x80191714      0x120  Code  Gb  app_titlebar.o [1]
AP_FormatDataTime       0x801879f8      0x158  Code  Gb  app_time.o [1]
AP_GetMenuItem          0x8012ee84      0x164  Code  Gb  app_menudata.o [1]
AP_GetRecordDelayTime   0x8012f3c8       0x28  Code  Gb  app_menudata.o [1]
AP_GetVideoTimeSize     0x8012f374       0x54  Code  Gb  app_menudata.o [1]
AP_LoadMenuData         0x8012ec6c      0x110  Code  Gb  app_menudata.o [1]
AP_OnekeyPhotograph     0x80176008       0x10  Code  Gb  app_onekey_photograph.o [1]
AP_OpenFormatView       0x80174978       0xdc  Code  Gb  app_format.o [1]
AP_OpenMenuOptionView   0x801ccbe4       0x20  Code  Gb  app_menuoptionview.o [1]
AP_OpenMessageView      0x80188d24       0x14  Code  Gb  app_messageview.o [1]
AP_OpenMessageViewEx    0x80188ca0       0x84  Code  Gb  app_messageview.o [1]
AP_OpenSystemUpdateView
                        0x80177954       0xc4  Code  Gb  app_systemupdate.o [1]
AP_OpenVideoView        0x801d1948        0xc  Code  Gb  app_videoview.o [1]
AP_PostSystemEvent      0x80150f24       0x24  Code  Gb  app_init.o [1]
AP_RestoreMenuData      0x8012ee00       0x84  Code  Gb  app_menudata.o [1]
AP_ReturnToVideoListView
                        0x801d1954       0x2c  Code  Lc  app_videoview.o [1]
AP_RomImageDrawByMenuID
                        0x80187dd0       0x70  Code  Gb  app_romimage.o [1]
AP_SaveMenuData         0x8012ed7c       0x84  Code  Gb  app_menudata.o [1]
AP_SetMenuItem          0x8012efe8      0x38c  Code  Gb  app_menudata.o [1]
AP_SwitchButtonControlExit
                        0x801cc5c4       0xe4  Code  Gb  app_switch_button.o [1]
AP_SwitchButtonControlInit
                        0x801cc308      0x2bc  Code  Gb  app_switch_button.o [1]
AP_SwitchButtonControlMessageHandler
                        0x801cca30       0xf0  Code  Gb  app_switch_button.o [1]
AP_SwitchButtonControlMove
                        0x801cc6a8       0x30  Code  Gb  app_switch_button.o [1]
AP_SwitchButtonControlPaint
                        0x801cc6d8      0x358  Code  Gb  app_switch_button.o [1]
AP_TextGetStringSize    0x801878a0       0x3c  Code  Gb  app_time.o [1]
AP_TextOutDataTimeString
                        0x801878dc      0x118  Code  Gb  app_time.o [1]
AP_TextOutDateTime      0x80187b50       0x68  Code  Gb  app_time.o [1]
AP_TextOutWhiteDataTimeString
                        0x801877b0       0xf0  Code  Gb  app_time.o [1]
AP_TitleBarControlExit  0x8019198c       0x18  Code  Gb  app_titlebar.o [1]
AP_TitleBarControlInit  0x80191958       0x34  Code  Gb  app_titlebar.o [1]
AP_TitleBarControlMessageHandler
                        0x801919a4       0x2c  Code  Gb  app_titlebar.o [1]
AP_TitleBarControlPaint
                        0x80191834      0x124  Code  Gb  app_titlebar.o [1]
AP_VerifyMenuData       0x8012ec50       0x1c  Code  Gb  app_menudata.o [1]
AP_VideoItemFormatVideoFileName
                        0x80132374       0x94  Code  Gb  xmvideoitem.o [1]
AP_VideoItemGetNextVideoIndex
                        0x80132324       0x50  Code  Gb  xmvideoitem.o [1]
AP_VideoItemGetPrevVideoIndex
                        0x801322f4       0x30  Code  Gb  xmvideoitem.o [1]
AP_VideoItemGetVideoFileCount
                        0x80132130       0xa8  Code  Gb  xmvideoitem.o [1]
AP_VideoItemGetVideoItemFromHandle
                        0x80132290       0x60  Code  Gb  xmvideoitem.o [1]
AP_VideoItemGetVideoItemHandle
                        0x801321d8       0xb8  Code  Gb  xmvideoitem.o [1]
AP_VideoItemGetVideoStreamSize
                        0x80132408      0x124  Code  Gb  xmvideoitem.o [1]
AP_VideoItemLockVideoFile
                        0x80132618      0x118  Code  Gb  xmvideoitem.o [1]
AP_VideoItemLockVideoFileFromFileName
                        0x80132730       0xa8  Code  Gb  xmvideoitem.o [1]
AP_VideoItemUnlockVideoFile
                        0x801327dc      0x108  Code  Gb  xmvideoitem.o [1]
AP_VideoItemUnlockVideoFileFromFileName
                        0x801328e4       0x8c  Code  Gb  xmvideoitem.o [1]
AP_VideoListViewSetFocusItem
                        0x801d2570       0x24  Code  Gb  app_videolistview.o [1]
AP_VoicePromptsTask     0x80150b98      0x144  Code  Gb  app_voice.o [1]
AUDIO_INTERVAL_FS       0x83fc9030        0x2  Data  Gb  globaldata.o [1]
AUDIO_INTERVAL_HS       0x83fc902e        0x2  Data  Gb  globaldata.o [1]
AUDIO_SIZE_1_FRAME      0x83fc903e        0x1  Data  Gb  globaldata.o [1]
AWB_Degree              0x83fc9034        0x2  Data  Gb  sensorlib.o [1]
Abort_Handler           0x801e3ae4             Code  Wk  vectortrap.o [11]
Ac_Li                   0x8018b764       0x80  Data  Lc  EncJpeg.o [1]
ActiveTimerCount        0x83fec830        0x1  Data  Lc  xm_time_drv.o [1]
AdaptiveModel           0x801bdc14      0x1d4  Code  Lc  H264RateControl.o [1]
AddHardwareTimer        0x8012a7b8       0x50  Code  Gb  hardtimer_task.o [1]
AddRec                  0x80177aa8       0x3c  Code  Gb  descript_def.o [1]
AdjustDateTime          0x801d6448      0x278  Code  Lc  app_datetimesetting.o [1]
AlbumListViewOnCommand  0x801d7818       0x90  Code  Gb  app_albumlistview.o [1]
AlbumListViewOnEnter    0x801d71d4      0x16c  Code  Gb  app_albumlistview.o [1]
AlbumListViewOnKeyDown  0x801d76b0      0x140  Code  Gb  app_albumlistview.o [1]
AlbumListViewOnKeyUp    0x801d77f0       0x28  Code  Gb  app_albumlistview.o [1]
AlbumListViewOnLeave    0x801d7340       0x7c  Code  Gb  app_albumlistview.o [1]
AlbumListViewOnPaint    0x801d73bc      0x2f4  Code  Gb  app_albumlistview.o [1]
AlbumListViewOnSystemEvent
                        0x801d78c4       0x40  Code  Gb  app_albumlistview.o [1]
AlbumListViewOnTimer    0x801d78a8       0x1c  Code  Gb  app_albumlistview.o [1]
AlbumShowPhotoTime      0x801d0e14       0x90  Code  Lc  app_albumview.o [1]
AlbumViewOnCommand      0x801d116c      0x140  Code  Lc  app_albumview.o [1]
AlbumViewOnEnter        0x801d09b0      0x234  Code  Lc  app_albumview.o [1]
AlbumViewOnKeyDown      0x801d0f80      0x194  Code  Lc  app_albumview.o [1]
AlbumViewOnKeyUp        0x801d1114       0x28  Code  Lc  app_albumview.o [1]
AlbumViewOnLeave        0x801d0be4       0x7c  Code  Lc  app_albumview.o [1]
AlbumViewOnPaint        0x801d0ea4       0xd8  Code  Lc  app_albumview.o [1]
AlbumViewOnSystemEvent  0x801d131c       0x40  Code  Lc  app_albumview.o [1]
AlbumViewOnTimer        0x801d12ac       0x70  Code  Lc  app_albumview.o [1]
AlbumViewOnUserMessage  0x801d1370       0x30  Code  Lc  app_albumview.o [1]
AlertViewOnCommand      0x80175990       0x60  Code  Gb  alert_view.o [1]
AlertViewOnEnter        0x80174cf0      0x404  Code  Gb  alert_view.o [1]
AlertViewOnKeyDown      0x801757a8       0x98  Code  Gb  alert_view.o [1]
AlertViewOnKeyUp        0x80175840      0x150  Code  Gb  alert_view.o [1]
AlertViewOnLeave        0x801750f4       0x68  Code  Gb  alert_view.o [1]
AlertViewOnPaint        0x8017534c      0x45c  Code  Gb  alert_view.o [1]
AlertViewOnSystemEvent  0x80175a78       0x38  Code  Gb  alert_view.o [1]
AlertViewOnTimer        0x801759f0       0x88  Code  Gb  alert_view.o [1]
AlertViewOnTouchDown    0x80175ab0       0xa4  Code  Gb  alert_view.o [1]
AlertViewOnTouchUp      0x80175b54       0x8c  Code  Gb  alert_view.o [1]
AllocateAsicBuffers     0x801a9934      0x138  Code  Gb  h264hwd_asic.o [1]
AppGetStartupTicket     0x80150f10        0xc  Code  Gb  app_init.o [1]
AppIconLibrary          0x801597cc      0x1f8  Data  Lc  app_icon_library.o [1]
AppLocateItem           0x801cd858       0x68  Code  Gb  app_systemsettingview.o [1]
AppMenuData             0x83fecff4       0x30  Data  Gb  app_menudata.o [1]
Argument                0x801bba00      0x12c  Code  Lc  EncGetOption.o [1]
AsycMessageSema         0x83fecd3c       0x14  Data  Lc  CdrRequest.o [1]
AudioCodec_SetVolume    0x80115bc8       0x20  Code  Lc  xm_iisadc.o [1]
AutoMessageEx           0x80165b90      0x24c  Code  Gb  xm_tester_script.o [1]
BitmapFileName          0x83fec624       0x80  Data  Lc  xm_tester.o [1]
BuildDistribution       0x801b1fb8      0x194  Code  Gb  refbuffer.o [1]
C.101.8593              0x801e1ea8        0x8  Data  Lc  avidec.o [6]
C.102.8595              0x801e1e80        0x8  Data  Lc  avidec.o [6]
C.104.8600              0x801e1e88        0x8  Data  Lc  avidec.o [6]
C.105.8602              0x801e1e90        0x8  Data  Lc  avidec.o [6]
C.114.8886              0x801e3380        0x8  Data  Lc  utils.o [5]
C.14.4350               0x801e3ac4        0x8  Data  Lc  frame.o [7]
C.140.5632              0x801e37a0        0x8  Data  Lc  opt.o [7]
C.16.6268               0x80191a54        0x8  Data  Lc  options.o [5]
C.17.6269               0x80191a5c        0x8  Data  Lc  options.o [5]
C.18.3931               0x801e3abc        0x8  Data  Lc  rational.o [7]
C.194.10799             0x801dfbe0        0x8  Data  Lc  utils.o [6]
C.198.9743              0x801e3370        0x8  Data  Lc  utils.o [5]
C.200.9751              0x801e3378        0x8  Data  Lc  utils.o [5]
C.206.10872             0x801dfaf0        0x8  Data  Lc  utils.o [6]
C.207.10878             0x801dfaf8        0x8  Data  Lc  utils.o [6]
C.209.10885             0x801dfb00        0x8  Data  Lc  utils.o [6]
C.212.10923             0x801dfbc8        0x8  Data  Lc  utils.o [6]
C.213.10926             0x801dfbd0        0x8  Data  Lc  utils.o [6]
C.249.11367             0x801dfbd8        0x8  Data  Lc  utils.o [6]
C.251.11383             0x801dfbb0       0x18  Data  Lc  utils.o [6]
C.261.11593             0x801dfb98        0x8  Data  Lc  utils.o [6]
C.263.11597             0x801dfba0        0x8  Data  Lc  utils.o [6]
C.264.11600             0x801dfba8        0x8  Data  Lc  utils.o [6]
C.294.11979             0x801dfae8        0x8  Data  Lc  utils.o [6]
C.54.8289               0x801cff10        0xc  Data  Lc  riff.o [6]
C.55.7759               0x801dd974        0x8  Data  Lc  id3v2.o [6]
C.59.9247               0x801e38b4        0x8  Data  Lc  mux.o [6]
C.63.8113               0x801e1e08        0x8  Data  Lc  avidec.o [6]
C.63.9327               0x801e38a4        0x8  Data  Lc  mux.o [6]
C.64.9332               0x801e38ac        0x8  Data  Lc  mux.o [6]
C.65.8125               0x801e1e10        0x8  Data  Lc  avidec.o [6]
C.68.9398               0x801e38bc        0x8  Data  Lc  mux.o [6]
C.69.9407               0x801e38c4        0x8  Data  Lc  mux.o [6]
C.87.8444               0x801e1e18        0x8  Data  Lc  avidec.o [6]
C.93.9587               0x801dfb80        0x8  Data  Lc  utils.o [6]
CP15_DisableDcache      0x8015483c       0x1c  Code  Gb  cortex_a5_cp15.o [1]
CP15_DisableIcache      0x8015479c       0x1c  Code  Gb  cortex_a5_cp15.o [1]
CP15_DisableMMU         0x801547e4       0x1c  Code  Gb  cortex_a5_cp15.o [1]
CP15_EnableDcache       0x80154810       0x2c  Code  Gb  cortex_a5_cp15.o [1]
CP15_EnableIcache       0x80154780       0x1c  Code  Gb  cortex_a5_cp15.o [1]
CP15_EnableMMU          0x801547c8       0x1c  Code  Gb  cortex_a5_cp15.o [1]
CP15_IsDcacheEnabled    0x80154800       0x10  Code  Gb  cortex_a5_cp15.o [1]
CP15_IsIcacheEnabled    0x80154768       0x18  Code  Gb  cortex_a5_cp15.o [1]
CP15_IsMMUEnabled       0x801547b8       0x10  Code  Gb  cortex_a5_cp15.o [1]
CP15_ReadAuxiliaryControl
                        0x80154858             Code  Gb  cortex_a5_cp15_asm_iar.o [1]
CP15_ReadControl        0x80164e54             Code  Gb  cortex_a5_cp15_asm_iar.o [1]
CP15_WriteAuxiliaryControl
                        0x80154864             Code  Gb  cortex_a5_cp15_asm_iar.o [1]
CP15_WriteControl       0x80164e60             Code  Gb  cortex_a5_cp15_asm_iar.o [1]
CP15_WriteDomainAccessControl
                        0x80154740             Code  Gb  cortex_a5_cp15_asm_iar.o [1]
CP15_WriteTTB           0x80154718             Code  Gb  cortex_a5_cp15_asm_iar.o [1]
CP15_clean_dcache_for_dma
                        0x801548d4             Code  Gb  cortex_a5_cp15_asm_iar.o [1]
CP15_flush_dcache_for_dma
                        0x80154908             Code  Gb  cortex_a5_cp15_asm_iar.o [1]
CP15_invalidate_dcache_for_dma
                        0x8015488c             Code  Gb  cortex_a5_cp15_asm_iar.o [1]
CSTACK$$Base            0x83f98000              --   Gb  - Linker created -
CSTACK$$Limit           0x83f9c000              --   Gb  - Linker created -
CacheBlockAlloc         0x8013de1c      0x1f8  Code  Lc  xm_h264_cache_file.o [1]
CacheBlockFlushDirtyContextToFileSystem
                        0x8013e308      0x45c  Code  Lc  xm_h264_cache_file.o [1]
CacheBlockFree          0x8013dd88       0x94  Code  Lc  xm_h264_cache_file.o [1]
CacheBlockInit          0x8013d9b4       0xd4  Code  Lc  xm_h264_cache_file.o [1]
CacheFileFlush          0x8013efdc      0x134  Code  Lc  xm_h264_cache_file.o [1]
CacheFileSetCurrentBlock
                        0x8013e1a0       0xf0  Code  Lc  xm_h264_cache_file.o [1]
Calc_exc_rand           0x801823d0      0x644  Code  Gb  calcexc.o [13]
CalculateTimeOutParameter
                        0x80120568      0x164  Code  Lc  sdmmc.o [1]
CameraDataFrame         0x83febfd8       0x48  Data  Lc  camera_task.o [1]
CameraDataFrameCount    0x83febfb8       0x10  Data  Lc  camera_task.o [1]
CameraFrameData         0x83fec028        0x8  Data  Lc  camera_task.o [1]
CameraFrameFree         0x83fec020        0x8  Data  Lc  camera_task.o [1]
CameraFreeFrameCount    0x83febfc8       0x10  Data  Lc  camera_task.o [1]
CameraReady             0x83febf64        0x4  Data  Lc  camera_task.o [1]
CameraSema              0x83febfa4       0x14  Data  Lc  camera_task.o [1]
Carry                   0x83fc8fe4        0x4  Data  Gb  basic_op.o [13]
CbpIntra16x16           0x801b38bc       0x3c  Code  Lc  h264hwd_macroblock_layer.o [1]
CeilLog2NumSliceGroups  0x801afb70       0x20  Data  Lc  h264hwd_pic_param_set.o [1]
CheckFullSize           0x8016867c       0xf8  Code  Lc  JpegEncApi.o [1]
CheckHwId               0x80160800       0x58  Code  Lc  hx170dec.o [1]
CheckIntraChromaPrediction
                        0x801b7300       0x70  Code  Lc  h264hwd_intra_prediction.o [1]
CheckJpegCfg            0x80168774      0x1d4  Code  Lc  JpegEncApi.o [1]
CheckParameter          0x801bc320       0x24  Code  Lc  H264Init.o [1]
CheckPps                0x801acc10      0x17c  Code  Lc  h264hwd_storage.o [1]
CheckRegisterValues     0x8018c040       0x58  Code  Gb  encasiccontroller.o [1]
CheckScriptFileEx       0x80165f94       0x84  Code  Lc  xm_tester_script.o [1]
Check_Parity_Pitch      0x80174700       0x40  Code  Gb  p_parity.o [13]
CleanDlyOnFlag          0x80129d34       0x1c  Code  Lc  rtc.o [1]
CleanPowerDetectFlag    0x80129d18       0x1c  Code  Lc  rtc.o [1]
CleanPowerOffFlag       0x80129ce0       0x1c  Code  Lc  rtc.o [1]
CleanPowerOnFlag        0x80129cfc       0x1c  Code  Lc  rtc.o [1]
Commands                0x801662e0       0x18  Data  Lc  xm_tester_script.o [1]
CompareFields           0x801a3d74      0x124  Code  Lc  h264hwd_dpb.o [1]
CompareFieldsB          0x801a4088      0x1d8  Code  Lc  h264hwd_dpb.o [1]
ComparePictures         0x801a3b88      0x1ec  Code  Lc  h264hwd_dpb.o [1]
ComparePicturesB        0x801a3e98      0x1f0  Code  Lc  h264hwd_dpb.o [1]
Convolve                0x80173940       0xb0  Code  Gb  mul64_op.o [12]
Copy                    0x80174764       0x1c  Code  Gb  util.o [13]
CountDownPaint          0x8017515c      0x1f0  Code  Lc  alert_view.o [1]
CreateCacheFile         0x8013e764      0x118  Code  Lc  xm_h264_cache_file.o [1]
DWLDisableHW            0x8016e93c        0xc  Code  Gb  dwl_iar.o [1]
DWLEnableHW             0x8016e930        0xc  Code  Gb  dwl_iar.o [1]
DWLFreeLinear           0x8016e754       0x90  Code  Gb  dwl_iar.o [1]
DWLFreeRefFrm           0x8016e644        0xc  Code  Gb  dwl_iar.o [1]
DWLInit                 0x8017a76c       0xbc  Code  Gb  dwl_x170_iar_no_drv.o [1]
DWLMallocLinear         0x8016e650      0x104  Code  Gb  dwl_iar.o [1]
DWLMallocRefFrm         0x8016e638        0xc  Code  Gb  dwl_iar.o [1]
DWLReadAsicConfig       0x8016e0ec      0x3c8  Code  Gb  dwl_iar.o [1]
DWLReadAsicFuseStatus   0x8016e4b4      0x184  Code  Gb  dwl_iar.o [1]
DWLReadAsicID           0x8016e0d4       0x18  Code  Gb  dwl_iar.o [1]
DWLReadReg              0x8016e884       0xac  Code  Gb  dwl_iar.o [1]
DWLRelease              0x8017a828       0x64  Code  Gb  dwl_x170_iar_no_drv.o [1]
DWLReleaseHw            0x8016ea48       0x28  Code  Gb  dwl_iar.o [1]
DWLReserveHw            0x8016ea14       0x34  Code  Gb  dwl_iar.o [1]
DWLWaitDecHwReady       0x8017a890        0xc  Code  Gb  dwl_x170_iar_no_drv.o [1]
DWLWaitHwReady          0x8016e948       0x88  Code  Gb  dwl_iar.o [1]
DWLWaitPpHwReady        0x8017a89c       0xb0  Code  Gb  dwl_x170_iar_no_drv.o [1]
DWLWriteReg             0x8016e7e4       0xa0  Code  Gb  dwl_iar.o [1]
DWLcalloc               0x8016e9f0        0xc  Code  Gb  dwl_iar.o [1]
DWLfree                 0x8016e9dc       0x14  Code  Gb  dwl_iar.o [1]
DWLmalloc               0x8016e9d0        0xc  Code  Gb  dwl_iar.o [1]
DWLmemcpy               0x8016e9fc        0xc  Code  Gb  dwl_iar.o [1]
DWLmemset               0x8016ea08        0xc  Code  Gb  dwl_iar.o [1]
D_lsp                   0x80180b60       0x2c  Code  Gb  lspdec.o [13]
DateTimeSettingOnCommand
                        0x801d676c       0x7c  Code  Gb  app_datetimesetting.o [1]
DateTimeSettingOnEnter  0x801d5fa8       0xf8  Code  Gb  app_datetimesetting.o [1]
DateTimeSettingOnKeyDown
                        0x801d66c0       0x84  Code  Gb  app_datetimesetting.o [1]
DateTimeSettingOnKeyUp  0x801d6744       0x28  Code  Gb  app_datetimesetting.o [1]
DateTimeSettingOnLeave  0x801d60a0       0x78  Code  Gb  app_datetimesetting.o [1]
DateTimeSettingOnPaint  0x801d6118      0x330  Code  Gb  app_datetimesetting.o [1]
Dc_Li                   0x8018b684       0x80  Data  Lc  EncJpeg.o [1]
DecHwId                 0x80160b08       0x14  Data  Lc  hx170dec.o [1]
DecRefPicMarking        0x801b0608      0x2dc  Code  Lc  h264hwd_slice_header.o [1]
Dec_cng                 0x80174268      0x110  Code  Gb  dec_sid.o [13]
Dec_gain                0x80181ad4      0x10c  Code  Gb  dec_gain.o [13]
Dec_lag3                0x80181864      0x140  Code  Gb  dec_lag3.o [13]
DecideParityMode        0x801b2750       0x68  Code  Gb  refbuffer.o [1]
Decod_ACELP             0x80181a18       0xb8  Code  Gb  de_acelp.o [13]
Decod_ld8k              0x801720e4      0x4fc  Code  Gb  dec_ld8k.o [13]
DecodeBoxOutMap         0x801b4108      0x204  Code  Lc  h264hwd_slice_group_map.o [1]
DecodeCoeffToken        0x801b57c8      0x1d0  Code  Lc  h264hwd_cavlc.o [1]
DecodeDispersedMap      0x801b3fbc       0x64  Code  Lc  h264hwd_slice_group_map.o [1]
DecodeForegroundLeftOverMap
                        0x801b4020       0xe8  Code  Lc  h264hwd_slice_group_map.o [1]
DecodeHrdParameters     0x801b5560      0x268  Code  Lc  h264hwd_vui.o [1]
DecodeInterleavedMap    0x801b3f40       0x7c  Code  Lc  h264hwd_slice_group_map.o [1]
DecodeLevelPrefix       0x801b5998      0x108  Code  Lc  h264hwd_cavlc.o [1]
DecodeMbPred            0x801b30ec      0x288  Code  Lc  h264hwd_macroblock_layer.o [1]
DecodeRasterScanMap     0x801b430c       0x44  Code  Lc  h264hwd_slice_group_map.o [1]
DecodeResidual          0x801b36d4      0x1e8  Code  Lc  h264hwd_macroblock_layer.o [1]
DecodeRunBefore         0x801b5c40      0x134  Code  Lc  h264hwd_cavlc.o [1]
DecodeSubMbPred         0x801b3374      0x1e0  Code  Lc  h264hwd_macroblock_layer.o [1]
DecodeTotalZeros        0x801b5aa0      0x1a0  Code  Lc  h264hwd_cavlc.o [1]
DecodeWipeMap           0x801b4350       0x70  Code  Lc  h264hwd_slice_group_map.o [1]
DeleteAllCallback       0x801d1154       0x18  Code  Lc  app_albumview.o [1]
DeleteCacheFile         0x8013e884       0x6c  Code  Lc  xm_h264_cache_file.o [1]
DeleteOneCallback       0x801d113c       0x18  Code  Lc  app_albumview.o [1]
DesktopOnEnter          0x80163980       0x40  Code  Gb  desktop.o [1]
DesktopOnKeyDown        0x80163be4      0x238  Code  Gb  desktop.o [1]
DesktopOnLeave          0x80163b14       0x3c  Code  Gb  desktop.o [1]
DesktopOnSystemCheck    0x801639c0      0x154  Code  Lc  desktop.o [1]
DesktopOnSystemEvent    0x801647d4        0xc  Code  Gb  desktop.o [1]
DesktopOnTimer          0x80163b50       0x6c  Code  Gb  desktop.o [1]
DetermineIntra4x4PredMode
                        0x801b7204       0xd8  Code  Lc  h264hwd_intra_prediction.o [1]
DetermineNc             0x801b3554      0x180  Code  Lc  h264hwd_macroblock_layer.o [1]
DirectMvStatistics      0x801b214c      0x240  Code  Gb  refbuffer.o [1]
DiskInfo                0x83fec6a4        0xc  Data  Lc  xm_file_manager_task.o [1]
Div_32                  0x80181cc8       0x94  Code  Gb  oper_32b.o [13]
DmaChannelManagerAccessSema
                        0x83fed0e4       0x14  Data  Lc  dma.o [1]
DmaChxTfrOver_Sem       0x83fec8c0       0x80  Data  Lc  dma.o [1]
Dma_TfrOver_PendSemEx   0x8012ae0c       0x34  Code  Gb  dma.o [1]
Dma_TfrOver_PostSem     0x8012ade8       0x24  Code  Gb  dma.o [1]
DpbBufFree              0x801a60d4       0x48  Code  Lc  h264hwd_dpb.o [1]
ERROR_AUDIO_INVALID_CONTROL
                        0x8018a73c       0x1c  Code  Gb  AudioFunction.o [1]
ERROR_AUDIO_INVALID_UNIT
                        0x8018a720       0x1c  Code  Gb  AudioFunction.o [1]
ERROR_AUDIO_OUT_RANGE   0x8018a710       0x10  Code  Gb  AudioFunction.o [1]
ERROR_VIDEO_INVALID_CONTROL
                        0x8018913c       0x1c  Code  Gb  VideoFunction.o [1]
ERROR_VIDEO_INVALID_UNIT
                        0x80189120       0x1c  Code  Gb  VideoFunction.o [1]
ERROR_VIDEO_OUT_RANGE   0x80189110       0x10  Code  Gb  VideoFunction.o [1]
EWLDisableHW            0x80178d8c       0x60  Code  Gb  ewl_x280_common.o [1]
EWLEnableHW             0x80178d24       0x68  Code  Gb  ewl_x280_common.o [1]
EWLFreeLinear           0x80179008       0x60  Code  Gb  ewl_x280_common.o [1]
EWLFreeRefFrm           0x80178eb0       0x54  Code  Gb  ewl_x280_common.o [1]
EWLInit                 0x80178bfc       0x74  Code  Gb  ewl_x280_common.o [1]
EWLMallocLinear         0x80178f0c       0xfc  Code  Gb  ewl_x280_common.o [1]
EWLMallocRefFrm         0x80178e4c       0x64  Code  Gb  ewl_x280_common.o [1]
EWLReadAsicConfig       0x80178b58       0xa4  Code  Gb  ewl_x280_common.o [1]
EWLReadAsicID           0x80178b38       0x20  Code  Gb  ewl_x280_common.o [1]
EWLReadReg              0x80178dec       0x60  Code  Gb  ewl_x280_common.o [1]
EWLRelease              0x80178c70       0x4c  Code  Gb  ewl_x280_common.o [1]
EWLReleaseHw            0x801790d0       0x58  Code  Gb  ewl_x280_common.o [1]
EWLReserveHw            0x80179068       0x68  Code  Gb  ewl_x280_common.o [1]
EWLWaitHwRdy            0x80190878       0x9c  Code  Gb  ewl_x280_polling.o [1]
EWLWriteReg             0x80178cbc       0x68  Code  Gb  ewl_x280_common.o [1]
EWLcalloc               0x80179148       0x38  Code  Gb  ewl_x280_common.o [1]
EWLfree                 0x80179134       0x14  Code  Gb  ewl_x280_common.o [1]
EWLmalloc               0x80179128        0xc  Code  Gb  ewl_x280_common.o [1]
EWLmemcpy               0x80179180        0xc  Code  Gb  ewl_x280_common.o [1]
EWLmemset               0x8017918c        0xc  Code  Gb  ewl_x280_common.o [1]
EnableGPIOPadIRQ        0x8012b3a4       0xe0  Code  Gb  gpio.o [1]
Enable_ADC_Channel      0x8011aaa4       0x78  Code  Lc  xm_adc.o [1]
EncAsicCheckStatus_V2   0x8017a2f0       0x90  Code  Gb  encasiccontroller_v2.o [1]
EncAsicControllerInit   0x8018bd34       0x9c  Code  Gb  encasiccontroller.o [1]
EncAsicFrameStart       0x8018c098      0xaf8  Code  Gb  encasiccontroller.o [1]
EncAsicGetId            0x8018bf04       0x10  Code  Gb  encasiccontroller.o [1]
EncAsicGetRegisterValue
                        0x8018beac       0x58  Code  Gb  encasiccontroller.o [1]
EncAsicGetRegisters     0x8018cb90      0x128  Code  Gb  encasiccontroller.o [1]
EncAsicGetStatus        0x8018cccc       0x10  Code  Gb  encasiccontroller.o [1]
EncAsicMemAlloc_V2      0x80179ff0      0x1f4  Code  Gb  encasiccontroller_v2.o [1]
EncAsicMemFree_V2       0x8017a1e4      0x10c  Code  Gb  encasiccontroller_v2.o [1]
EncAsicRecycleInternalImage
                        0x8018bf14      0x12c  Code  Gb  encasiccontroller.o [1]
EncAsicSetQuantTable    0x8018bdd0       0x70  Code  Gb  encasiccontroller.o [1]
EncAsicSetRegisterValue
                        0x8018be40       0x6c  Code  Gb  encasiccontroller.o [1]
EncAsicStop             0x8018ccb8       0x14  Code  Gb  encasiccontroller.o [1]
EncGetOption            0x801bb7b4       0xb4  Code  Gb  EncGetOption.o [1]
EncJpegAPP0Header       0x8018ab84      0x1f8  Code  Lc  EncJpeg.o [1]
EncJpegBufferStatus     0x8017a41c       0x2c  Code  Gb  EncJpegPutBits.o [1]
EncJpegCOMHeader        0x8018ad7c       0x60  Code  Lc  EncJpeg.o [1]
EncJpegCodeFrame        0x8017a4b8      0x190  Code  Gb  EncJpegCodeFrame.o [1]
EncJpegDHTHeader        0x8018b178      0x410  Code  Lc  EncJpeg.o [1]
EncJpegDQTHeader        0x8018addc      0x13c  Code  Lc  EncJpeg.o [1]
EncJpegHdr              0x8018aad8       0xac  Code  Gb  EncJpeg.o [1]
EncJpegHeaderPutBits    0x8017a380       0x9c  Code  Gb  EncJpegPutBits.o [1]
EncJpegInit             0x8018aa7c       0x5c  Code  Gb  EncJpeg.o [1]
EncJpegRestartInterval  0x8018af18       0x54  Code  Lc  EncJpeg.o [1]
EncJpegSOFOHeader       0x8018af6c      0x20c  Code  Lc  EncJpeg.o [1]
EncJpegSOSHeader        0x8018b588       0xfc  Code  Lc  EncJpeg.o [1]
EncJpegSetBuffer        0x8017a448       0x70  Code  Gb  EncJpegPutBits.o [1]
EncPreProcess           0x80179af4      0x2e4  Code  Gb  encpreprocess.o [1]
EncPreProcessCheck      0x80179a74       0x80  Code  Gb  encpreprocess.o [1]
EncSetColorConversion   0x80179dd8      0x218  Code  Gb  encpreprocess.o [1]
EndRi                   0x8017a660        0x4  Code  Lc  EncJpegCodeFrame.o [1]
ExceptionDAB            0x801df008             Code  Gb  cortex_a5_board_cstartup_iar.o [1]
ExceptionPAB            0x801defdc             Code  Gb  cortex_a5_board_cstartup_iar.o [1]
ExceptionUND            0x801defb0             Code  Gb  cortex_a5_board_cstartup_iar.o [1]
FAT_SFN_API             0x80147134       0x10  Data  Gb  FAT_Misc.o [1]
FAT_pDirEntryAPI        0x83fc8ff0        0x4  Data  Gb  FAT_Misc.o [1]
FIQ_Handler             0x801e3ae4             Code  Wk  vectortrap.o [11]
FIQ_STACK$$Base         0x83fb4000              --   Gb  - Linker created -
FIQ_STACK$$Limit        0x83fb5000              --   Gb  - Linker created -
FQualifierData          0x83fc8eac        0xc  Data  Gb  descript.o [1]
FRM_LENGTH              0x83fc8d7c        0x2  Data  Lc  arkn141_cmos_sensor_ar0238.o [1]
FS_AddDevice            0x8011ca2c        0x4  Code  Gb  FS_Volume.o [1]
FS_Alloc                0x80145c68       0x20  Code  Gb  FS_Core.o [1]
FS_AllocZeroed          0x80145c88       0x24  Code  Gb  FS_Core.o [1]
FS_AssignCache          0x8014b3a0       0x9c  Code  Gb  FS_AssignCache.o [1]
FS_CACHE_Clean          0x8014b50c       0x1c  Code  Gb  FS_AssignCache.o [1]
FS_CACHE_Command        0x8014b4c8       0x24  Code  Gb  FS_AssignCache.o [1]
FS_CACHE_SetMode        0x8014b4ec       0x20  Code  Gb  FS_AssignCache.o [1]
FS_CacheRW_Init         0x801dcbf0       0x6c  Code  Gb  FS_CacheRW.o [1]
FS_ClearErr             0x8011c500       0x14  Code  Gb  FS_Misc.o [1]
FS_CutOffFile           0x80157868       0x68  Code  Gb  FAT_GetFileClusterSectorInfo.o [1]
FS_FAT_AllocCluster     0x80146af4       0x38  Code  Gb  FAT_Misc.o [1]
FS_FAT_CheckBPB         0x801467d0       0x88  Code  Gb  FAT_Misc.o [1]
FS_FAT_Close            0x80144374       0x4c  Code  Gb  FAT_Write.o [1]
FS_FAT_ClusterCacheAllocate
                        0x8015f234      0x158  Code  Gb  FAT_FreeCluster.o [1]
FS_FAT_ClusterCacheDeInitialize
                        0x8015ec38       0x3c  Code  Gb  FAT_FreeCluster.o [1]
FS_FAT_ClusterCacheFree
                        0x8015ef10      0x320  Code  Gb  FAT_FreeCluster.o [1]
FS_FAT_ClusterCacheInitialize
                        0x8015eb80       0xb8  Code  Gb  FAT_FreeCluster.o [1]
FS_FAT_ClusterCacheIsFullCoverage
                        0x8015f5e4       0x60  Code  Gb  FAT_FreeCluster.o [1]
FS_FAT_ClusterCacheScan
                        0x8015f3c0      0x224  Code  Gb  FAT_FreeCluster.o [1]
FS_FAT_ClusterId2SectorNo
                        0x80146888       0x14  Code  Gb  FAT_Misc.o [1]
FS_FAT_CopyDirEntryInfo
                        0x801470c8       0x6c  Code  Gb  FAT_Misc.o [1]
FS_FAT_CopyShortName    0x80146fac       0x94  Code  Gb  FAT_Misc.o [1]
FS_FAT_CreateDir        0x80143ce4       0xb8  Code  Gb  FAT_Dir.o [1]
FS_FAT_CreateDirEx      0x801439ec      0x194  Code  Gb  FAT_Dir.o [1]
FS_FAT_CutOffFile       0x801576b0      0x1b8  Code  Lc  FAT_GetFileClusterSectorInfo.o [1]
FS_FAT_DeleteFileOrDir  0x80144e68       0x80  Code  Gb  FAT_Open.o [1]
FS_FAT_FindDirEntry     0x80147040       0x78  Code  Gb  FAT_Misc.o [1]
FS_FAT_FindDirEntryShort
                        0x80145088       0x54  Code  Gb  FAT_Open.o [1]
FS_FAT_FindDirEntryShortEx
                        0x80144fdc       0xac  Code  Gb  FAT_Open.o [1]
FS_FAT_FindEmptyDirEntry
                        0x80144d54      0x114  Code  Gb  FAT_Open.o [1]
FS_FAT_FindFreeCluster  0x80146994       0xd4  Code  Gb  FAT_Misc.o [1]
FS_FAT_FindLastCluster  0x80146aa0       0x54  Code  Gb  FAT_Misc.o [1]
FS_FAT_FindPath         0x801450dc       0xcc  Code  Gb  FAT_Open.o [1]
FS_FAT_Format           0x80171f40       0x10  Code  Gb  FAT_Format.o [1]
FS_FAT_FreeClusterChain
                        0x80146d78      0x154  Code  Gb  FAT_Misc.o [1]
FS_FAT_GetDirEntry      0x80144c1c      0x128  Code  Gb  FAT_Open.o [1]
FS_FAT_GetDirEntryInfo  0x80143884       0xb0  Code  Gb  FAT_DirEntry.o [1]
FS_FAT_GetDiskInfo      0x80145d64       0xc4  Code  Gb  FAT_DiskInfo.o [1]
FS_FAT_GetFATType       0x80146858       0x30  Code  Gb  FAT_Misc.o [1]
FS_FAT_GetFirstCluster  0x80144bc8       0x24  Code  Gb  FAT_Open.o [1]
FS_FAT_GetNumAdjClustersInChain
                        0x80146ecc       0x80  Code  Gb  FAT_Misc.o [1]
FS_FAT_GotoCluster      0x80146c58       0x94  Code  Gb  FAT_Misc.o [1]
FS_FAT_GotoClusterAllocIfReq
                        0x801441cc      0x108  Code  Gb  FAT_Write.o [1]
FS_FAT_IncDirPos        0x80144d44       0x10  Code  Gb  FAT_Open.o [1]
FS_FAT_InitDirEntryScan
                        0x80144bec       0x30  Code  Gb  FAT_Open.o [1]
FS_FAT_IsValidShortNameChar
                        0x80146f4c       0x60  Code  Gb  FAT_Misc.o [1]
FS_FAT_LinkCluster      0x80146a70       0x30  Code  Gb  FAT_Misc.o [1]
FS_FAT_Make83Name       0x80144ee8       0xf4  Code  Gb  FAT_Open.o [1]
FS_FAT_MarkClusterEOC   0x80146a68        0x8  Code  Gb  FAT_Misc.o [1]
FS_FAT_Move             0x80145634       0xcc  Code  Gb  FAT_Move.o [1]
FS_FAT_Open             0x801451a8      0x2c0  Code  Gb  FAT_Open.o [1]
FS_FAT_OpenDir          0x80143c3c       0x44  Code  Gb  FAT_Dir.o [1]
FS_FAT_Read             0x80165224       0xec  Code  Gb  FAT_Read.o [1]
FS_FAT_ReadDir          0x80143c80       0x60  Code  Gb  FAT_Dir.o [1]
FS_FAT_ReadFATEntry     0x8014689c       0xf8  Code  Gb  FAT_Misc.o [1]
FS_FAT_Rename           0x8016f228       0x80  Code  Gb  FAT_Rename.o [1]
FS_FAT_SetDirEntryInfo  0x80143934       0xb8  Code  Gb  FAT_DirEntry.o [1]
FS_FAT_SetEndOfFile     0x801716e8       0x7c  Code  Gb  FAT_SetEndOfFile.o [1]
FS_FAT_WalkCluster      0x80146b98       0x20  Code  Gb  FAT_Misc.o [1]
FS_FAT_WalkClusterEx    0x80146b2c       0x6c  Code  Gb  FAT_Misc.o [1]
FS_FAT_Write            0x801442d4       0xa0  Code  Gb  FAT_Write.o [1]
FS_FAT_WriteDirEntry83  0x80144b14       0x8c  Code  Gb  FAT_Open.o [1]
FS_FAT_WriteDirEntryCluster
                        0x80144ba0       0x28  Code  Gb  FAT_Open.o [1]
FS_FClose               0x8011c4c4       0x20  Code  Gb  FS_Misc.o [1]
FS_FError               0x8011c4e8       0x18  Code  Gb  FS_Misc.o [1]
FS_FOpen                0x8011c4bc        0x4  Code  Gb  FS_Misc.o [1]
FS_FRead                0x8015bf24       0x30  Code  Gb  FS_FRead.o [1]
FS_FSeek                0x8011c4e4        0x4  Code  Gb  FS_Misc.o [1]
FS_FWrite               0x8015bf54       0x30  Code  Gb  FS_FWrite.o [1]
FS_FindClose            0x8011bf3c        0x4  Code  Gb  FS_Dir.o [1]
FS_FindFirstFile        0x8011bf1c       0x10  Code  Gb  FS_Dir.o [1]
FS_FindNextFile         0x8011bf2c       0x10  Code  Gb  FS_Dir.o [1]
FS_Format               0x8015f9b0       0x1c  Code  Gb  FS_Format.o [1]
FS_GetFileAttributes    0x8011cb74        0x4  Code  Gb  FS_Attrib.o [1]
FS_GetFileSize          0x801587c0        0x4  Code  Gb  FS_GetFileSize.o [1]
FS_GetFileTime          0x8011bc38        0x8  Code  Gb  FS_Time.o [1]
FS_GetSectorSize        0x801449ec       0x44  Code  Gb  FS_LogBlock.o [1]
FS_GetVolumeInfo        0x8011ca54        0x4  Code  Gb  FS_Volume.o [1]
FS_GetVolumeStatus      0x8011ca90       0x14  Code  Gb  FS_Volume.o [1]
FS_Init                 0x80145cec       0x74  Code  Gb  FS_Core.o [1]
FS_IsVolumeMounted      0x8011ca30       0x24  Code  Gb  FS_Volume.o [1]
FS_LB_FreePartSectors   0x80144a6c       0x44  Code  Gb  FS_LogBlock.o [1]
FS_LB_GetDeviceInfo     0x80144a30       0x3c  Code  Gb  FS_LogBlock.o [1]
FS_LB_GetStatus         0x80144464       0x28  Code  Gb  FS_LogBlock.o [1]
FS_LB_InitMedium        0x8014448c       0x48  Code  Gb  FS_LogBlock.o [1]
FS_LB_InitMediumIfRequired
                        0x801444d4       0x24  Code  Gb  FS_LogBlock.o [1]
FS_LB_Ioctl             0x801449b0       0x3c  Code  Gb  FS_LogBlock.o [1]
FS_LB_ReadBurst         0x8014466c      0x158  Code  Gb  FS_LogBlock.o [1]
FS_LB_ReadDevice        0x801444f8       0x68  Code  Gb  FS_LogBlock.o [1]
FS_LB_ReadDevicePrefetch
                        0x8014458c       0xe0  Code  Gb  FS_LogBlock.o [1]
FS_LB_ReadPart          0x80144560        0xc  Code  Gb  FS_LogBlock.o [1]
FS_LB_ReadPartPrefetch  0x8014456c       0x20  Code  Gb  FS_LogBlock.o [1]
FS_LB_WriteBurst        0x801447c4       0xb4  Code  Gb  FS_LogBlock.o [1]
FS_LB_WriteDevice       0x80144918       0x8c  Code  Gb  FS_LogBlock.o [1]
FS_LB_WriteMultiple     0x80144878       0xa0  Code  Gb  FS_LogBlock.o [1]
FS_LB_WritePart         0x801449a4        0xc  Code  Gb  FS_LogBlock.o [1]
FS_LoadU16LE            0x80145c58       0x10  Code  Gb  FS_Core.o [1]
FS_LoadU32LE            0x80145bfc       0x2c  Code  Gb  FS_Core.o [1]
FS_MkDir                0x8011bf18        0x4  Code  Gb  FS_Dir.o [1]
FS_Mount                0x8011ca5c       0x34  Code  Gb  FS_Volume.o [1]
FS_Move                 0x8011c5e4       0xa0  Code  Gb  FS_Move.o [1]
FS_NumBytesAllocated    0x83fed4a8        0x4  Data  Gb  ConfigDrive.o [1]
FS_OS_AddDriver         0x80143720        0x4  Code  Gb  FS_OS_Interface.o [1]
FS_OS_GetNumDriverLocks
                        0x80143774        0xc  Code  Gb  FS_OS_Interface.o [1]
FS_OS_LockDriver        0x80143724       0x28  Code  Gb  FS_OS_Interface.o [1]
FS_OS_UnlockDriver      0x8014374c       0x28  Code  Gb  FS_OS_Interface.o [1]
FS_PreFindFreeClusters  0x801575bc       0x60  Code  Gb  FAT_GetFileClusterSectorInfo.o [1]
FS_Read                 0x80158890        0x4  Code  Gb  FS_Read.o [1]
FS_Remove               0x8011c4c0        0x4  Code  Gb  FS_Misc.o [1]
FS_Rename               0x8015bf84       0x64  Code  Gb  FS_Rename.o [1]
FS_SDMMC_Driver         0x801dd56c       0x28  Data  Gb  SD_MMC_Drive.o [1]
FS_STORAGE_Init         0x80145cac       0x40  Code  Gb  FS_Core.o [1]
FS_SetFileAttributes    0x8011cb70        0x4  Code  Gb  FS_Attrib.o [1]
FS_StoreU16LE           0x80145c48       0x10  Code  Gb  FS_Core.o [1]
FS_StoreU32LE           0x80145c28       0x20  Code  Gb  FS_Core.o [1]
FS_TimeStampToFileTime  0x8011bc40       0x54  Code  Gb  FS_Time.o [1]
FS_UnmountForced        0x8015f938       0x1c  Code  Gb  FS_Unmount.o [1]
FS_Write                0x8015e9f8        0x4  Code  Gb  FS_Write.o [1]
FS_X_AddDevices         0x8015e808        0x8  Code  Gb  ConfigDrive.o [1]
FS_X_Alloc              0x8015e864       0x3c  Code  Gb  ConfigDrive.o [1]
FS_X_GetTimeDate        0x8015e810       0x54  Code  Gb  ConfigDrive.o [1]
FS_X_OS_Init            0x80143e04       0x4c  Code  Gb  FS_OS.o [1]
FS_X_OS_Lock            0x80143db4       0x28  Code  Gb  FS_OS.o [1]
FS_X_OS_Unlock          0x80143ddc       0x28  Code  Gb  FS_OS.o [1]
FS_X_Panic              0x8015eb50       0x14  Code  Gb  FS_X_Panic.o [1]
FS__AddDevice           0x8011c6f0       0x64  Code  Gb  FS_Volume.o [1]
FS__AddPhysDevice       0x8011c6bc       0x34  Code  Gb  FS_Volume.o [1]
FS__AllocFileHandle     0x8011bf88       0x64  Code  Gb  FS_Misc.o [1]
FS__AllocFileObj        0x8011c014       0x68  Code  Gb  FS_Misc.o [1]
FS__AllocSectorBuffer   0x801458c4       0x5c  Code  Gb  FS_Core.o [1]
FS__AutoMount           0x8011c9a8       0x58  Code  Gb  FS_Volume.o [1]
FS__AutoMountNL         0x8011ca00       0x2c  Code  Gb  FS_Volume.o [1]
FS__CACHE_CommandDevice
                        0x8014b470       0x38  Code  Gb  FS_AssignCache.o [1]
FS__CACHE_CommandDeviceNL
                        0x8014b43c       0x34  Code  Gb  FS_AssignCache.o [1]
FS__CACHE_CommandVolume
                        0x8014b4a8       0x20  Code  Gb  FS_AssignCache.o [1]
FS__CopyFile            0x80145700      0x150  Code  Gb  FS_CopyFile.o [1]
FS__DivideU32Up         0x80145890        0xc  Code  Gb  FS_Core.o [1]
FS__FAT_Move            0x8014546c      0x1c0  Code  Gb  FAT_Move.o [1]
FS__FClose              0x8011c0f0       0xc4  Code  Gb  FS_Misc.o [1]
FS__FCloseNL            0x8011c0b8       0x38  Code  Gb  FS_Misc.o [1]
FS__FOpen               0x8011c470       0x4c  Code  Gb  FS_Misc.o [1]
FS__FOpenEx             0x8011c3d0       0xa0  Code  Gb  FS_Misc.o [1]
FS__FSeek               0x8011c220       0x3c  Code  Gb  FS_Misc.o [1]
FS__FindClose           0x8011bef8       0x20  Code  Gb  FS_Dir.o [1]
FS__FindFirstFile       0x8011bddc       0x64  Code  Gb  FS_Dir.o [1]
FS__FindFirstFileEx     0x8011bce0       0xfc  Code  Gb  FS_Dir.o [1]
FS__FindNextFile        0x8011be40       0xb8  Code  Gb  FS_Dir.o [1]
FS__FindVolume          0x8011c754       0xf0  Code  Gb  FS_Volume.o [1]
FS__Format              0x8015f954       0x5c  Code  Gb  FS_Format.o [1]
FS__FreeFileHandle      0x8011bfec       0x28  Code  Gb  FS_Misc.o [1]
FS__FreeFileObj         0x8011c084       0x34  Code  Gb  FS_Misc.o [1]
FS__FreeSectorBuffer    0x80145920       0x50  Code  Gb  FS_Core.o [1]
FS__GetFileAttributes   0x8011cafc       0x74  Code  Gb  FS_Attrib.o [1]
FS__GetFileSize         0x80158790       0x30  Code  Gb  FS_GetFileSize.o [1]
FS__GetFileTimeEx       0x8011bb1c       0x90  Code  Gb  FS_Time.o [1]
FS__GetMediaStartSecEx  0x8015ea78       0xd8  Code  Gb  FS_Partition.o [1]
FS__GetVolumeInfo       0x8011c894       0x48  Code  Gb  FS_Volume.o [1]
FS__GetVolumeInfoEx     0x8011c844       0x50  Code  Gb  FS_Volume.o [1]
FS__GetVolumeStatus     0x8011c684       0x38  Code  Gb  FS_Volume.o [1]
FS__IoCtlNL             0x8011c25c       0x94  Code  Gb  FS_Misc.o [1]
FS__LocatePartition     0x80145ba4       0x58  Code  Gb  FS_Core.o [1]
FS__MaxSectorSize       0x83fc8e80        0x4  Data  Gb  FS_Core.o [1]
FS__MkDir               0x8011bc94       0x4c  Code  Gb  FS_Dir.o [1]
FS__Mount               0x8011c964       0x44  Code  Gb  FS_Volume.o [1]
FS__MountNL             0x8011c928       0x3c  Code  Gb  FS_Volume.o [1]
FS__OpenEx              0x8011c334       0x9c  Code  Gb  FS_Misc.o [1]
FS__Read                0x801587c4       0xcc  Code  Gb  FS_Read.o [1]
FS__Remove              0x8011c2f0       0x44  Code  Gb  FS_Misc.o [1]
FS__SB_Clean            0x80145a0c        0x4  Code  Gb  FS_Core.o [1]
FS__SB_Create           0x801459ac       0x48  Code  Gb  FS_Core.o [1]
FS__SB_Delete           0x801459f4       0x18  Code  Gb  FS_Core.o [1]
FS__SB_Flush            0x80145970       0x3c  Code  Gb  FS_Core.o [1]
FS__SB_MarkDirty        0x80145a10        0xc  Code  Gb  FS_Core.o [1]
FS__SB_MarkNotDirty     0x80145a7c        0xc  Code  Gb  FS_Core.o [1]
FS__SB_MarkValid        0x80145a60       0x1c  Code  Gb  FS_Core.o [1]
FS__SB_Read             0x80145a88       0x90  Code  Gb  FS_Core.o [1]
FS__SB_SetSector        0x80145a1c       0x44  Code  Gb  FS_Core.o [1]
FS__SB_Write            0x80145b18       0x50  Code  Gb  FS_Core.o [1]
FS__SetEndOfFile        0x8015e8b0       0x48  Code  Gb  FS_SetEndOfFile.o [1]
FS__SetFileAttributes   0x8011caa4       0x58  Code  Gb  FS_Attrib.o [1]
FS__SetFileTimeEx       0x8011bbac       0x8c  Code  Gb  FS_Time.o [1]
FS__UnmountForced       0x8015f918       0x20  Code  Gb  FS_Unmount.o [1]
FS__UnmountForcedNL     0x8015f840       0xd4  Code  Gb  FS_Unmount.o [1]
FS__Write               0x8015e8f8      0x100  Code  Gb  FS_Write.o [1]
FS__aFileObj            0x83feac9c      0x240  Data  Gb  FS_Misc.o [1]
FS__aFilehandle         0x83fec0f4       0xc0  Data  Gb  FS_Misc.o [1]
FS__aVolume             0x83fec31c       0xa8  Data  Gb  FS_Volume.o [1]
FS__strchr              0x8014589c       0x28  Code  Gb  FS_Core.o [1]
FallbackScaling         0x801ae23c      0x184  Code  Gb  h264hwd_seq_param_set.o [1]
FilterMotion            0x801bed70      0x2d0  Code  Lc  vidstabalg.o [1]
FindDpbPic              0x801a586c       0xd4  Code  Lc  h264hwd_dpb.o [1]
FindSmallestPicOrderCnt
                        0x801a5bf0       0x6c  Code  Lc  h264hwd_dpb.o [1]
FormatProcessInfo       0x83fed10c       0x28  Data  Lc  app_format.o [1]
Frame_Height            0x83fc8cb4       0x20  Data  Gb  descript_def.o [1]
Frame_Width             0x83fc8c94       0x20  Data  Gb  descript_def.o [1]
Fs_AltSet               0x83fc8e94        0xc  Data  Gb  SensorCommon.o [1]
GPIOIntHander           0x8012b484      0x158  Code  Lc  gpio.o [1]
GPIO_IRQ_Request        0x8012b1b4      0x1f0  Code  Gb  gpio.o [1]
Gain_predict            0x80190994       0xbc  Code  Gb  gainpred.o [13]
Gain_update             0x80190a50       0x68  Code  Gb  gainpred.o [13]
Gain_update_erasure     0x80190ab8       0x7c  Code  Gb  gainpred.o [13]
Gauss                   0x80174068       0x44  Code  Gb  mul64_op.o [12]
GetAHB_CLK              0x80141eb8       0x64  Code  Gb  CpuClkCounter.o [1]
GetAPB_CLK              0x80141f1c       0x28  Code  Gb  CpuClkCounter.o [1]
GetAUDPLLFrequency      0x80141e2c       0x74  Code  Gb  CpuClkCounter.o [1]
GetAspectRatioIdc       0x801bcba0      0x118  Code  Lc  H264SequenceParameterSet.o [1]
GetCLK240MFrequency     0x80141eb0        0x8  Code  Gb  CpuClkCounter.o [1]
GetCPUPLLFrequency      0x80141d44       0x74  Code  Gb  CpuClkCounter.o [1]
GetCPU_CLK              0x80141f44       0x5c  Code  Gb  CpuClkCounter.o [1]
GetCardInfo             0x8011f5e4      0x204  Code  Lc  sdmmc.o [1]
GetDDRIICLK             0x80142004       0x68  Code  Gb  CpuClkCounter.o [1]
GetDaysInMonth          0x80129f74       0x84  Code  Gb  rtc.o [1]
GetDecRegister          0x8016bf08       0x58  Code  Gb  regdrv.o [1]
GetDpbSize              0x801aec30      0x158  Code  Lc  h264hwd_seq_param_set.o [1]
GetEXT24ExcryptFrequency
                        0x80141ea0        0x8  Code  Gb  CpuClkCounter.o [1]
GetEXTRTCFrequency      0x80141ea8        0x8  Code  Gb  CpuClkCounter.o [1]
GetFileInfo             0x80106c38       0xa8  Code  Lc  target.o [1]
GetFreeHarewareTimerNode
                        0x8012a6a8       0x1c  Code  Lc  hardtimer_task.o [1]
GetGPIOPadData          0x8012b970       0xb4  Code  Gb  gpio.o [1]
GetH264DecoderFrequency
                        0x80142204       0x60  Code  Gb  CpuClkCounter.o [1]
GetH264EncoderFrequency
                        0x801421a4       0x60  Code  Gb  CpuClkCounter.o [1]
GetISPFrequency         0x8014206c       0x64  Code  Gb  CpuClkCounter.o [1]
GetIconResource         0x8013aa20      0x154  Code  Lc  xm_icon_manage.o [1]
GetInterNeighbour       0x801b7688       0x24  Code  Lc  h264hwd_inter_prediction.o [1]
GetIntraNeighbour       0x801b72dc       0x24  Code  Lc  h264hwd_intra_prediction.o [1]
GetMMC_SPEC             0x8011f870       0x14  Code  Lc  sdmmc.o [1]
GetNext                 0x801bbb3c       0x48  Code  Lc  EncGetOption.o [1]
GetOneKey               0x8016575c      0x35c  Code  Lc  xm_tester_script.o [1]
GetPoc                  0x801a3b44       0x44  Code  Lc  h264hwd_dpb.o [1]
GetSD_SPEC              0x8011f864        0xc  Code  Lc  sdmmc.o [1]
GetSYSPLLFrequency      0x80141db8       0x74  Code  Gb  CpuClkCounter.o [1]
GetScalarFrequency      0x8014213c       0x68  Code  Gb  CpuClkCounter.o [1]
GetSensorMCLK           0x801420d0       0x6c  Code  Gb  CpuClkCounter.o [1]
GetSettings             0x801b1cc4      0x2f4  Code  Lc  refbuffer.o [1]
GetVideoLayerSourceFormat
                        0x80139a38       0x84  Code  Gb  arkn141_scale.o [1]
GetXCLK                 0x80141fa0       0x64  Code  Gb  CpuClkCounter.o [1]
Get_Card_SrcClk         0x8011f470        0x8  Code  Gb  sdmmc.o [1]
Get_decfreq_prev        0x80180b8c       0x38  Code  Gb  lspdec.o [13]
Get_lsp_pol             0x80173ab8       0x9c  Code  Gb  mul64_op.o [12]
GifInfo                 0x83f7e800     0x5844  Data  Lc  gif.o [1]
GifInfo                 0x83f84044     0x5828  Data  Lc  xm_osd_layer_gif.o [1]
H264AddNaluSize         0x801bb6f4       0x44  Code  Lc  H264EncApi.o [1]
H264AfterPicRc          0x801bd470      0x20c  Code  Gb  H264RateControl.o [1]
H264BeforePicRc         0x801bd67c      0x30c  Code  Gb  H264RateControl.o [1]
H264BufferStatus        0x801bf968       0x2c  Code  Lc  H264PutBits.o [1]
H264BufferingSei        0x801bfcc8       0xa8  Code  Gb  H264Sei.o [1]
H264CabacInit           0x80195ac4      0x114  Code  Gb  H264Cabac.o [1]
H264CacheFileClose      0x8013e95c      0x134  Code  Gb  xm_h264_cache_file.o [1]
H264CacheFileOpen       0x8013e8fc       0x60  Code  Gb  xm_h264_cache_file.o [1]
H264CacheFileRead       0x8013eb74       0x18  Code  Gb  xm_h264_cache_file.o [1]
H264CacheFileSeek       0x8013ea94       0xe0  Code  Gb  xm_h264_cache_file.o [1]
H264CacheFileWrite      0x8013eb8c      0x450  Code  Gb  xm_h264_cache_file.o [1]
H264Calculate           0x801be018      0x118  Code  Gb  H264RateControl.o [1]
H264CheckCfg            0x801bbbe0      0x174  Code  Gb  H264Init.o [1]
H264CodeFrame           0x801c0914      0x338  Code  Gb  H264CodeFrame.o [1]
H264DecDecode           0x801a670c      0xdb8  Code  Gb  h264decapi.o [1]
H264DecGetAPIVersion    0x801a74c4       0x10  Code  Gb  h264decapi.o [1]
H264DecGetBuild         0x801a74d4       0xf8  Code  Gb  h264decapi.o [1]
H264DecGetInfo          0x801a6488      0x1a0  Code  Gb  h264decapi.o [1]
H264DecInit             0x801a6198      0x2f0  Code  Gb  h264decapi.o [1]
H264DecNextPicture      0x801a75cc      0x66c  Code  Gb  h264decapi.o [1]
H264DecRelease          0x801a6628       0xe4  Code  Gb  h264decapi.o [1]
H264EncGetApiVersion    0x801b9ba0       0x10  Code  Gb  H264EncApi.o [1]
H264EncGetBuild         0x801b9bb0       0x20  Code  Gb  H264EncApi.o [1]
H264EncGetCodingCtrl    0x801ba0ac      0x1e4  Code  Gb  H264EncApi.o [1]
H264EncGetPreProcessing
                        0x801baa74       0xa0  Code  Gb  H264EncApi.o [1]
H264EncGetRateCtrl      0x801ba610       0xe8  Code  Gb  H264EncApi.o [1]
H264EncInit             0x801b9bd0       0xb0  Code  Gb  H264EncApi.o [1]
H264EncRelease          0x801b9c80       0x34  Code  Gb  H264EncApi.o [1]
H264EncSetCodingCtrl    0x801b9cb4      0x3f8  Code  Gb  H264EncApi.o [1]
H264EncSetPreProcessing
                        0x801ba748      0x32c  Code  Gb  H264EncApi.o [1]
H264EncSetRateCtrl      0x801ba290      0x374  Code  Gb  H264EncApi.o [1]
H264EncSetSeiUserData   0x801bab14       0x78  Code  Gb  H264EncApi.o [1]
H264EncStrmEncode       0x801bae3c      0x7b8  Code  Gb  H264EncApi.o [1]
H264EncStrmEnd          0x801bb5f4      0x100  Code  Gb  H264EncApi.o [1]
H264EncStrmStart        0x801bab8c      0x2b0  Code  Gb  H264EncApi.o [1]
H264EndOfSequence       0x801bcdb8       0x18  Code  Gb  H264SequenceParameterSet.o [1]
H264ExpGolombSigned     0x801bfa40       0x2c  Code  Gb  H264PutBits.o [1]
H264ExpGolombUnsigned   0x801bf994       0xac  Code  Gb  H264PutBits.o [1]
H264FillerNALU          0x801c08b4       0x60  Code  Gb  H264NalUnit.o [1]
H264FillerRc            0x801bd2b4       0x8c  Code  Gb  H264RateControl.o [1]
H264FlushRegs           0x801aacf4       0x44  Code  Lc  h264hwd_asic.o [1]
H264GetAllowedWidth     0x801bc344       0x40  Code  Gb  H264Init.o [1]
H264GetLevelIndex       0x801bccb8       0x3c  Code  Gb  H264SequenceParameterSet.o [1]
H264Init                0x801bbd54      0x190  Code  Gb  H264Init.o [1]
H264InitRc              0x801bcec8      0x330  Code  Gb  H264RateControl.o [1]
H264InitRefPicList      0x801ab7e8      0x2fc  Code  Gb  h264hwd_asic.o [1]
H264InitRefPicList1     0x801ab2e0      0x298  Code  Gb  h264hwd_asic.o [1]
H264InitRefPicList1F    0x801ab578      0x270  Code  Gb  h264hwd_asic.o [1]
H264InitSei             0x801bfaa8       0xec  Code  Gb  H264Sei.o [1]
H264LevelIdc            0x801bcdd8       0x3c  Data  Gb  H264SequenceParameterSet.o [1]
H264MadInit             0x801c0220       0x54  Code  Gb  H264Mad.o [1]
H264MadThreshold        0x801c0554      0x218  Code  Gb  H264Mad.o [1]
H264MaxBR               0x801bce8c       0x3c  Data  Gb  H264SequenceParameterSet.o [1]
H264MaxCPBS             0x801bce14       0x3c  Data  Gb  H264SequenceParameterSet.o [1]
H264MaxFS               0x801bce50       0x3c  Data  Gb  H264SequenceParameterSet.o [1]
H264NalUnitHdr          0x801c076c       0x9c  Code  Gb  H264NalUnit.o [1]
H264NalUnitHdrMvcExtension
                        0x801c0808       0xa0  Code  Gb  H264NalUnit.o [1]
H264NalUnitTrailinBits  0x801c08a8        0xc  Code  Gb  H264NalUnit.o [1]
H264PicParameterSet     0x801c00e8      0x138  Code  Gb  H264PictureParameterSet.o [1]
H264PicParameterSetInit
                        0x801c005c       0x8c  Code  Gb  H264PictureParameterSet.o [1]
H264PicTimingSei        0x801bfe44      0x164  Code  Gb  H264Sei.o [1]
H264PrefixNal           0x801bb738       0x7c  Code  Lc  H264EncApi.o [1]
H264PrepareCabacInitTables
                        0x801abb90       0x18  Code  Lc  h264hwd_asic.o [1]
H264PutBits             0x801bf7a8       0x80  Code  Gb  H264PutBits.o [1]
H264PutNalBits          0x801bf828       0xd0  Code  Gb  H264PutBits.o [1]
H264RbspTrailingBits    0x801bfa6c       0x3c  Code  Gb  H264PutBits.o [1]
H264RefreshRegs         0x801aacb0       0x44  Code  Lc  h264hwd_asic.o [1]
H264RunAsic             0x801a9b1c      0xdbc  Code  Gb  h264hwd_asic.o [1]
H264SeqParameterSet     0x801bc458      0x204  Code  Gb  H264SequenceParameterSet.o [1]
H264SeqParameterSetInit
                        0x801bc384       0xd4  Code  Gb  H264SequenceParameterSet.o [1]
H264SetBuffer           0x801bf8f8       0x70  Code  Gb  H264PutBits.o [1]
H264SetNewFrame         0x801c0c5c      0x51c  Code  Lc  H264CodeFrame.o [1]
H264SetupVlcRegs        0x801aad38      0x5a8  Code  Gb  h264hwd_asic.o [1]
H264Shutdown            0x801bbee4       0x2c  Code  Gb  H264Init.o [1]
H264SliceInit           0x801c1640       0x74  Code  Gb  H264Slice.o [1]
H264SpsGetVuiHrdBitRate
                        0x801bcda8        0x8  Code  Gb  H264SequenceParameterSet.o [1]
H264SpsGetVuiHrdCpbSize
                        0x801bcdb0        0x8  Code  Gb  H264SequenceParameterSet.o [1]
H264SpsSetVuiAspectRatio
                        0x801bcd28       0x1c  Code  Gb  H264SequenceParameterSet.o [1]
H264SpsSetVuiHrd        0x801bcd44       0x54  Code  Gb  H264SequenceParameterSet.o [1]
H264SpsSetVuiHrdBitRate
                        0x801bcd98        0x8  Code  Gb  H264SequenceParameterSet.o [1]
H264SpsSetVuiHrdCpbSize
                        0x801bcda0        0x8  Code  Gb  H264SequenceParameterSet.o [1]
H264SpsSetVuiPictStructPresentFlag
                        0x801bcdd0        0x8  Code  Gb  H264SequenceParameterSet.o [1]
H264SpsSetVuiTimigInfo  0x801bccf4       0x1c  Code  Gb  H264SequenceParameterSet.o [1]
H264SpsSetVuiVideoInfo  0x801bcd10       0x18  Code  Gb  H264SequenceParameterSet.o [1]
H264SubsetSeqParameterSet
                        0x801bc6b0       0x84  Code  Gb  H264SequenceParameterSet.o [1]
H264UpdateSeiTS         0x801bfb94      0x134  Code  Gb  H264Sei.o [1]
H264UserDataUnregSei    0x801bffa8       0xb4  Code  Gb  H264Sei.o [1]
HEAP$$Base              0x803000d8              --   Gb  - Linker created -
HEAP$$Limit             0x814000d8              --   Gb  - Linker created -
HONGJING_socket_Task    0x8014bcb4      0x250  Code  Lc  hongjing_uart_socket.o [1]
HQualifierData          0x83fc8ea0        0xc  Data  Gb  descript.o [1]
HWND_AlbumListView_WindowProc
                        0x801d7914       0x68  Code  Gb  app_albumlistview.o [1]
HWND_AlbumView_WindowProc
                        0x801d13a0       0x74  Code  Gb  app_albumview.o [1]
HWND_AlertView_WindowProc
                        0x80175be4       0x80  Code  Gb  alert_view.o [1]
HWND_DateTimeSetting_WindowProc
                        0x801d67ec       0x50  Code  Gb  app_datetimesetting.o [1]
HWND_Desktop_WindowProc
                        0x80164804       0x44  Code  Gb  desktop.o [1]
HWND_MenuOptionView_WindowProc
                        0x801cd1d4       0x74  Code  Gb  app_menuoptionview.o [1]
HWND_MessageView_WindowProc
                        0x80189030       0x5c  Code  Gb  app_messageview.o [1]
HWND_OkCancelView_WindowProc
                        0x801889f4       0x68  Code  Gb  app_okcancelview.o [1]
HWND_ProcessView_WindowProc
                        0x801cef84       0x68  Code  Gb  app_processview.o [1]
HWND_RecycleVideoAlertView_WindowProc
                        0x80176d30       0x68  Code  Gb  recycle_video_alert_view.o [1]
HWND_RecycleView_WindowProc
                        0x801d5e50       0x5c  Code  Gb  app_recycleview.o [1]
HWND_SettingView_WindowProc
                        0x801cc190       0x80  Code  Gb  app_settingview.o [1]
HWND_SoundVolumeView_WindowProc
                        0x801775e8       0x50  Code  Gb  app_soundvolumeview.o [1]
HWND_SystemSettingView_WindowProc
                        0x801cd9e0       0x74  Code  Gb  app_systemsettingview.o [1]
HWND_SystemVersionView_WindowProc
                        0x801dd848       0x50  Code  Gb  app_systemversionview.o [1]
HWND_VideoListView_WindowProc
                        0x801d2d98       0x68  Code  Gb  app_videolistview.o [1]
HWND_VideoSettingView_WindowProc
                        0x801d4af8       0x74  Code  Gb  app_videosettingview.o [1]
HWND_VideoView_WindowProc
                        0x801d22cc       0x74  Code  Gb  app_videoview.o [1]
HW_LCD_BackLightOn      0x80141bc4        0x4  Code  Gb  tv_ntsc.o [1]
HW_LCD_Exit             0x8014346c       0x3c  Code  Gb  lcdc_rgb.o [1]
HW_lcdc_exit            0x80119a74       0xa8  Code  Gb  hw_osd_layer_iar.o [1]
HW_lcdc_get_xdots       0x80119b1c       0x30  Code  Gb  hw_osd_layer_iar.o [1]
HW_lcdc_get_ydots       0x80119b4c       0x30  Code  Gb  hw_osd_layer_iar.o [1]
HW_lcdc_init            0x80119934      0x140  Code  Gb  hw_osd_layer_iar.o [1]
HW_lcdc_interrupt_handler
                        0x8011a190       0x28  Code  Gb  hw_osd_layer_iar.o [1]
HW_lcdc_osd_set_brightness_coeff
                        0x8011a06c       0x58  Code  Gb  hw_osd_layer_iar.o [1]
HW_lcdc_osd_set_callback
                        0x8011a134       0x5c  Code  Gb  hw_osd_layer_iar.o [1]
HW_lcdc_osd_set_enable  0x80119b84       0xa4  Code  Gb  hw_osd_layer_iar.o [1]
HW_lcdc_osd_set_format  0x80119cf0       0x58  Code  Gb  hw_osd_layer_iar.o [1]
HW_lcdc_osd_set_global_coeff
                        0x80119c98       0x58  Code  Gb  hw_osd_layer_iar.o [1]
HW_lcdc_osd_set_global_coeff_enable
                        0x80119c2c       0x40  Code  Gb  hw_osd_layer_iar.o [1]
HW_lcdc_osd_set_h_position
                        0x80119e78       0x88  Code  Gb  hw_osd_layer_iar.o [1]
HW_lcdc_osd_set_height  0x80119de0       0x98  Code  Gb  hw_osd_layer_iar.o [1]
HW_lcdc_osd_set_left_position
                        0x80119f80       0x54  Code  Gb  hw_osd_layer_iar.o [1]
HW_lcdc_osd_set_stride  0x80119fd4       0x98  Code  Gb  hw_osd_layer_iar.o [1]
HW_lcdc_osd_set_v_position
                        0x80119f00       0x80  Code  Gb  hw_osd_layer_iar.o [1]
HW_lcdc_osd_set_width   0x80119d48       0x98  Code  Gb  hw_osd_layer_iar.o [1]
HW_lcdc_osd_set_yuv_addr
                        0x8011a0c4       0x70  Code  Gb  hw_osd_layer_iar.o [1]
HW_lcdc_reset_vsyn_event
                        0x8011a308        0x8  Code  Gb  hw_osd_layer_iar.o [1]
HW_lcdc_set_background_color
                        0x80119c6c       0x2c  Code  Gb  hw_osd_layer_iar.o [1]
HW_lcdc_set_backlight_on
                        0x8011a1d8       0x68  Code  Gb  hw_osd_layer_iar.o [1]
HW_lcdc_set_display_on  0x8011a1b8       0x20  Code  Gb  hw_osd_layer_iar.o [1]
HW_lcdc_set_osd_coef_syn
                        0x8011a240       0x68  Code  Gb  hw_osd_layer_iar.o [1]
HW_lcdc_set_vsyn_event  0x8011a310        0x8  Code  Gb  hw_osd_layer_iar.o [1]
HW_tv_ntsc_init         0x80141bb4       0x10  Code  Gb  tv_ntsc.o [1]
HW_tv_pal_init          0x8014345c       0x10  Code  Gb  tv_pal.o [1]
HardwareTimerTigger     0x8012a6c4       0x9c  Code  Gb  hardtimer_task.o [1]
HexToChar               0x80128cc0       0x24  Code  Gb  uart.o [1]
Hs_AltSet               0x83fc8f90        0x8  Data  Gb  SensorCommon.o [1]
HybridSema              0x83fed204       0x14  Data  Lc  xm_hybrid_stream.o [1]
I2C_WRITE               0x8016f2a8       0x10  Code  Lc  ar0238.o [1]
IRQ_Handler             0x80138294             Code  Gb  rtos.o [10]
IRQ_STACK$$Base         0x83fb3000              --   Gb  - Linker created -
IRQ_STACK$$Limit        0x83fb4000              --   Gb  - Linker created -
ISOwkyr                 0x8015fc05       0xbe  Code  Lc  xgentime.o [4]
InLine                  0x83f76800     0x8000  Data  Lc  xm_tester_script.o [1]
InitDeditheringTimer    0x80122118       0x34  Code  Lc  sdmmc.o [1]
InitGPIO                0x8012b17c       0x38  Code  Gb  gpio.o [1]
InitHardwareTimers      0x8012a644       0x64  Code  Lc  hardtimer_task.o [1]
InitMemAccess           0x801b1a98       0x7c  Code  Gb  refbuffer.o [1]
InitSDMMCCard           0x80121fb8       0x8c  Code  Gb  sdmmc.o [1]
InitSystemBasicService  0x8012643c       0x34  Code  Lc  main.o [1]
Init_Dec_cng            0x801740c8       0x14  Code  Gb  dec_sid.o [13]
Init_Decod_ld8k         0x80172014       0x70  Code  Gb  dec_ld8k.o [13]
Init_Post_Filter        0x8017261c       0x94  Code  Gb  pst.o [12]
Init_Post_Process       0x80173ce8       0x1c  Code  Gb  mul64_op.o [12]
Init_exc_err            0x80190cf4       0x24  Code  Gb  taming.o [13]
Init_lsfq_noise         0x80174378       0xa0  Code  Gb  dec_sid.o [13]
InitialQp               0x801bd1f8       0xb8  Code  Lc  H264RateControl.o [1]
InsertCacheBlockToTail  0x8013e290       0x78  Code  Lc  xm_h264_cache_file.o [1]
Int_lpc                 0x8018112c       0x8c  Code  Gb  lpcfunc.o [13]
Int_qlpc                0x801810bc       0x70  Code  Gb  lpcfunc.o [13]
InterpolateMotion       0x801bf040      0x23c  Code  Lc  vidstabalg.o [1]
Intra16x16Prediction    0x801b6b34      0x22c  Code  Lc  h264hwd_intra_prediction.o [1]
Intra4x4Prediction      0x801b6d60      0x4a4  Code  Lc  h264hwd_intra_prediction.o [1]
IntraFrame              0x801b19ac       0x34  Code  Lc  refbuffer.o [1]
Inv_sqrt                0x80190c4c       0x9c  Code  Gb  dspfunc.o [13]
IsCardExist             0x8011f3d4       0x30  Code  Gb  sdmmc.o [1]
IsExisting              0x801a38cc       0x80  Code  Lc  h264hwd_dpb.o [1]
IsInited                0x83fed2f4        0x1  Data  Lc  OS_Alloc.o [10]
IsLongTerm              0x801a3a10       0x58  Code  Lc  h264hwd_dpb.o [1]
IsLongTermField         0x801a3a68       0x2c  Code  Lc  h264hwd_dpb.o [1]
IsReference             0x801a37cc       0xbc  Code  Lc  h264hwd_dpb.o [1]
IsReferenceField        0x801a3888       0x44  Code  Lc  h264hwd_dpb.o [1]
IsShortTerm             0x801a394c       0x80  Code  Lc  h264hwd_dpb.o [1]
IsShortTermField        0x801a39cc       0x44  Code  Lc  h264hwd_dpb.o [1]
IsUnused                0x801a3a94       0x58  Code  Lc  h264hwd_dpb.o [1]
IsValidWindow           0x80151e74       0x54  Code  Lc  xm_win_user.o [1]
IspSema                 0x83fed340       0x14  Data  Lc  Gem_isp.o [1]
IspTicketCallback       0x8012fca8       0x1c  Code  Lc  Gem_isp.o [1]
IspTimer                0x83fc7650       0x14  Data  Lc  Gem_isp.o [1]
JLink_System_Update     0x80126438        0x4  Code  Lc  main.o [1]
JpegCameraFrameTransfer
                        0x8013c660      0x1e8  Code  Lc  jpeg_task.o [1]
JpegCloseEncoder        0x8015b26c       0x30  Code  Gb  arkn141_jpeg_encoder.o [1]
JpegDecAllocateResidual
                        0x8017bc48      0x2cc  Code  Gb  jpegdecinternal.o [1]
JpegDecChromaTableSelectors
                        0x8017d5fc      0x258  Code  Lc  jpegdecinternal.o [1]
JpegDecClearStructs     0x8017a9b4      0x5d4  Code  Gb  jpegdecinternal.o [1]
JpegDecDecode           0x8016a774     0x1638  Code  Gb  jpegdecapi.o [1]
JpegDecDecodeFrameHdr   0x8017f6ec      0x4a8  Code  Gb  jpegdechdrs.o [1]
JpegDecDecodeHuffmanTables
                        0x8017fc9c      0x268  Code  Gb  jpegdechdrs.o [1]
JpegDecDecodeQuantTables
                        0x8017fb94      0x108  Code  Gb  jpegdechdrs.o [1]
JpegDecDecodeScan       0x80180384       0x70  Code  Gb  jpegdecscan.o [1]
JpegDecDecodeScanHeader
                        0x801803f4      0x594  Code  Gb  jpegdecscan.o [1]
JpegDecFlushBits        0x8017f574      0x178  Code  Gb  jpegdecutils.o [1]
JpegDecGet2Bytes        0x8017f4f8       0x7c  Code  Gb  jpegdecutils.o [1]
JpegDecGetByte          0x8017f494       0x64  Code  Gb  jpegdecutils.o [1]
JpegDecGetImageInfo     0x80168db8     0x19bc  Code  Gb  jpegdecapi.o [1]
JpegDecInit             0x80168948      0x2ac  Code  Gb  jpegdecapi.o [1]
JpegDecInitHW           0x8017af88      0x44c  Code  Gb  jpegdecinternal.o [1]
JpegDecInitHWContinue   0x8017b3d4      0x284  Code  Gb  jpegdecinternal.o [1]
JpegDecInitHWEmptyScan  0x8017ef8c      0x4c8  Code  Gb  jpegdecinternal.o [1]
JpegDecInitHWInputBuffLoad
                        0x8017b658      0x104  Code  Gb  jpegdecinternal.o [1]
JpegDecInitHWProgressiveContinue
                        0x8017b75c      0x384  Code  Gb  jpegdecinternal.o [1]
JpegDecMode             0x8017ff04      0x480  Code  Gb  jpegdechdrs.o [1]
JpegDecNextScanHdrs     0x8017eb14      0x3c0  Code  Gb  jpegdecinternal.o [1]
JpegDecPreparePp        0x8016bdac       0xac  Code  Lc  jpegdecapi.o [1]
JpegDecRelease          0x80168bf4      0x1c4  Code  Gb  jpegdecapi.o [1]
JpegDecSetHwStrmParams  0x8017bae0      0x168  Code  Lc  jpegdecinternal.o [1]
JpegDecSliceSizeCalculation
                        0x8017bf14       0x74  Code  Gb  jpegdecinternal.o [1]
JpegDecWriteLenBits     0x8017d854      0x454  Code  Lc  jpegdecinternal.o [1]
JpegDecWriteLenBitsNonInterleaved
                        0x8017dca8      0x26c  Code  Lc  jpegdecinternal.o [1]
JpegDecWriteLenBitsProgressive
                        0x8017df14      0xc00  Code  Lc  jpegdecinternal.o [1]
JpegDecWriteTables      0x8017bf88     0x102c  Code  Lc  jpegdecinternal.o [1]
JpegDecWriteTablesNonInterleaved
                        0x8017cfb4      0x2fc  Code  Lc  jpegdecinternal.o [1]
JpegDecWriteTablesProgressive
                        0x8017d2b0      0x34c  Code  Lc  jpegdecinternal.o [1]
JpegEncEncode           0x80168220      0x45c  Code  Gb  JpegEncApi.o [1]
JpegEncGetApiVersion    0x80167e2c       0x10  Code  Gb  JpegEncApi.o [1]
JpegEncGetBuild         0x80167e3c       0x20  Code  Gb  JpegEncApi.o [1]
JpegEncInit             0x80167e5c      0x194  Code  Gb  JpegEncApi.o [1]
JpegEncRelease          0x80167ff0       0x34  Code  Gb  JpegEncApi.o [1]
JpegEncSetPictureSize   0x80168024      0x1fc  Code  Gb  JpegEncApi.o [1]
JpegFlushRegs           0x8017ef14       0x4c  Code  Gb  jpegdecinternal.o [1]
JpegInit                0x80179274      0x1c4  Code  Gb  EncJpegInit.o [1]
JpegRefreshRegs         0x8017eed4       0x40  Code  Gb  jpegdecinternal.o [1]
JpegSema                0x83fc7dbc       0x14  Data  Lc  jpeg_task.o [1]
JpegShutdown            0x80179438       0x28  Code  Gb  EncJpegInit.o [1]
JpegTicketCallback      0x8013c640       0x20  Code  Lc  jpeg_task.o [1]
JpegTimer               0x83fecc74       0x14  Data  Lc  jpeg_task.o [1]
KeyBPos                 0x83fec72c        0x1  Data  Lc  xm_kbd_drv.o [1]
KeyBuffer               0x83fec730       0x80  Data  Lc  xm_kbd_drv.o [1]
KeyCount                0x83fb607c        0x4  Data  Lc  xm_tester_script.o [1]
KeyEPos                 0x83fec72d        0x1  Data  Lc  xm_kbd_drv.o [1]
Keys                    0x83fdff34     0x19c8  Data  Lc  xm_tester_script.o [1]
LCD_Layer_Clr           0x80118c30       0x54  Code  Gb  lcd.o [1]
LCD_Layer_Get_Mode      0x80119158       0x6c  Code  Gb  lcd.o [1]
LCD_Layer_Open          0x80118cd4       0x40  Code  Gb  lcd.o [1]
LCD_Layer_Set           0x80118bdc       0x54  Code  Gb  lcd.o [1]
LCD_Layer_Set_Mode      0x801190b0       0xa8  Code  Gb  lcd.o [1]
LCD_Layer_fill_address  0x8011905c       0x54  Code  Gb  lcd.o [1]
LCD_Layer_h_position    0x80118e8c       0x2c  Code  Gb  lcd.o [1]
LCD_Layer_set_brightness_coeff
                        0x80118e20       0x6c  Code  Gb  lcd.o [1]
LCD_Layer_set_global_coeff
                        0x80118ee8       0x6c  Code  Gb  lcd.o [1]
LCD_Layer_set_height    0x80118f84       0x30  Code  Gb  lcd.o [1]
LCD_Layer_set_left_position
                        0x80118da0       0x80  Code  Gb  lcd.o [1]
LCD_Layer_set_stride    0x80118d38       0x68  Code  Gb  lcd.o [1]
LCD_Layer_set_width     0x80118f54       0x30  Code  Gb  lcd.o [1]
LCD_Layer_v_position    0x80118eb8       0x30  Code  Gb  lcd.o [1]
LCD_OSD_Update          0x801418a8       0x18  Code  Gb  lcd.o [1]
LCD_Set_Layer_Alpha     0x80118fb4       0x54  Code  Gb  lcd.o [1]
LCD_Set_Src_Alpha       0x80119008       0x54  Code  Gb  lcd.o [1]
LCD_Set_background_color
                        0x80118d14       0x24  Code  Gb  lcd.o [1]
LCD_layer_State         0x80118c84       0x50  Code  Gb  lcd.o [1]
LCD_set_enable          0x801191c4       0x58  Code  Gb  lcd.o [1]
L_Comp                  0x80181c24        0xc  Code  Gb  oper_32b.o [13]
L_Extract               0x80181bfc       0x28  Code  Gb  oper_32b.o [13]
L_abs                   0x8018171c       0x18  Code  Gb  basic_op.o [13]
L_add                   0x8018133c       0x3c  Code  Gb  basic_op.o [13]
L_add_c                 0x8018140c       0xa0  Code  Gb  basic_op.o [13]
L_exc_err               0x83fed3c4       0x10  Data  Lc  taming.o [13]
L_mac                   0x8018138c       0x24  Code  Gb  basic_op.o [13]
L_macNs                 0x801814ac       0x24  Code  Gb  basic_op.o [13]
L_msu                   0x801813e8       0x24  Code  Gb  basic_op.o [13]
L_msuNs                 0x80181580       0x24  Code  Gb  basic_op.o [13]
L_mult                  0x80181308       0x20  Code  Gb  basic_op.o [13]
L_negate                0x801815a4       0x10  Code  Gb  basic_op.o [13]
L_sat                   0x80181734       0x30  Code  Gb  basic_op.o [13]
L_shl                   0x80181654       0x14  Code  Gb  basic_op.o [13]
L_shr                   0x80181624       0x30  Code  Gb  basic_op.o [13]
L_shr_r                 0x801816dc       0x40  Code  Gb  basic_op.o [13]
L_sub                   0x801813b0       0x38  Code  Gb  basic_op.o [13]
L_sub_c                 0x801814d0       0xb0  Code  Gb  basic_op.o [13]
LangMenuOptionCB        0x801cbd24       0x24  Code  Lc  app_settingview.o [1]
LcdMenuOptionCB         0x801cbd08       0x1c  Code  Lc  app_settingview.o [1]
Lcd_ClkDisable          0x80143624       0x20  Code  Gb  clock.o [1]
Lcd_ClkEnable           0x80143604       0x20  Code  Gb  clock.o [1]
LinearModel             0x801bda4c      0x1c8  Code  Lc  H264RateControl.o [1]
LoadKeyMap              0x80165ddc      0x1b8  Code  Lc  xm_tester_script.o [1]
LoadSystemPackageHeaderFromSpi
                        0x801355ec       0x78  Code  Lc  xm_system_update.o [1]
LocateCacheBlockByFilePosition
                        0x8013e10c       0x94  Code  Lc  xm_h264_cache_file.o [1]
Log2                    0x80190bb8       0x94  Code  Gb  dspfunc.o [13]
LongOption              0x801bb868       0xd0  Code  Lc  EncGetOption.o [1]
Lsf_lsp                 0x80180d98       0x74  Code  Gb  lpcfunc.o [13]
Lsf_lsp2                0x80180ec0       0x8c  Code  Gb  lpcfunc.o [13]
Lsp_Az                  0x80180cc8       0xd0  Code  Gb  lpcfunc.o [13]
Lsp_decw_reset          0x80180a3c       0x50  Code  Gb  lspdec.o [13]
Lsp_expand_1            0x80181fa4       0x68  Code  Gb  lspgetq.o [13]
Lsp_expand_1_2          0x80181e64       0x68  Code  Gb  lspgetq.o [13]
Lsp_expand_2            0x8018200c       0x68  Code  Gb  lspgetq.o [13]
Lsp_get_quant           0x80181ecc       0xd8  Code  Gb  lspgetq.o [13]
Lsp_iqua_cs             0x80180a8c       0xd4  Code  Gb  lspdec.o [13]
Lsp_lsf                 0x80180e0c       0xb4  Code  Gb  lpcfunc.o [13]
Lsp_lsf2                0x80180f4c       0xb8  Code  Gb  lpcfunc.o [13]
Lsp_prev_compose        0x80173b54       0xdc  Code  Gb  mul64_op.o [12]
Lsp_prev_extract        0x80182074       0x94  Code  Gb  lspgetq.o [13]
Lsp_prev_update         0x80181e1c       0x48  Code  Gb  lspgetq.o [13]
Lsp_stability           0x80181d60       0xbc  Code  Gb  lspgetq.o [13]
MAC                     0x801738a4       0x9c  Code  Gb  mul64_op.o [12]
MAX_AUDIO_PAYLOAD_SIZE  0x83fc902c        0x2  Data  Gb  globaldata.o [1]
MAX_MIC_VOLUME          0x83fc9032        0x2  Data  Gb  globaldata.o [1]
MMU_Init                0x80128e50       0x54  Code  Gb  cortex_a5_mmu.o [1]
MMU_Initialize          0x80128d1c      0x124  Code  Gb  cortex_a5_mmu.o [1]
MaAddFrame              0x801b7800       0x50  Code  Lc  arkn141_h264_encoder.o [1]
MainTask                0x80126490       0x58  Code  Lc  main.o [1]
MapAsicRegisters        0x80178b18       0x20  Code  Gb  ewl_x280_common.o [1]
MapFile                 0x83fb62a0       0x10  Data  Gb  xm_tester_script.o [1]
MbQuant                 0x801bd988       0xc4  Code  Lc  H264RateControl.o [1]
MenuID2RomID            0x80182bc0     0x4bf0  Data  Lc  app_menuid.o [1]
MenuOptionViewOnCommand
                        0x801cd068       0x68  Code  Gb  app_menuoptionview.o [1]
MenuOptionViewOnEnter   0x801ccc04       0xe4  Code  Gb  app_menuoptionview.o [1]
MenuOptionViewOnKeyDown
                        0x801ccef0      0x150  Code  Gb  app_menuoptionview.o [1]
MenuOptionViewOnKeyUp   0x801cd040       0x28  Code  Gb  app_menuoptionview.o [1]
MenuOptionViewOnLeave   0x801ccce8       0x58  Code  Gb  app_menuoptionview.o [1]
MenuOptionViewOnPaint   0x801ccd40      0x1b0  Code  Gb  app_menuoptionview.o [1]
MenuOptionViewOnTouchDown
                        0x801cd0d0       0x84  Code  Gb  app_menuoptionview.o [1]
MenuOptionViewOnTouchMove
                        0x801cd1a8       0x28  Code  Gb  app_menuoptionview.o [1]
MenuOptionViewOnTouchUp
                        0x801cd154       0x54  Code  Gb  app_menuoptionview.o [1]
MessageViewOnCommand    0x80188f94       0x5c  Code  Gb  app_messageview.o [1]
MessageViewOnEnter      0x80188d38       0xac  Code  Gb  app_messageview.o [1]
MessageViewOnKeyDown    0x80188f44       0x28  Code  Gb  app_messageview.o [1]
MessageViewOnKeyUp      0x80188f6c       0x28  Code  Gb  app_messageview.o [1]
MessageViewOnLeave      0x80188de4       0x74  Code  Gb  app_messageview.o [1]
MessageViewOnPaint      0x80188e58       0xec  Code  Gb  app_messageview.o [1]
MessageViewOnTimer      0x80188ff0       0x3c  Code  Gb  app_messageview.o [1]
Mmcop1                  0x801a4408       0xe0  Code  Lc  h264hwd_dpb.o [1]
Mmcop2                  0x801a44e8       0x9c  Code  Lc  h264hwd_dpb.o [1]
Mmcop3                  0x801a4584      0x1ac  Code  Lc  h264hwd_dpb.o [1]
Mmcop4                  0x801a4730      0x120  Code  Lc  h264hwd_dpb.o [1]
Mmcop5                  0x801a4850       0x84  Code  Lc  h264hwd_dpb.o [1]
Mmcop6                  0x801a48d4      0x1c0  Code  Lc  h264hwd_dpb.o [1]
MoreRbspTrailingData    0x801ada54       0x2c  Code  Lc  h264hwd_util.o [1]
Mpy_32                  0x80181c30       0x60  Code  Gb  oper_32b.o [13]
Mpy_32_16               0x80181c90       0x38  Code  Gb  oper_32b.o [13]
MvPrediction16x16       0x801b752c       0x30  Code  Lc  h264hwd_inter_prediction.o [1]
MvPrediction16x8        0x801b758c       0x54  Code  Lc  h264hwd_inter_prediction.o [1]
MvPrediction8x16        0x801b75e0       0x54  Code  Lc  h264hwd_inter_prediction.o [1]
MvPrediction8x8         0x801b7634       0x54  Code  Lc  h264hwd_inter_prediction.o [1]
MvPredictionSkip        0x801b755c       0x30  Code  Lc  h264hwd_inter_prediction.o [1]
N_A_4x4B                0x801addd4       0x30  Data  Lc  h264hwd_neighbour.o [1]
N_B_4x4B                0x801ade04       0x30  Data  Lc  h264hwd_neighbour.o [1]
N_D_4x4B                0x801ade34       0x30  Data  Lc  h264hwd_neighbour.o [1]
NameDirDot              0x80143d9c        0xc  Data  Lc  FAT_Dir.o [1]
NameDirDotDot           0x80143da8        0xc  Data  Lc  FAT_Dir.o [1]
Nand_ClkDisable         0x80143674        0x8  Code  Gb  clock.o [1]
NewHardwareTimer        0x8012a760       0x58  Code  Gb  hardtimer_task.o [1]
NextHeader              0x8017a648       0x18  Code  Lc  EncJpegCodeFrame.o [1]
NumBits                 0x8017ef60       0x2c  Code  Lc  jpegdecinternal.o [1]
NumSliceGroupChangeCycleBits
                        0x801b0454       0x78  Code  Lc  h264hwd_slice_header.o [1]
OK_Cancel_Btn           0x801cf110       0x18  Data  Lc  app_processview.o [1]
OS_ARM_DisableISRSource
                        0x8012ea2c       0x24  Code  Gb  irq.o [1]
OS_ARM_EnableISRSource  0x8012ea04       0x28  Code  Gb  irq.o [1]
OS_ARM_InstallISRHandler
                        0x80112ad4       0xbc  Code  Gb  rtosinit.o [1]
OS_AssertCPUInISRMode   0x80115454       0x40  Code  Gb  OSKERN.o [10]
OS_AssertISROrTask      0x80115394       0x64  Code  Gb  OSKERN.o [10]
OS_AssertTaskMode       0x801153f8       0x5c  Code  Gb  OSKERN.o [10]
OS_CPU_InitExceptVect   0x801129dc       0x60  Code  Gb  rtosinit.o [1]
OS_ChangeTask           0x8011507c      0x318  Code  Gb  OSKERN.o [10]
OS_ClearEvents          0x801401b4       0x7c  Code  Gb  OSEVENCL.o [10]
OS_ClearMB              0x8013064c       0xa8  Code  Gb  OSCMB.o [10]
OS_ClearWaitObj         0x80156d1c       0x60  Code  Gb  OS_Wait.o [10]
OS_ClearWaitObj_FromTask
                        0x80156d80       0x28  Code  Gb  OS_Wait.o [10]
OS_CreateCSema          0x801382dc       0xe0  Code  Gb  OSCSEM.o [10]
OS_CreateMB             0x80135240       0xe8  Code  Gb  OSMAIL.o [10]
OS_CreateRSema          0x801308b8       0xbc  Code  Gb  OSRSEM.o [10]
OS_CreateTaskEx_D       0x801cf128      0x128  Code  Gb  OS_CreateTaskEx.o [10]
OS_CreateTask_D         0x80135330      0x120  Code  Gb  OS_CreateTask.o [10]
OS_CreateTimer          0x80139648       0x9c  Code  Gb  OSTIME.o [10]
OS_CreateTimerEx        0x80143124       0x40  Code  Gb  OSTIMERX.o [10]
OS_DeactivateP          0x80156da8       0x60  Code  Gb  OS_DeactivateP.o [10]
OS_DeactivateTimedP     0x80158d80       0x6c  Code  Gb  OS_DeactivateTP.o [10]
OS_Deactivated          0x801156f4       0x50  Code  Gb  OSKERN.o [10]
OS_Delay                0x8011582c       0x10  Code  Gb  OSKERN.o [10]
OS_DelayUntil           0x801157a4       0x88  Code  Gb  OSKERN.o [10]
OS_DeleteCSema          0x801662f8       0x84  Code  Gb  OSDELCS.o [10]
OS_DeleteRSema          0x80154e40       0xa0  Code  Gb  OSDELRS.o [10]
OS_DeleteTimer          0x8013d354       0x20  Code  Gb  OSTimeD.o [10]
OS_EVENT_Create         0x801434ac       0x28  Code  Gb  OS_EVENT_Create.o [10]
OS_EVENT_Delete         0x80154ee0       0xac  Code  Gb  OS_EVENT_Delete.o [10]
OS_EVENT_Reset          0x801434d4       0x6c  Code  Gb  OS_EVENT_Reset.o [10]
OS_EVENT_Set            0x80143540       0xc4  Code  Gb  OS_EVENT_Set.o [10]
OS_EVENT_Wait           0x80149f8c       0xa4  Code  Gb  OS_EVENT_Wait.o [10]
OS_EVENT_WaitTimed      0x80154d3c      0x104  Code  Gb  OS_EVENT_WaitTimed.o [10]
OS_Error                0x8012eb90       0x74  Code  Gb  OS_Error.o [1]
OS_GetCPUState          0x80138108             Code  Gb  OS_GetCPUState.o [10]
OS_GetCSemaValue        0x80154cd0       0x6c  Code  Gb  OSCSEMGV.o [10]
OS_GetEventsOccurred    0x80135034       0x38  Code  Gb  OSEVENGE.o [10]
OS_GetIntStackBase      0x801380d4        0x8  Code  Gb  OS_STACKINFO_ARM.o [10]
OS_GetIntStackSize      0x801380dc       0x10  Code  Gb  OS_STACKINFO_ARM.o [10]
OS_GetMail1             0x80140358      0x14c  Code  Gb  OSGM1.o [10]
OS_GetMailTimed         0x801368d0       0xe8  Code  Gb  OSGMT.o [10]
OS_GetSP                0x80138100        0x8  Code  Gb  OS_STACKINFO_ARM.o [10]
OS_GetSysStackBase      0x801380ec        0x8  Code  Gb  OS_STACKINFO_ARM.o [10]
OS_Global               0x83fc8bdc       0x28  Data  Gb  OSGLOBAL.o [10]
OS_Idle                 0x8012e930        0x8  Code  Gb  irq.o [1]
OS_InInt                0x83fed5b6        0x1  Data  Gb  OSGLOBAL.o [10]
OS_InTimer              0x83fed5b7        0x1  Data  Gb  OSGLOBAL.o [10]
OS_InitCalled           0x83fed5b8        0x1  Data  Gb  OSGLOBAL.o [10]
OS_InitHW               0x80112a5c       0x6c  Code  Gb  rtosinit.o [1]
OS_InitKern             0x80115744       0x60  Code  Gb  OSKERN.o [10]
OS_InitMode             0x8013825c             Code  Gb  rtos.o [10]
OS_InsertTask           0x8011564c       0x88  Code  Gb  OSKERN.o [10]
OS_LeaveRegion          0x801154c4       0x9c  Code  Gb  OSKERN.o [10]
OS_MakeTaskReady        0x80115584       0xc8  Code  Gb  OSKERN.o [10]
OS_PutMail1             0x801306f4      0x14c  Code  Gb  OSPM1.o [10]
OS_RemoveTaskFromWaitList
                        0x80115560       0x24  Code  Gb  OSKERN.o [10]
OS_Request              0x8015643c       0x84  Code  Gb  OSRSEMRQ.o [10]
OS_RetriggerTimer       0x801396e4       0x90  Code  Gb  OSTIME.o [10]
OS_ReturnFromTask       0x80138170             Code  Gb  rtos.o [10]
OS_Running              0x83fed5b4        0x1  Data  Gb  OSGLOBAL.o [10]
OS_SetCSemaValue        0x80138518       0x90  Code  Gb  OS_SetCSemaValue.o [10]
OS_SignalCSema          0x801383bc       0x9c  Code  Gb  OSCSEM.o [10]
OS_SignalEvent          0x80136834       0x9c  Code  Gb  OSEVENS.o [10]
OS_StartASM             0x801381a8             Code  Gb  rtos.o [10]
OS_StartTask            0x8013815c             Code  Gb  rtos.o [10]
OS_StartTimer           0x80139774       0xe4  Code  Gb  OSTIME.o [10]
OS_Status               0x83fed5b3        0x1  Data  Gb  OSGLOBAL.o [10]
OS_StopTimer            0x80139858       0xac  Code  Gb  OSTIME.o [10]
OS_Switch               0x80138174             Code  Gb  rtos.o [10]
OS_SwitchAfterISR_ARM   0x8013820c             Code  Gb  rtos.o [10]
OS_SwitchFromInt        0x801381b8             Code  Gb  rtos.o [10]
OS_Systick              0x8012e8d8       0x28  Code  Gb  irq.o [1]
OS_TICK_Config          0x80129bd0       0x50  Code  Gb  OS_TICK_HandleEx.o [10]
OS_TICK_HandleEx        0x80129b14       0xbc  Code  Gb  OS_TICK_HandleEx.o [10]
OS_TLS_Delete           0x8015e7c8       0x38  Code  Gb  OS_TLS.o [10]
OS_Terminate            0x80140230      0x128  Code  Gb  OSTERM.o [10]
OS_TickStep             0x83fed5b5        0x1  Data  Gb  OSGLOBAL.o [10]
OS_TickStepTime         0x83fed55c        0x4  Data  Gb  OSGLOBAL.o [10]
OS_TimeFract            0x83fc8f6c        0x4  Data  Gb  OS_TICK_HandleEx.o [10]
OS_TimeFractPerInt      0x83fc8f70        0x4  Data  Gb  OS_TICK_HandleEx.o [10]
OS_TimeFractPerTick     0x83fc8f74        0x4  Data  Gb  OS_TICK_HandleEx.o [10]
OS_UnlinkTask           0x801156d4       0x20  Code  Gb  OSKERN.o [10]
OS_Unuse                0x80130a18       0x98  Code  Gb  OSRSEM.o [10]
OS_Use                  0x80130974       0xa4  Code  Gb  OSRSEM.o [10]
OS_Use_timeout          0x80130150       0x4c  Code  Gb  Gem_isp.o [1]
OS_WaitCSema            0x80138458       0xb4  Code  Gb  OSCSEM.o [10]
OS_WaitCSemaTimed       0x80154bfc       0xd4  Code  Gb  OSCSEMT.o [10]
OS_WaitEvent            0x80135158       0xe8  Code  Gb  OSEVENW.o [10]
OS_WaitSingleEvent      0x8013506c       0xec  Code  Gb  OSEVENWS.o [10]
OS_free                 0x8011f370       0x28  Code  Gb  OS_Alloc.o [10]
OS_irq_handler          0x8012e938       0xcc  Code  Gb  irq.o [1]
OS_malloc               0x8011f324       0x4c  Code  Gb  OS_Alloc.o [10]
OS_pCSema               0x83fed568        0x4  Data  Gb  OSGLOBAL.o [10]
OS_pMailbox             0x83fed564        0x4  Data  Gb  OSGLOBAL.o [10]
OS_pRSema               0x83fed560        0x4  Data  Gb  OSGLOBAL.o [10]
OS_pTLS                 0x83fed570        0x4  Data  Gb  OSGLOBAL.o [10]
OS_pTickHook            0x83fed56c        0x4  Data  Gb  OSGLOBAL.o [10]
OS_pfOnTerminate        0x83fed574        0x4  Data  Gb  OSTERM.o [10]
OkCancelViewOnCommand   0x80188928       0x34  Code  Gb  app_okcancelview.o [1]
OkCancelViewOnEnter     0x801880a4      0x2fc  Code  Gb  app_okcancelview.o [1]
OkCancelViewOnKeyDown   0x80188818       0x68  Code  Gb  app_okcancelview.o [1]
OkCancelViewOnKeyUp     0x80188880       0xa8  Code  Gb  app_okcancelview.o [1]
OkCancelViewOnLeave     0x801883a0       0x58  Code  Gb  app_okcancelview.o [1]
OkCancelViewOnPaint     0x801883f8      0x420  Code  Gb  app_okcancelview.o [1]
OkCancelViewOnSystemEvent
                        0x801889a0       0x50  Code  Gb  app_okcancelview.o [1]
OkCancelViewOnTimer     0x8018895c       0x44  Code  Gb  app_okcancelview.o [1]
OnTesterStart           0x80158894      0x128  Code  Gb  xm_at.o [1]
OpenSystemUpdateDialog  0x8016473c       0x98  Code  Lc  desktop.o [1]
OutBufFree              0x801a611c       0x7c  Code  Lc  h264hwd_dpb.o [1]
OutputPicture           0x801a5c5c      0x144  Code  Lc  h264hwd_dpb.o [1]
Overflow                0x83fc8fe0        0x4  Data  Gb  basic_op.o [13]
Parity_Pitch            0x801746cc       0x34  Code  Gb  p_parity.o [13]
ParseDelim              0x801bbb90       0x50  Code  Gb  H264TestBench.o [1]
PhotoFileCount          0x83fed4c4        0x4  Data  Lc  app_album.o [1]
PhotoFileList           0x83fa0000     0x3000  Data  Lc  app_album.o [1]
PicQuant                0x801bdecc       0xf8  Code  Lc  H264RateControl.o [1]
PicQuantLimit           0x801bdfc4       0x54  Code  Lc  H264RateControl.o [1]
PicSkip                 0x801bde14       0xb8  Code  Lc  H264RateControl.o [1]
PollHardwareEvent       0x801519c0      0x1d4  Code  Lc  xm_win_user.o [1]
Post                    0x80172a04      0x4d4  Code  Gb  pst.o [12]
PostCardEvent           0x80122044       0x80  Code  Lc  sdmmc.o [1]
PostMediaFileListMessage
                        0x8011cc5c       0x80  Code  Gb  xm_uvc_socket.o [1]
Post_Process            0x80173d04       0xe4  Code  Gb  mul64_op.o [12]
Pow2                    0x80190b4c       0x6c  Code  Gb  dspfunc.o [13]
PowerOff                0x80129cb0       0x30  Code  Gb  rtc.o [1]
PredWeightTable         0x801b1138      0x1b8  Code  Lc  h264hwd_slice_header.o [1]
Pred_lt_3               0x801819a8       0x68  Code  Gb  pred_lt3.o [13]
Prefetch_Handler        0x801e3ae4             Code  Wk  vectortrap.o [11]
PrepareInterPrediction  0x801b7370      0x1bc  Code  Gb  h264hwd_inter_prediction.o [1]
PrepareIntra4x4ModeData
                        0x801aabd4       0x94  Code  Gb  h264hwd_asic.o [1]
PrepareIntraPrediction  0x801b6acc       0x68  Code  Gb  h264hwd_intra_prediction.o [1]
PrepareMvData           0x801aa8d8      0x2fc  Code  Gb  h264hwd_asic.o [1]
PrepareRlcCount         0x801aac68       0x48  Code  Gb  h264hwd_asic.o [1]
PrintErrorValue         0x801b770c       0xf4  Code  Lc  arkn141_h264_encoder.o [1]
PrintJpegRet            0x8016ece8      0x1c4  Code  Gb  Jpegdectestbench.o [1]
PrintNalSizes           0x801b76ac       0x60  Code  Lc  arkn141_h264_encoder.o [1]
ProcessViewOnCommand    0x801cedd0       0xdc  Code  Gb  app_processview.o [1]
ProcessViewOnEnter      0x801ce738      0x1ec  Code  Gb  app_processview.o [1]
ProcessViewOnKeyDown    0x801ced80       0x28  Code  Gb  app_processview.o [1]
ProcessViewOnKeyUp      0x801ceda8       0x28  Code  Gb  app_processview.o [1]
ProcessViewOnLeave      0x801ce924       0x58  Code  Gb  app_processview.o [1]
ProcessViewOnPaint      0x801cec3c      0x144  Code  Gb  app_processview.o [1]
ProcessViewOnSystemEvent
                        0x801cef3c       0x38  Code  Gb  app_processview.o [1]
ProcessViewOnTimer      0x801ceeac       0x90  Code  Gb  app_processview.o [1]
PtrTab_1                0x801e3638       0x40  Data  Gb  rom_table.o [13]
PtrTab_2                0x801e3678       0x40  Data  Gb  rom_table.o [13]
Qua_Sidgain             0x80182110      0x11c  Code  Gb  qsidgain.o [13]
QuantChrominance        0x801797b4      0x2c0  Data  Lc  EncJpegInit.o [1]
QuantLuminance          0x801794f4      0x2c0  Data  Lc  EncJpegInit.o [1]
Quant_Energy            0x8018222c      0x124  Code  Lc  qsidgain.o [13]
Quantization_level      0x83fc7d8c        0x4  Data  Lc  jpeg_task.o [1]
QuarterPixelMotion      0x801bf27c      0x18c  Code  Lc  vidstabalg.o [1]
QueryFormatProgress     0x8017484c        0x8  Code  Gb  SystemAPI.o [1]
QueryRestoreProgress    0x80174874        0x8  Code  Gb  SystemAPI.o [1]
QueryUpdateProgress     0x80174880        0x4  Code  Gb  SystemAPI.o [1]
RSema                   0x83fed2f8       0x14  Data  Lc  OS_Alloc.o [10]
RTOS_ChangeTask         0x80128f10      0x2a8  Code  Gb  os_change_task.o [1]
RTOS_CheckDelays        0x80129294      0x128  Code  Gb  os_change_task.o [1]
RTOS_OS_DoRR            0x801291b8       0xdc  Code  Gb  os_change_task.o [1]
RamBufferCtrlForOpenWindow
                        0x801679e4        0x4  Code  Gb  UsbRequest.o [1]
Random                  0x80174780       0x24  Code  Gb  util.o [13]
RcdDelayMenuOptionCB    0x801d47e4       0x28  Code  Lc  app_videosettingview.o [1]
RecordResolutionMenuOptionCB
                        0x801d480c       0x7c  Code  Lc  app_videosettingview.o [1]
RecycleVideoAlertViewOnCommand
                        0x80176c94       0x30  Code  Gb  recycle_video_alert_view.o [1]
RecycleVideoAlertViewOnEnter
                        0x80176118      0x410  Code  Gb  recycle_video_alert_view.o [1]
RecycleVideoAlertViewOnKeyDown
                        0x80176b58       0x74  Code  Gb  recycle_video_alert_view.o [1]
RecycleVideoAlertViewOnKeyUp
                        0x80176bcc       0xc8  Code  Gb  recycle_video_alert_view.o [1]
RecycleVideoAlertViewOnLeave
                        0x80176528       0x58  Code  Gb  recycle_video_alert_view.o [1]
RecycleVideoAlertViewOnPaint
                        0x80176580      0x5d8  Code  Gb  recycle_video_alert_view.o [1]
RecycleVideoAlertViewOnSystemEvent
                        0x80176d08       0x28  Code  Gb  recycle_video_alert_view.o [1]
RecycleVideoAlertViewOnTimer
                        0x80176cc4       0x40  Code  Gb  recycle_video_alert_view.o [1]
RecycleViewOnCommand    0x801d5d04       0xf8  Code  Gb  app_recycleview.o [1]
RecycleViewOnEnter      0x801d5700       0xe4  Code  Gb  app_recycleview.o [1]
RecycleViewOnKeyDown    0x801d5ba0      0x13c  Code  Gb  app_recycleview.o [1]
RecycleViewOnKeyUp      0x801d5cdc       0x28  Code  Gb  app_recycleview.o [1]
RecycleViewOnLeave      0x801d57e4       0x78  Code  Gb  app_recycleview.o [1]
RecycleViewOnPaint      0x801d585c      0x344  Code  Gb  app_recycleview.o [1]
RecycleViewOnSystemEvent
                        0x801d5dfc       0x40  Code  Gb  app_recycleview.o [1]
RefPicListReordering    0x801b04cc      0x13c  Code  Lc  h264hwd_slice_header.o [1]
RefbuGetHitThreshold    0x801b19e0       0xb8  Code  Gb  refbuffer.o [1]
RefbuInit               0x801b1b14      0x1b0  Code  Gb  refbuffer.o [1]
RefbuMvStatistics       0x801b2450      0x300  Code  Gb  refbuffer.o [1]
RefbuMvStatisticsB      0x801b238c       0xc4  Code  Gb  refbuffer.o [1]
RefbuSetup              0x801b27b8      0x544  Code  Gb  refbuffer.o [1]
Region$$Table$$Base     0x801e3960              --   Gb  - Linker created -
Region$$Table$$Limit    0x801e39b4              --   Gb  - Linker created -
ReleaseAsicBuffers      0x801a9a6c       0xb0  Code  Gb  h264hwd_asic.o [1]
ReleaseIO               0x801608b0       0x10  Code  Lc  hx170dec.o [1]
ReleaseIO               0x80160680        0x4  Code  Lc  hx280enc.o [1]
ReserveIO               0x80160858       0x58  Code  Lc  hx170dec.o [1]
ReserveIO               0x801605f4       0x8c  Code  Lc  hx280enc.o [1]
ResetAsic               0x80160948       0x44  Code  Lc  hx170dec.o [1]
ResetAsic               0x801606e4       0x44  Code  Lc  hx280enc.o [1]
ResetSDMMCCard          0x80122db4       0x30  Code  Gb  sdmmc.o [1]
Residu                  0x80173c30       0xb8  Code  Gb  mul64_op.o [12]
SDCard                  0x83fc8cf4       0x1c  Data  Gb  SD_MMC_Drive.o [1]
SDCard_Module_CardCheck
                        0x8012214c       0x50  Code  Gb  sdmmc.o [1]
SDCard_Module_Init      0x80122dec      0x1a0  Code  Gb  sdmmc.o [1]
SDHC_Controls           0x83fc8440        0x4  Data  Lc  sdmmc.o [1]
SDHC_REG_READ32         0x8011f39c       0x10  Code  Gb  sdmmc.o [1]
SDHC_REG_WRITE32        0x8011f3ac       0x10  Code  Gb  sdmmc.o [1]
SDMMC0_Dedithering_Handler
                        0x801220c4       0x54  Code  Lc  sdmmc.o [1]
SDMMC_CardPlugOut       0x80121ecc       0x7c  Code  Gb  sdmmc.o [1]
SDMMC_IRQ_Handler0      0x8012219c      0x110  Code  Gb  sdmmc.o [1]
SD_Identify             0x80121f4c       0x54  Code  Lc  sdmmc.o [1]
SD_Init                 0x80121fa0        0x4  Code  Lc  sdmmc.o [1]
SD_ReadMultiBuffer      0x80122a0c      0x29c  Code  Gb  sdmmc.o [1]
SD_ReadSector           0x80121fa4       0x14  Code  Gb  sdmmc.o [1]
SD_WriteMultiBuffer     0x8012251c      0x2b0  Code  Gb  sdmmc.o [1]
SD_WriteSector          0x801222ac       0x14  Code  Gb  sdmmc.o [1]
SEMAScaleFrame          0x83fec5f8       0x10  Data  Lc  arkn141_scale.o [1]
SEMAScaleMidNum         0x83fec608       0x10  Data  Lc  arkn141_scale.o [1]
SHT$$INIT_ARRAY$$Base   0x801e3aec              --   Gb  - Linker created -
SHT$$INIT_ARRAY$$Limit  0x801e3aec              --   Gb  - Linker created -
SHT$$PREINIT_ARRAY$$Base
                        0x801e3ae8              --   Gb  - Linker created -
SHT$$PREINIT_ARRAY$$Limit
                        0x801e3aec              --   Gb  - Linker created -
SVC_STACK$$Base         0x83f9c000              --   Gb  - Linker created -
SVC_STACK$$Limit        0x83fa0000              --   Gb  - Linker created -
SWI_Handler             0x801e3ae4             Code  Wk  vectortrap.o [11]
ScaleIntHander          0x80139908       0x68  Code  Lc  arkn141_scale.o [1]
Scale_Int_init          0x801399f4       0x44  Code  Gb  arkn141_scale.o [1]
ScalingList             0x801ae100      0x13c  Code  Gb  h264hwd_seq_param_set.o [1]
ScriptEOF               0x83fb6074        0x4  Data  Lc  xm_tester_script.o [1]
ScriptLineNo            0x83fb6070        0x4  Data  Lc  xm_tester_script.o [1]
ScriptState             0x83fb6078        0x4  Data  Lc  xm_tester_script.o [1]
SearchReplacedCacheBlockFromCacheFile
                        0x8013e014       0xf8  Code  Lc  xm_h264_cache_file.o [1]
Select_Card_SrcClk      0x8011f46c        0x4  Code  Lc  sdmmc.o [1]
SelfCheckStep           0x83fed474        0x4  Data  Lc  desktop.o [1]
SendUart0Char           0x80128ce4        0x4  Code  Gb  uart.o [1]
SendUart0String         0x80128ce8       0x28  Code  Gb  uart.o [1]
SensorCaptureEnable     0x83febbf0        0x4  Data  Lc  sensor_task.o [1]
SensorInitCaptureFIFO   0x80117b00       0xe4  Code  Lc  sensor_task.o [1]
SensorPacketData        0x83febc34        0x8  Data  Lc  sensor_task.o [1]
SensorPacketPool        0x83febaac      0x130  Data  Lc  sensor_task.o [1]
SensorPacketPrep        0x83febc3c        0x8  Data  Lc  sensor_task.o [1]
SensorSema              0x83febc44       0x14  Data  Lc  sensor_task.o [1]
Sensor_Common_Sel_AltSet
                        0x8016699c      0x294  Code  Gb  SensorCommon.o [1]
Sensor_Default_Set_DspWindow
                        0x80166c30      0x19c  Code  Gb  SensorCommon.o [1]
Sensor_FsCif_AltSet     0x801668a8       0x3c  Code  Gb  SensorCommon.o [1]
Sensor_FsOtherWin_AltSet
                        0x801668e4       0x3c  Code  Gb  SensorCommon.o [1]
Sensor_FsQvga_AltSet    0x8016686c       0x3c  Code  Gb  SensorCommon.o [1]
Sensor_HsOtherWin_AltSet
                        0x8016695c       0x3c  Code  Gb  SensorCommon.o [1]
Sensor_HsQcif_AltSet    0x80166920       0x3c  Code  Gb  SensorCommon.o [1]
SeqParameterSetMvcExtension
                        0x801bc734       0xd8  Code  Lc  H264SequenceParameterSet.o [1]
SetAutoPowerUpTime      0x80129c7c       0x34  Code  Gb  rtc.o [1]
SetDecRegister          0x8016be58       0xb0  Code  Gb  regdrv.o [1]
SetGPIOPadData          0x8012b7b4      0x1bc  Code  Gb  gpio.o [1]
SetGPIOPadDirection     0x8012b5dc      0x1d8  Code  Gb  gpio.o [1]
SetParameter            0x801bbf10      0x404  Code  Lc  H264Init.o [1]
SetPicNums              0x801a5940       0x84  Code  Gb  h264hwd_dpb.o [1]
SetPoc                  0x801a3b0c       0x38  Code  Lc  h264hwd_dpb.o [1]
SetQTable               0x80179460       0x94  Code  Lc  EncJpegInit.o [1]
SetSpeed                0x80115858      0x128  Code  Lc  xm_iisadc.o [1]
SetStatus               0x801a3aec       0x20  Code  Lc  h264hwd_dpb.o [1]
Set_zero                0x80174740       0x24  Code  Gb  util.o [13]
SettingDisplayDateTime  0x801cb750      0x144  Code  Lc  app_settingview.o [1]
SettingViewOnCommand    0x801cbee4      0x18c  Code  Gb  app_settingview.o [1]
SettingViewOnEnter      0x801cb5e8       0xe0  Code  Gb  app_settingview.o [1]
SettingViewOnKeyDown    0x801cbd48      0x158  Code  Gb  app_settingview.o [1]
SettingViewOnKeyUp      0x801cbea0       0x28  Code  Gb  app_settingview.o [1]
SettingViewOnLeave      0x801cb6c8       0x88  Code  Gb  app_settingview.o [1]
SettingViewOnPaint      0x801cb894      0x474  Code  Gb  app_settingview.o [1]
SettingViewOnTimer      0x801cbec8       0x1c  Code  Gb  app_settingview.o [1]
SettingViewOnTouchDown  0x801cc070       0x84  Code  Gb  app_settingview.o [1]
SettingViewOnTouchMove  0x801cc148       0x28  Code  Gb  app_settingview.o [1]
SettingViewOnTouchUp    0x801cc0f4       0x54  Code  Gb  app_settingview.o [1]
ShellSort               0x801a5ee4       0xf8  Code  Gb  h264hwd_dpb.o [1]
ShellSortF              0x801a5fdc       0xf8  Code  Gb  h264hwd_dpb.o [1]
ShortOption             0x801bb938       0xc8  Code  Lc  EncGetOption.o [1]
ShowHWFreqInfo          0x801422d0       0xa8  Code  Gb  CpuClkCounter.o [1]
ShowVideoTime           0x801d1c7c       0xd0  Code  Lc  app_videoview.o [1]
SlidingWindowRefPicMarking
                        0x801a5434       0xb8  Code  Lc  h264hwd_dpb.o [1]
SoundVolumeViewOnEnter  0x8017704c      0x18c  Code  Gb  app_soundvolumeview.o [1]
SoundVolumeViewOnKeyDown
                        0x801773f8      0x114  Code  Gb  app_soundvolumeview.o [1]
SoundVolumeViewOnLeave  0x801771d8       0x78  Code  Gb  app_soundvolumeview.o [1]
SoundVolumeViewOnPaint  0x80177250      0x1a8  Code  Gb  app_soundvolumeview.o [1]
SoundVolumeViewOnSystemEvent
                        0x801775c0       0x28  Code  Gb  app_soundvolumeview.o [1]
SoundVolumeViewOnTimer  0x8017750c       0xa8  Code  Gb  app_soundvolumeview.o [1]
SourceParameter         0x801bdde8       0x2c  Code  Lc  H264RateControl.o [1]
SpiDmaRead              0x8011ab7c       0xdc  Code  Gb  ssi.o [1]
SpiDmaWrite             0x8011ac58       0xc0  Code  Gb  ssi.o [1]
SpiDmaWriteZero         0x8011ad18       0xe0  Code  Gb  ssi.o [1]
SpiEmptyRxFIFO          0x8011ae50       0x1c  Code  Lc  ssi.o [1]
SpiOpt_Sem              0x83fed1e0       0x14  Data  Lc  ssi.o [1]
SpiReadSingleByte       0x8011af0c       0xb0  Code  Lc  ssi.o [1]
SpiReadSta              0x8011aeb0       0x5c  Code  Gb  ssi.o [1]
SpiWriteEnable          0x8011ae6c       0x44  Code  Gb  ssi.o [1]
Spi_CfgClk              0x8011afbc       0x18  Code  Lc  ssi.o [1]
Spi_ClkDisable          0x8014365c       0x18  Code  Gb  clock.o [1]
Spi_ClkEnable           0x80143644       0x18  Code  Gb  clock.o [1]
Spi_ControllerInit      0x8011adf8       0x58  Code  Lc  ssi.o [1]
Spi_DevInfo             0x8011b9c8      0x154  Data  Gb  ssi.o [1]
Spi_Mf_ID               0x8011b990       0x38  Data  Gb  ssi.o [1]
Spi_Read                0x8011b568      0x144  Code  Gb  ssi.o [1]
Spi_Read_Device_ID      0x8011b104       0x8c  Code  Lc  ssi.o [1]
Spi_Read_FewBytes       0x8011b378      0x128  Code  Lc  ssi.o [1]
Spi_Read_JEDEC_ID       0x8011b084       0x80  Code  Lc  ssi.o [1]
Spi_Read_Page           0x8011b4a0       0xc8  Code  Lc  ssi.o [1]
Spi_SectorErase         0x8011b2f8       0x80  Code  Gb  ssi.o [1]
Spi_SelectChip          0x8011afd4       0xb0  Code  Lc  ssi.o [1]
Spi_Write               0x8011b790       0xc8  Code  Gb  ssi.o [1]
Spi_Write_Page          0x8011b6ac       0xb0  Code  Lc  ssi.o [1]
Spi_Write_Sector        0x8011b75c       0x34  Code  Lc  ssi.o [1]
StackAppTask            0x83f8986c     0x4000  Data  Lc  app_task.o [1]
StackAutoTestTask       0x83fb5000      0x800  Data  Lc  xm_autotest.o [1]
StackCameraTask         0x83fa3000     0x2000  Data  Lc  camera_task.o [1]
StackFileManagerTask    0x83fb2000     0x1000  Data  Lc  xm_file_manager_task.o [1]
StackH264CodecTask      0x83fbe58c     0x4000  Data  Lc  avi_codec_task.o [1]
StackH264FileTask       0x83fa9000     0x2000  Data  Lc  xm_h264_cache_file.o [1]
StackHONGJING_socket    0x83fe6160     0x1000  Data  Lc  hongjing_uart_socket.o [1]
StackHardTimerTask      0x83faf000     0x1000  Data  Lc  hardtimer_task.o [1]
StackJpegTask           0x83fb0000     0x1000  Data  Lc  jpeg_task.o [1]
StackMain               0x83fc4634     0x2000  Data  Gb  main.o [1]
StackMessageTask        0x83fa5000     0x2000  Data  Lc  message_task.o [1]
StackOneKeyPhotographTask
                        0x83fa7000     0x2000  Data  Lc  onekeyphotograph_task.o [1]
StackProcessTask        0x83fe4160     0x1000  Data  Lc  app_processview.o [1]
StackRecycleTask        0x83fda440     0x2000  Data  Lc  avi_codec_task.o [1]
StackSensorTask         0x83fb1000     0x1000  Data  Lc  sensor_task.o [1]
StackSystemUpdate       0x83fab000     0x2000  Data  Lc  xm_system_update.o [1]
StackVideoTask          0x83fad000     0x2000  Data  Lc  xm_video_task.o [1]
StackVoicePromptsTask   0x83fc2634     0x2000  Data  Lc  app_voice.o [1]
Stack_Isp               0x83fd8440     0x2000  Data  Gb  Gem_isp.o [1]
StarSysTimer            0x801294e8       0x54  Code  Gb  timer.o [1]
StartFormatProgress     0x80174804       0x48  Code  Gb  SystemAPI.o [1]
StartHardwareTimer      0x8012a808       0x2c  Code  Gb  hardtimer_task.o [1]
StartRecord             0x801747a8       0x44  Code  Gb  SystemAPI.o [1]
StartRestoreProgress    0x80174854       0x20  Code  Gb  SystemAPI.o [1]
StartUpdateProgress     0x8017487c        0x4  Code  Gb  SystemAPI.o [1]
StopHardwareTimer       0x8012a834       0x24  Code  Gb  hardtimer_task.o [1]
StopRecord              0x801747ec       0x18  Code  Gb  SystemAPI.o [1]
SwapEndianess           0x80195a28       0x9c  Code  Lc  H264Cabac.o [1]
Syn_filt                0x80180c20       0xa8  Code  Gb  filter.o [13]
SystemSettingViewOnCommand
                        0x801cd708      0x150  Code  Gb  app_systemsettingview.o [1]
SystemSettingViewOnEnter
                        0x801cd2e0       0x90  Code  Gb  app_systemsettingview.o [1]
SystemSettingViewOnKeyDown
                        0x801cd630       0xac  Code  Gb  app_systemsettingview.o [1]
SystemSettingViewOnKeyUp
                        0x801cd6dc       0x28  Code  Gb  app_systemsettingview.o [1]
SystemSettingViewOnLeave
                        0x801cd370       0x60  Code  Gb  app_systemsettingview.o [1]
SystemSettingViewOnPaint
                        0x801cd3d0      0x260  Code  Gb  app_systemsettingview.o [1]
SystemSettingViewOnTouchDown
                        0x801cd8c0       0x84  Code  Gb  app_systemsettingview.o [1]
SystemSettingViewOnTouchMove
                        0x801cd998       0x28  Code  Gb  app_systemsettingview.o [1]
SystemSettingViewOnTouchUp
                        0x801cd944       0x54  Code  Gb  app_systemsettingview.o [1]
SystemUpdateDialogCallBack
                        0x80164728       0x14  Code  Lc  desktop.o [1]
SystemUpdateProcessInfo
                        0x83fed134       0x28  Data  Lc  app_systemupdate.o [1]
SystemUpdateTask        0x80135fec       0xac  Code  Lc  xm_system_update.o [1]
SystemVersionViewOnCommand
                        0x801dd814       0x30  Code  Gb  app_systemversionview.o [1]
SystemVersionViewOnEnter
                        0x801dd594       0x78  Code  Gb  app_systemversionview.o [1]
SystemVersionViewOnKeyDown
                        0x801dd7a4       0x4c  Code  Gb  app_systemversionview.o [1]
SystemVersionViewOnKeyUp
                        0x801dd7f0       0x24  Code  Gb  app_systemversionview.o [1]
SystemVersionViewOnLeave
                        0x801dd60c       0x4c  Code  Gb  app_systemversionview.o [1]
SystemVersionViewOnPaint
                        0x801dd658      0x14c  Code  Gb  app_systemversionview.o [1]
TCBHardTimer            0x83fece9c       0x3c  Data  Lc  hardtimer_task.o [1]
TCBMAIN                 0x83fc6634       0x3c  Data  Gb  main.o [1]
TCB_AppTask             0x83fece1c       0x3c  Data  Lc  app_task.o [1]
TCB_AutoTestTask        0x83fecf1c       0x3c  Data  Lc  xm_autotest.o [1]
TCB_CameraTask          0x83febf68       0x3c  Data  Lc  camera_task.o [1]
TCB_FileManagerTask     0x83fec6b8       0x3c  Data  Lc  xm_file_manager_task.o [1]
TCB_H264CodecTask       0x83fbe550       0x3c  Data  Lc  avi_codec_task.o [1]
TCB_H264FileTask        0x83fea104       0x3c  Data  Lc  xm_h264_cache_file.o [1]
TCB_HONGJING_socket_Task
                        0x83fecee0       0x3c  Data  Lc  hongjing_uart_socket.o [1]
TCB_Isp                 0x83fecde0       0x3c  Data  Gb  Gem_isp.o [1]
TCB_JpegTask            0x83fecc88       0x3c  Data  Lc  jpeg_task.o [1]
TCB_MessageTask         0x83fea9ac       0x3c  Data  Lc  message_task.o [1]
TCB_OneKeyPhotographTask
                        0x83fec9c4       0x3c  Data  Lc  onekeyphotograph_task.o [1]
TCB_ProcessTask         0x83fe4124       0x3c  Data  Lc  app_processview.o [1]
TCB_RecycleTask         0x83fece60       0x3c  Data  Lc  avi_codec_task.o [1]
TCB_SensorTask          0x83febbf8       0x3c  Data  Lc  sensor_task.o [1]
TCB_SystemUpdate        0x83feca64       0x3c  Data  Lc  xm_system_update.o [1]
TCB_VideoTask           0x83fc7f20       0x3c  Data  Lc  xm_video_task.o [1]
TCB_VoicePromptsTask    0x83fc25f8       0x3c  Data  Lc  app_voice.o [1]
TestLoopStack           0x83fb6000       0x60  Data  Lc  xm_tester_script.o [1]
TestStackTop            0x83fb6060        0x4  Data  Lc  xm_tester_script.o [1]
TesterCloseScript       0x801660a4       0x24  Code  Gb  xm_tester_script.o [1]
TesterGetKeyName        0x801661f0       0x58  Code  Gb  xm_tester_script.o [1]
TesterGetMessage        0x801660cc      0x124  Code  Gb  xm_tester_script.o [1]
TesterKeymap            0x80166254       0x20  Code  Gb  xm_tester_script.o [1]
TesterMessage           0x801653f0       0x58  Code  Lc  xm_tester.o [1]
TesterOpenScript        0x80166018       0x8c  Code  Gb  xm_tester_script.o [1]
TesterStart             0x80165310       0x98  Code  Lc  xm_tester.o [1]
TesterStop              0x801653a8       0x48  Code  Lc  xm_tester.o [1]
TimeStamp               0x801bfd70       0xd4  Code  Lc  H264Sei.o [1]
TimerEvent              0x83fec831        0x1  Data  Lc  xm_time_drv.o [1]
TimerInit               0x83fec832        0x1  Data  Lc  xm_time_drv.o [1]
TouchBPos               0x83febd7c        0x1  Data  Lc  xm_touch_drv .o [1]
TouchBuffer             0x83febd80      0x100  Data  Lc  xm_touch_drv .o [1]
TouchEPos               0x83febd7d        0x1  Data  Lc  xm_touch_drv .o [1]
TouchInit               0x83febd7e        0x1  Data  Lc  xm_touch_drv .o [1]
UND_STACK$$Base         0x83fb5800              --   Gb  - Linker created -
UND_STACK$$Limit        0x83fb5c00              --   Gb  - Linker created -
USB11_INMAX_H_VIDEO_VAL
                        0x83fc903d        0x1  Data  Gb  globaldata.o [1]
USB11_INMAX_L_VIDEO_VAL
                        0x83fc903c        0x1  Data  Gb  globaldata.o [1]
USB11_MAX_VIDEO_PAYLOAD_SIZE
                        0x83fc900c        0x4  Data  Gb  globaldata.o [1]
USB11_VIDEO_DEPTH_H_VAL
                        0x83fc903b        0x1  Data  Gb  globaldata.o [1]
USB11_VIDEO_DEPTH_L_VAL
                        0x83fc903a        0x1  Data  Gb  globaldata.o [1]
USB20_INMAX_H_VIDEO_VAL
                        0x83fc9038        0x1  Data  Gb  globaldata.o [1]
USB20_INMAX_L_VIDEO_VAL
                        0x83fed5ac        0x1  Data  Gb  globaldata.o [1]
USB20_MAX_VIDEO_PAYLOAD_SIZE
                        0x83fc9008        0x4  Data  Gb  globaldata.o [1]
USB20_VIDEO_DEPTH_H_VAL
                        0x83fc9039        0x1  Data  Gb  globaldata.o [1]
USB20_VIDEO_DEPTH_L_VAL
                        0x83fed5ad        0x1  Data  Gb  globaldata.o [1]
USB_INMAX_H_AUDIO_VAL   0x83fed5ae        0x1  Data  Gb  globaldata.o [1]
USB_INMAX_L_AUDIO_VAL   0x83fc903f        0x1  Data  Gb  globaldata.o [1]
UVCStart                0x8014804c        0x8  Code  Gb  UvcVideo.o [1]
UVCStop                 0x80148054       0x14  Code  Gb  UvcVideo.o [1]
UVCTransfer             0x801481c8        0x8  Code  Gb  UvcVideo.o [1]
UVCVideoCreate          0x8014807c       0x54  Code  Gb  UvcVideo.o [1]
UVCVideoDelete          0x801480d0       0xf8  Code  Gb  UvcVideo.o [1]
UVCVideoReady           0x83fed0dc        0x4  Data  Lc  UvcVideo.o [1]
UVCVideoSample          0x83fed0b4       0x28  Data  Lc  UvcVideo.o [1]
UVCVideoTransfer        0x801481d0       0x18  Code  Gb  UvcVideo.o [1]
UVC_VideoDmaTransfer    0x80148260       0xa4  Code  Lc  UvcVideo.o [1]
UVC_VideoSetupPayload   0x801481e8       0x78  Code  Lc  UvcVideo.o [1]
UVC_VideoSetupVideoSample
                        0x80148460       0x6c  Code  Gb  UvcVideo.o [1]
UVC_VideoTransferPayload
                        0x80148304      0x15c  Code  Gb  UvcVideo.o [1]
UV_line                 0x83fec58e        0x2  Data  Lc  arkn141_scale.o [1]
Undefined_Handler       0x801e3ae4             Code  Wk  vectortrap.o [11]
UpdateBuff              0x83fc6798      0x6e0  Data  Gb  descript_def.o [1]
UpdateButtonControl     0x801cd2d0       0x10  Code  Lc  app_systemsettingview.o [1]
UpdateCounter           0x80129d8c       0x4c  Code  Gb  rtc.o [1]
UpdateMemModel          0x801b18bc       0xf0  Code  Gb  refbuffer.o [1]
UpdateNotificationTicketCallback
                        0x801361d8       0x20  Code  Lc  xm_system_update.o [1]
UpdateNotificationTimer
                        0x83feca50       0x14  Data  Lc  xm_system_update.o [1]
UpdatePackagechecksum   0x80135478       0x2c  Code  Lc  xm_system_update.o [1]
UpdateVuiPresence       0x801bc65c       0x54  Code  Lc  H264SequenceParameterSet.o [1]
Update_decfreq_prev     0x80180bc4       0x38  Code  Gb  lspdec.o [13]
UsbClearFeature         0x80167364      0x1d0  Code  Gb  UsbRequest.o [1]
UsbGetConfiguration     0x80167844       0x48  Code  Gb  UsbRequest.o [1]
UsbGetDescriptor        0x8016756c      0x2d8  Code  Gb  UsbRequest.o [1]
UsbGetInterface         0x8016792c       0xb8  Code  Gb  UsbRequest.o [1]
UsbGetStatus            0x8016703c      0x184  Code  Gb  UsbRequest.o [1]
UsbSetAddress           0x80167534       0x38  Code  Gb  UsbRequest.o [1]
UsbSetConfiguration     0x8016788c       0xa0  Code  Gb  UsbRequest.o [1]
UsbSetFeature           0x801671c0      0x1a4  Code  Gb  UsbRequest.o [1]
UsbSetInterface         0x801679e8      0x16c  Code  Gb  UsbRequest.o [1]
UvcBreak                0x80148068       0x14  Code  Gb  UvcVideo.o [1]
UvcGetCur               0x801788b0       0x40  Code  Gb  UvcRequest.o [1]
UvcGetDef               0x801789f8       0x28  Code  Gb  UvcRequest.o [1]
UvcGetInfo              0x801789a8       0x28  Code  Gb  UvcRequest.o [1]
UvcGetLen               0x801789d0       0x28  Code  Gb  UvcRequest.o [1]
UvcGetMax               0x80178930       0x40  Code  Gb  UvcRequest.o [1]
UvcGetMin               0x801788f0       0x40  Code  Gb  UvcRequest.o [1]
UvcGetRes               0x80178970       0x38  Code  Gb  UvcRequest.o [1]
UvcSetCur               0x80178850       0x60  Code  Gb  UvcRequest.o [1]
VOICE_DMA_INT_handler   0x80115b04       0x8c  Code  Lc  xm_iisadc.o [1]
VSAlgGetResult          0x801bf6dc       0x14  Code  Gb  vidstabalg.o [1]
VSAlgInit               0x801bf6a4       0x38  Code  Gb  vidstabalg.o [1]
VSAlgReset              0x801bf6f0       0xb8  Code  Gb  vidstabalg.o [1]
VSAlgStabilize          0x801bf408      0x29c  Code  Gb  vidstabalg.o [1]
VSCheckSize             0x801ba6f8       0x50  Code  Lc  H264EncApi.o [1]
VSReadStabData          0x801c15a4       0x9c  Code  Gb  vidstabcommon.o [1]
VideoListViewOnCommand  0x801d2c80       0xac  Code  Gb  app_videolistview.o [1]
VideoListViewOnEnter    0x801d2594      0x13c  Code  Lc  app_videolistview.o [1]
VideoListViewOnKeyDown  0x801d2b18      0x140  Code  Gb  app_videolistview.o [1]
VideoListViewOnKeyUp    0x801d2c58       0x28  Code  Gb  app_videolistview.o [1]
VideoListViewOnLeave    0x801d26d0       0x7c  Code  Gb  app_videolistview.o [1]
VideoListViewOnPaint    0x801d274c      0x3cc  Code  Gb  app_videolistview.o [1]
VideoListViewOnSystemEvent
                        0x801d2d48       0x40  Code  Lc  app_videolistview.o [1]
VideoListViewOnTimer    0x801d2d2c       0x1c  Code  Gb  app_videolistview.o [1]
VideoSettingViewOnCommand
                        0x801d4888      0x158  Code  Gb  app_videosettingview.o [1]
VideoSettingViewOnEnter
                        0x801d41fc       0x94  Code  Gb  app_videosettingview.o [1]
VideoSettingViewOnKeyDown
                        0x801d4668      0x148  Code  Gb  app_videosettingview.o [1]
VideoSettingViewOnKeyUp
                        0x801d47b0       0x28  Code  Gb  app_videosettingview.o [1]
VideoSettingViewOnLeave
                        0x801d4290       0x60  Code  Gb  app_videosettingview.o [1]
VideoSettingViewOnPaint
                        0x801d42f0      0x378  Code  Gb  app_videosettingview.o [1]
VideoSettingViewOnTouchDown
                        0x801d49e0       0x84  Code  Gb  app_videosettingview.o [1]
VideoSettingViewOnTouchMove
                        0x801d4ab8       0x28  Code  Gb  app_videosettingview.o [1]
VideoSettingViewOnTouchUp
                        0x801d4a64       0x54  Code  Gb  app_videosettingview.o [1]
VideoSizeMenuOptionCB   0x801d47d8        0xc  Code  Lc  app_videosettingview.o [1]
VideoTicketCallback     0x8011669c       0x20  Code  Lc  xm_video_task.o [1]
VideoTimer              0x83fc7f78       0x14  Data  Lc  xm_video_task.o [1]
VideoViewOnCommand      0x801d1fd4      0x130  Code  Lc  app_videoview.o [1]
VideoViewOnEnter        0x801d1ab4      0x144  Code  Lc  app_videoview.o [1]
VideoViewOnKeyDown      0x801d1f04       0xa8  Code  Lc  app_videoview.o [1]
VideoViewOnKeyUp        0x801d1fac       0x28  Code  Lc  app_videoview.o [1]
VideoViewOnLeave        0x801d1bf8       0x84  Code  Lc  app_videoview.o [1]
VideoViewOnPaint        0x801d1ddc      0x128  Code  Lc  app_videoview.o [1]
VideoViewOnSystemEvent  0x801d225c       0x40  Code  Lc  app_videoview.o [1]
VideoViewOnTimer        0x801d21c8       0x94  Code  Lc  app_videoview.o [1]
VideoViewOnVideoStop    0x801d229c       0x28  Code  Lc  app_videoview.o [1]
Vij_Ac                  0x8018b7e4      0x510  Data  Lc  EncJpeg.o [1]
Vij_Dc                  0x8018b704       0x60  Data  Lc  EncJpeg.o [1]
VirtualBuffer           0x801bd340      0x130  Code  Lc  H264RateControl.o [1]
VoiceID2ROM             0x80150eac       0x28  Data  Lc  app_voice.o [1]
WcLine                  0x83fb610c      0x194  Data  Lc  xm_tester_script.o [1]
Weight_Az               0x80181004       0xb8  Code  Gb  lpcfunc.o [13]
WriteBlock              0x801b3eec       0x44  Code  Lc  h264hwd_macroblock_layer.o [1]
WritePCMToAsic          0x801b3b64       0x60  Code  Lc  h264hwd_macroblock_layer.o [1]
WriteRlcToAsic          0x801b3bc4      0x268  Code  Lc  h264hwd_macroblock_layer.o [1]
WriteSubBlock           0x801b3e2c       0xc0  Code  Lc  h264hwd_macroblock_layer.o [1]
WriteToRam              0x80129d50       0x3c  Code  Gb  rtc.o [1]
WriteVui                0x801bc80c      0x394  Code  Lc  H264SequenceParameterSet.o [1]
X264_arkn141_close      0x801e053d       0x38  Code  Lc  x264_arkn141.o [5]
X264_arkn141_frame      0x801e0761      0x212  Code  Lc  x264_arkn141.o [5]
X264_arkn141_init       0x801e0575      0x1e0  Code  Lc  x264_arkn141.o [5]
X264_arkn141_init_static
                        0x801e0531        0xc  Code  Lc  x264_arkn141.o [5]
XMSYS_AppInit           0x801272d0       0x48  Code  Gb  app_task.o [1]
XMSYS_AppTask           0x801272b4       0x1c  Code  Gb  app_task.o [1]
XMSYS_AutoTestInit      0x8014c1cc       0x38  Code  Gb  xm_autotest.o [1]
XMSYS_AutoTestTask      0x8014c124       0xa8  Code  Gb  xm_autotest.o [1]
XMSYS_CameraFreeDataFrame
                        0x8013ba9c      0x134  Code  Gb  camera_task.o [1]
XMSYS_CameraGetDataFrame
                        0x8013ba44       0x58  Code  Gb  camera_task.o [1]
XMSYS_CameraGetWindowSize
                        0x80147fe4       0x48  Code  Gb  UvcVideo.o [1]
XMSYS_CameraInit        0x8013be10       0x94  Code  Gb  camera_task.o [1]
XMSYS_CameraIsReady     0x8013bbf0        0xc  Code  Gb  camera_task.o [1]
XMSYS_CameraNewDataFrame
                        0x8013b9b0       0x94  Code  Gb  camera_task.o [1]
XMSYS_CameraNotifyDataFrameTransferDone
                        0x8013bbd0        0xc  Code  Gb  camera_task.o [1]
XMSYS_CameraNotifyUsbEvent
                        0x8013bbdc        0xc  Code  Gb  camera_task.o [1]
XMSYS_CameraPostEvent   0x8013bbe8        0x8  Code  Gb  camera_task.o [1]
XMSYS_CameraSetOutputImageSize
                        0x8014802c       0x20  Code  Gb  UvcVideo.o [1]
XMSYS_CameraTask        0x8013bbfc      0x214  Code  Gb  camera_task.o [1]
XMSYS_CdrCloseStream    0x80140cf8       0x88  Code  Gb  CdrRequest.o [1]
XMSYS_CdrFilePrefetch   0x8014100c       0x88  Code  Gb  CdrRequest.o [1]
XMSYS_CdrGetResponseFrame
                        0x80140788      0x114  Code  Gb  CdrRequest.o [1]
XMSYS_CdrInit           0x8014089c       0x34  Code  Gb  CdrRequest.o [1]
XMSYS_CdrInsertAsycMessage
                        0x801408f8      0x14c  Code  Gb  CdrRequest.o [1]
XMSYS_CdrInsertHybridStream
                        0x80141094      0x140  Code  Gb  CdrRequest.o [1]
XMSYS_CdrOpenStream     0x80140b94      0x164  Code  Gb  CdrRequest.o [1]
XMSYS_CdrPrivateProtocolHandler
                        0x801404a4      0x1c4  Code  Gb  CdrRequest.o [1]
XMSYS_CdrReadStream     0x80140dfc      0x210  Code  Gb  CdrRequest.o [1]
XMSYS_CdrSeekStream     0x80140d80       0x78  Code  Gb  CdrRequest.o [1]
XMSYS_CdrSendResponse   0x80140668      0x120  Code  Gb  CdrRequest.o [1]
XMSYS_FileManagerCardFormat
                        0x80147ba0       0x60  Code  Gb  xm_file_manager_task.o [1]
XMSYS_FileManagerFileDelete
                        0x80147c08       0x7c  Code  Gb  xm_file_manager_task.o [1]
XMSYS_FileManagerGetCardCapacity
                        0x80147b3c       0x64  Code  Gb  xm_file_manager_task.o [1]
XMSYS_FileManagerInit   0x80147ae0       0x5c  Code  Gb  xm_file_manager_task.o [1]
XMSYS_FileManagerLock   0x801476a8        0x8  Code  Lc  xm_file_manager_task.o [1]
XMSYS_FileManagerSystemShutDown
                        0x80147cd4       0x50  Code  Gb  xm_file_manager_task.o [1]
XMSYS_FileManagerSystemUpdate
                        0x80147c88       0x4c  Code  Gb  xm_file_manager_task.o [1]
XMSYS_FileManagerTask   0x801476e4      0x3fc  Code  Gb  xm_file_manager_task.o [1]
XMSYS_FileManagerUnlock
                        0x801476b0        0x8  Code  Lc  xm_file_manager_task.o [1]
XMSYS_GetCacheSystemBusyLevel
                        0x8013dab8       0x6c  Code  Gb  xm_h264_cache_file.o [1]
XMSYS_GetSystemSoftwareVersion
                        0x80135664       0xa0  Code  Gb  xm_system_update.o [1]
XMSYS_H264CodecCheckEvent
                        0x80112ecc      0x1d4  Code  Gb  avi_codec_task.o [1]
XMSYS_H264CodecCheckIFrame
                        0x80112d24       0x14  Code  Gb  avi_codec_task.o [1]
XMSYS_H264CodecCloseAudioRecord
                        0x801130d0        0x8  Code  Gb  avi_codec_task.o [1]
XMSYS_H264CodecForceIFrame
                        0x80112d14       0x10  Code  Gb  avi_codec_task.o [1]
XMSYS_H264CodecGetAudioFrame
                        0x801130d8       0x58  Code  Gb  avi_codec_task.o [1]
XMSYS_H264CodecGetMode  0x80112e98        0xc  Code  Gb  avi_codec_task.o [1]
XMSYS_H264CodecGetModeCode
                        0x80112ea4       0x14  Code  Gb  avi_codec_task.o [1]
XMSYS_H264CodecGetStateCode
                        0x80112eb8       0x14  Code  Gb  avi_codec_task.o [1]
XMSYS_H264CodecGetVideoFormat
                        0x80112d38        0x8  Code  Gb  avi_codec_task.o [1]
XMSYS_H264CodecInit     0x80113a34       0x70  Code  Gb  avi_codec_task.o [1]
XMSYS_H264CodecIsBusy   0x8013dd7c        0x8  Code  Gb  xm_h264_cache_file.o [1]
XMSYS_H264CodecOpenAudioRecord
                        0x801130a0       0x30  Code  Gb  avi_codec_task.o [1]
XMSYS_H264CodecPlayerBackward
                        0x80114258       0xf4  Code  Gb  avi_codec_task.o [1]
XMSYS_H264CodecPlayerForward
                        0x80114164       0xf4  Code  Gb  avi_codec_task.o [1]
XMSYS_H264CodecPlayerPause
                        0x80114070       0xf4  Code  Gb  avi_codec_task.o [1]
XMSYS_H264CodecPlayerSeek
                        0x8011434c       0xf4  Code  Gb  avi_codec_task.o [1]
XMSYS_H264CodecPlayerStart
                        0x80113d88      0x1b8  Code  Gb  avi_codec_task.o [1]
XMSYS_H264CodecPlayerStop
                        0x80113f44      0x124  Code  Gb  avi_codec_task.o [1]
XMSYS_H264CodecRecorderStart
                        0x80113aa4      0x158  Code  Gb  avi_codec_task.o [1]
XMSYS_H264CodecRecorderStop
                        0x80113c0c      0x17c  Code  Gb  avi_codec_task.o [1]
XMSYS_H264CodecSetVideoFormat
                        0x80112d40      0x100  Code  Gb  avi_codec_task.o [1]
XMSYS_H264CodecStop     0x80114440       0xb0  Code  Gb  avi_codec_task.o [1]
XMSYS_H264CodecTask     0x80113790      0x2a4  Code  Gb  avi_codec_task.o [1]
XMSYS_H264DecoderCheckEvent
                        0x80113484      0x30c  Code  Gb  avi_codec_task.o [1]
XMSYS_H264FileInit      0x8013f444       0x88  Code  Gb  xm_h264_cache_file.o [1]
XMSYS_H264FileTask      0x8013f114      0x330  Code  Gb  xm_h264_cache_file.o [1]
XMSYS_HardTimerInit     0x8012a878       0x38  Code  Gb  hardtimer_task.o [1]
XMSYS_HardTimerTask     0x8012a858       0x20  Code  Lc  hardtimer_task.o [1]
XMSYS_JpegCodecOneKeyPhotograph
                        0x8014899c       0x70  Code  Gb  onekeyphotograph_task.o [1]
XMSYS_JpegFrameCreate   0x8013c0b0       0x5c  Code  Gb  jpeg_task.o [1]
XMSYS_JpegFrameDelete   0x8013c170       0x5c  Code  Lc  jpeg_task.o [1]
XMSYS_JpegFrameInit     0x8013bfc4       0xec  Code  Gb  jpeg_task.o [1]
XMSYS_JpegFrameInsertExtendMessage
                        0x80140a44      0x150  Code  Gb  CdrRequest.o [1]
XMSYS_JpegFrameInsertVideoStream
                        0x8013c1cc      0x474  Code  Gb  jpeg_task.o [1]
XMSYS_JpegFrameRetransfer
                        0x8013c10c       0x10  Code  Gb  jpeg_task.o [1]
XMSYS_JpegFrameSubmit   0x8013c11c       0x54  Code  Gb  jpeg_task.o [1]
XMSYS_JpegInit          0x8013c88c       0x3c  Code  Gb  jpeg_task.o [1]
XMSYS_JpegSetupMode     0x8013cc80       0xd4  Code  Gb  jpeg_task.o [1]
XMSYS_JpegTask          0x8013c848       0x44  Code  Gb  jpeg_task.o [1]
XMSYS_MessageInit       0x801474fc       0x94  Code  Gb  message_task.o [1]
XMSYS_MessageSocketFileListUpdate
                        0x80106f44        0xc  Code  Gb  target.o [1]
XMSYS_MessageSocketInit
                        0x8014bf04       0x90  Code  Gb  hongjing_uart_socket.o [1]
XMSYS_MessageSocketTransferResponsePacket
                        0x8014759c        0x8  Code  Gb  message_task.o [1]
XMSYS_MessageTask       0x8014742c       0x50  Code  Gb  message_task.o [1]
XMSYS_OneKeyPhotographInit
                        0x80148944       0x58  Code  Gb  onekeyphotograph_task.o [1]
XMSYS_OneKeyPhotographTask
                        0x80148784      0x1c0  Code  Gb  onekeyphotograph_task.o [1]
XMSYS_ProcessTask       0x801ce4e0      0x13c  Code  Gb  app_processview.o [1]
XMSYS_ProcessTask_rtos  0x801ce61c       0x20  Code  Gb  app_processview.o [1]
XMSYS_RecycleTask       0x801144f0       0x58  Code  Lc  avi_codec_task.o [1]
XMSYS_RecycleTaskInit   0x80114568       0x44  Code  Gb  avi_codec_task.o [1]
XMSYS_SensorCaptureReset
                        0x80117f7c      0x1b8  Code  Gb  sensor_task.o [1]
XMSYS_SensorCaptureStart
                        0x80117f1c       0x30  Code  Gb  sensor_task.o [1]
XMSYS_SensorCaptureStop
                        0x80117f4c       0x30  Code  Gb  sensor_task.o [1]
XMSYS_SensorCreatePacket
                        0x8011772c       0xe8  Code  Gb  sensor_task.o [1]
XMSYS_SensorDeletePacket
                        0x80117814      0x10c  Code  Gb  sensor_task.o [1]
XMSYS_SensorGetCameraChannel
                        0x80118144        0x8  Code  Gb  sensor_task.o [1]
XMSYS_SensorGetCameraChannelHeight
                        0x80118198       0x14  Code  Gb  sensor_task.o [1]
XMSYS_SensorGetCameraChannelWidth
                        0x80118184       0x14  Code  Gb  sensor_task.o [1]
XMSYS_SensorGetChannelSize
                        0x8011814c       0x38  Code  Gb  sensor_task.o [1]
XMSYS_SensorInit        0x80117e40       0xdc  Code  Gb  sensor_task.o [1]
XMSYS_SensorNotifyDataFrame
                        0x801175d4      0x158  Code  Gb  sensor_task.o [1]
XMSYS_SensorRecyclePacket
                        0x80117a2c       0xd4  Code  Gb  sensor_task.o [1]
XMSYS_SensorReturnPacket
                        0x80117920      0x10c  Code  Gb  sensor_task.o [1]
XMSYS_SensorStart       0x8013006c       0x94  Code  Gb  Gem_isp.o [1]
XMSYS_SensorStop        0x80130100       0x48  Code  Gb  Gem_isp.o [1]
XMSYS_SensorTask        0x80117be4      0x25c  Code  Gb  sensor_task.o [1]
XMSYS_SystemUpdateInit  0x801361f8       0x60  Code  Gb  xm_system_update.o [1]
XMSYS_UsbVideoClose     0x80116d34       0x5c  Code  Gb  xm_video_task.o [1]
XMSYS_UsbVideoOpen      0x80116c74       0xc0  Code  Gb  xm_video_task.o [1]
XMSYS_UvcSocketFileListUpdate
                        0x8011e190        0xc  Code  Gb  xm_uvc_socket.o [1]
XMSYS_UvcSocketInit     0x8011cb78       0x14  Code  Gb  xm_uvc_socket.o [1]
XMSYS_UvcSocketReceiveCommandPacket
                        0x8011ccdc     0x14b0  Code  Gb  xm_uvc_socket.o [1]
XMSYS_UvcSocketReportSDCardSystemEvent
                        0x8011e19c       0x90  Code  Gb  xm_uvc_socket.o [1]
XMSYS_UvcSocketSetEnable
                        0x8011cb8c       0x30  Code  Gb  xm_uvc_socket.o [1]
XMSYS_UvcSocketTransferResponsePacket
                        0x8011cbbc       0x94  Code  Gb  xm_uvc_socket.o [1]
XMSYS_VideoClose        0x80116ba8       0xcc  Code  Gb  xm_video_task.o [1]
XMSYS_VideoInit         0x801169bc       0x78  Code  Gb  xm_video_task.o [1]
XMSYS_VideoOpen         0x80116a34      0x174  Code  Gb  xm_video_task.o [1]
XMSYS_VideoRenderVideoFrameIntoDisplay
                        0x80116e80       0x44  Code  Gb  xm_video_task.o [1]
XMSYS_VideoTask         0x801166bc      0x300  Code  Gb  xm_video_task.o [1]
XMSYS_VoicePromptsTask  0x80150cdc       0x14  Code  Gb  app_voice.o [1]
XMSYS_check_sd_card_exist
                        0x801072cc       0x24  Code  Gb  target.o [1]
XMSYS_file_system_block_write_access_lock
                        0x8013da88       0x28  Code  Gb  xm_h264_cache_file.o [1]
XMSYS_file_system_block_write_access_unlock
                        0x8013dab0        0x8  Code  Gb  xm_h264_cache_file.o [1]
XMSYS_file_system_waiting_for_cache_system_nonbusy_state
                        0x8013dc68       0x88  Code  Gb  xm_h264_cache_file.o [1]
XMSYS_remove_file       0x801310c8        0x4  Code  Gb  xmvideoitem.o [1]
XMSYS_system_update     0x801360b0      0x104  Code  Gb  xm_system_update.o [1]
XMSYS_system_update_busy_state
                        0x801361c0        0xc  Code  Gb  xm_system_update.o [1]
XMSYS_system_update_check
                        0x80136098       0x18  Code  Gb  xm_system_update.o [1]
XMSYS_system_update_get_step
                        0x801361b4        0xc  Code  Gb  xm_system_update.o [1]
XMSYS_system_update_get_version
                        0x801361cc        0xc  Code  Gb  xm_system_update.o [1]
XM_AppInit              0x80150ed4       0x3c  Code  Gb  app_init.o [1]
XM_BreakSystemEventDefaultProcess
                        0x80151d50       0x24  Code  Gb  xm_win_user.o [1]
XM_CanvasCreateFromImage
                        0x801cdae4       0xc4  Code  Gb  xm_canvas.o [1]
XM_CanvasDelete         0x801ce390       0x40  Code  Gb  xm_canvas.o [1]
XM_CanvasDrawImage      0x801ce048      0x348  Code  Gb  xm_canvas.o [1]
XM_CanvasSetXferMode    0x801cdba8       0x3c  Code  Gb  xm_canvas.o [1]
XM_CheckSystemUpdatePackage
                        0x801354a4       0xc8  Code  Lc  xm_system_update.o [1]
XM_CheckSystemUpdatePackageHeader
                        0x8013556c       0x80  Code  Gb  xm_system_update.o [1]
XM_CloseSemaphore       0x80158ef0       0x28  Code  Gb  xm_semaphore.o [1]
XM_CodecStartEventReset
                        0x80130c80        0x8  Code  Gb  xmvideoitem.o [1]
XM_CodecStartEventWait  0x80130c58       0x28  Code  Gb  xmvideoitem.o [1]
XM_CreateSemaphore      0x80158eb4       0x3c  Code  Gb  xm_semaphore.o [1]
XM_DefaultProc          0x8015226c        0x4  Code  Gb  xm_win_user.o [1]
XM_DefaultSystemEventProc
                        0x80163e1c      0x90c  Code  Gb  desktop.o [1]
XM_Delay                0x8013d480        0x4  Code  Gb  xm_core_file.o [1]
XM_DeleteSemaphore      0x80158f18        0x8  Code  Gb  xm_semaphore.o [1]
XM_DisableViewAnimate   0x80152474       0x2c  Code  Gb  xm_win_user.o [1]
XM_DrawGifImageEx       0x80154534      0x144  Code  Gb  xm_osd_layer_gif.o [1]
XM_DrawImageEx          0x80128a90       0x80  Code  Gb  xm_win_gdi.o [1]
XM_DrawPngImageEx       0x801288d0      0x1c0  Code  Gb  xm_win_gdi.o [1]
XM_DvrInit              0x8013bfac       0x18  Code  Gb  jpeg_task.o [1]
XM_FileTimeToSystemTime
                        0x80106bf0       0x48  Code  Gb  target.o [1]
XM_FillRect             0x80128764       0x6c  Code  Gb  xm_win_gdi.o [1]
XM_FindClose            0x80106dd8       0x34  Code  Gb  target.o [1]
XM_FindFirstFile        0x80106ce0       0xa4  Code  Gb  target.o [1]
XM_FindNextFile         0x80106d84       0x54  Code  Gb  target.o [1]
XM_FlushMessageExcludeCommandAndSystemEvent
                        0x80151ce4       0x6c  Code  Gb  xm_win_user.o [1]
XM_GetBatteryVoltage    0x8011a994        0x8  Code  Gb  xm_adc.o [1]
XM_GetDateTimeFromFileName
                        0x80133f5c      0x1c4  Code  Gb  xmvideoitem.o [1]
XM_GetDesktop           0x80152270        0x8  Code  Gb  xm_win_user.o [1]
XM_GetDesktopRect       0x8015227c       0x48  Code  Gb  xm_win_user.o [1]
XM_GetDiskFreeSpace     0x80106e7c       0x7c  Code  Gb  target.o [1]
XM_GetFileAttributes    0x80106ef8       0x18  Code  Gb  target.o [1]
XM_GetFmlDeviceCap      0x801068ec      0x168  Code  Gb  target.o [1]
XM_GetGifImageSize      0x80154484       0xb0  Code  Gb  xm_osd_layer_gif.o [1]
XM_GetHighResolutionTickCount
                        0x8012953c       0xbc  Code  Gb  timer.o [1]
XM_GetImageSize         0x80128868       0x68  Code  Gb  xm_win_gdi.o [1]
XM_GetLocalTime         0x8012a298       0xec  Code  Gb  rtc.o [1]
XM_GetMessage           0x80151c9c       0x48  Code  Gb  xm_win_user.o [1]
XM_GetPngImageSize      0x801287d0       0x98  Code  Gb  xm_win_gdi.o [1]
XM_GetSysColor          0x80128734       0x1c  Code  Gb  xm_win_gdi.o [1]
XM_GetTickCount         0x80112bcc        0xc  Code  Gb  rtosinit.o [1]
XM_GetUpdateFileStatus  0x80174884        0x8  Code  Gb  SystemAPI.o [1]
XM_GetVolumeNameFromFilePathName
                        0x8013d484       0xf0  Code  Gb  xm_core_file.o [1]
XM_GetWindow            0x80152304       0x20  Code  Gb  xm_win_user.o [1]
XM_GetWindowAlpha       0x80152324       0x3c  Code  Gb  xm_win_user.o [1]
XM_GetWindowFrameBuffer
                        0x801536a4       0x44  Code  Gb  xm_win_user.o [1]
XM_GetWindowPrivateData
                        0x80151dc0       0x44  Code  Gb  xm_win_user.o [1]
XM_GetWindowRect        0x80152144       0x58  Code  Gb  xm_win_user.o [1]
XM_GifDecodeFrame       0x801cfb44      0x204  Code  Gb  gif.o [1]
XM_GifGetFrameCount     0x801cf844       0x54  Code  Gb  gif.o [1]
XM_GifOpen              0x801cf6cc       0x84  Code  Gb  gif.o [1]
XM_GifRenderFrame       0x801cf898      0x2ac  Code  Gb  gif.o [1]
XM_HybridInsertHybridStream
                        0x80118938       0xc0  Code  Gb  xm_hybrid_stream.o [1]
XM_HybridStreamForceIFrame
                        0x8011889c       0x30  Code  Gb  xm_hybrid_stream.o [1]
XM_HybridStreamInit     0x80118868       0x34  Code  Gb  xm_hybrid_stream.o [1]
XM_HybridStreamStart    0x801188cc       0x44  Code  Gb  xm_hybrid_stream.o [1]
XM_HybridStreamStop     0x80118910       0x28  Code  Gb  xm_hybrid_stream.o [1]
XM_IconDisplay          0x8013b7cc       0x48  Code  Gb  xm_icon_manage.o [1]
XM_IconExit             0x8013ad8c       0xa0  Code  Gb  xm_icon_manage.o [1]
XM_IconInit             0x8013ac38      0x154  Code  Gb  xm_icon_manage.o [1]
XM_ImageBlendToFrameBuffer
                        0x8015a22c      0x1b0  Code  Gb  xm_gdi_image.o [1]
XM_ImageBlend_argb888_to_yuv420
                        0x8015a0c0      0x168  Code  Gb  xm_gdi_image.o [1]
XM_ImageCloneWithBrightness
                        0x80159e48      0x184  Code  Gb  xm_gdi_image.o [1]
XM_ImageConvert         0x80159cd0      0x178  Code  Gb  xm_gdi_image.o [1]
XM_ImageCreate          0x801599c4      0x2b0  Code  Gb  xm_gdi_image.o [1]
XM_ImageDelete          0x80159c74       0x5c  Code  Gb  xm_gdi_image.o [1]
XM_ImageDisplay         0x80159fcc       0xf4  Code  Gb  xm_gdi_image.o [1]
XM_ImageItemGetInfo     0x80148a1c       0xdc  Code  Lc  onekeyphotograph_task.o [1]
XM_InitRTC              0x8012a448       0xc8  Code  Gb  rtc.o [1]
XM_InsertMessage        0x801518c8       0xf8  Code  Gb  xm_win_user.o [1]
XM_InvalidateWindow     0x80151e04       0x40  Code  Gb  xm_win_user.o [1]
XM_JumpWindow           0x80152074        0xc  Code  Gb  xm_win_user.o [1]
XM_JumpWindowEx         0x80152080       0xc4  Code  Gb  xm_win_user.o [1]
XM_KeyDriverClose       0x801193e4       0x24  Code  Gb  xm_kbd_drv.o [1]
XM_KeyDriverGetEvent    0x801192d0       0xec  Code  Gb  xm_kbd_drv.o [1]
XM_KeyDriverOpen        0x801193bc       0x28  Code  Gb  xm_kbd_drv.o [1]
XM_KeyDriverPoll        0x80119408       0x30  Code  Gb  xm_kbd_drv.o [1]
XM_KeyEventProc         0x80119234       0x9c  Code  Gb  xm_kbd_drv.o [1]
XM_KillTimer            0x8015516c       0x58  Code  Gb  xm_time_drv.o [1]
XM_LoadMenuData         0x80106a54       0xc0  Code  Gb  target.o [1]
XM_Main                 0x801505c8       0xdc  Code  Gb  xm_win_main.o [1]
XM_MainLoop             0x801527c0      0xee4  Code  Gb  xm_win_user.o [1]
XM_MakeFileNameFromCurrentDateTime
                        0x80133dc0      0x19c  Code  Gb  xmvideoitem.o [1]
XM_MapFileClose         0x80164e20       0x30  Code  Gb  xm_file.o [1]
XM_MapFileOpen          0x80164c18       0x40  Code  Gb  xm_file.o [1]
XM_MapFileRead          0x80164d10       0x78  Code  Gb  xm_file.o [1]
XM_MapFileSeek          0x80164d88       0x70  Code  Gb  xm_file.o [1]
XM_MapFileTell          0x80164df8       0x28  Code  Gb  xm_file.o [1]
XM_MkDir                0x80106e5c       0x20  Code  Gb  target.o [1]
XM_MoveFile             0x80106e3c       0x20  Code  Gb  target.o [1]
XM_OffsetRect           0x801522c4       0x40  Code  Gb  xm_win_user.o [1]
XM_OpenAlertView        0x80174a68      0x288  Code  Gb  alert_view.o [1]
XM_OpenBellSoundVolumeSettingView
                        0x80177034        0xc  Code  Gb  app_soundvolumeview.o [1]
XM_OpenMicSoundVolumeSettingView
                        0x80177040        0xc  Code  Gb  app_soundvolumeview.o [1]
XM_OpenOkCancelView     0x80187e64      0x240  Code  Gb  app_okcancelview.o [1]
XM_OpenRecycleVideoAlertView
                        0x80176018      0x100  Code  Gb  recycle_video_alert_view.o [1]
XM_OpenSoundVolumeView  0x80176f0c      0x128  Code  Gb  app_soundvolumeview.o [1]
XM_PeekMessage          0x80151c94        0x8  Code  Gb  xm_win_user.o [1]
XM_PostMessage          0x801516a4      0x1f8  Code  Gb  xm_win_user.o [1]
XM_PostQuitMessage      0x8015189c       0x2c  Code  Gb  xm_win_user.o [1]
XM_PostVideoItemEvent   0x80106f50        0x8  Code  Gb  target.o [1]
XM_PullWindow           0x80151f8c       0xe4  Code  Gb  xm_win_user.o [1]
XM_PushWindow           0x80151f84        0x8  Code  Gb  xm_win_user.o [1]
XM_PushWindowEx         0x80151ec8       0xbc  Code  Gb  xm_win_user.o [1]
XM_RGB2YUV              0x80128b10       0x9c  Code  Gb  xm_win_gdi.o [1]
XM_RecycleCleanFile     0x8015834c       0x70  Code  Gb  xm_recycle.o [1]
XM_RecycleDeleteFile    0x80158258       0xe8  Code  Gb  xm_recycle.o [1]
XM_RecycleExit          0x80158230       0x28  Code  Gb  xm_recycle.o [1]
XM_RecycleGetItem       0x80157d90       0x4c  Code  Gb  xm_recycle.o [1]
XM_RecycleGetItemCount  0x80157d84        0xc  Code  Gb  xm_recycle.o [1]
XM_RecycleGetRecycleFileName
                        0x80157ef0      0x10c  Code  Lc  xm_recycle.o [1]
XM_RecycleGetRestoreFileName
                        0x80157de4      0x10c  Code  Lc  xm_recycle.o [1]
XM_RecycleInit          0x80158134       0xfc  Code  Gb  xm_recycle.o [1]
XM_RecycleRestoreFile   0x80157ffc      0x138  Code  Gb  xm_recycle.o [1]
XM_RemoveFile           0x80106e1c       0x20  Code  Gb  target.o [1]
XM_RomAddress           0x80127228       0x24  Code  Gb  app_task.o [1]
XM_RomImageDraw         0x801510f8       0xc0  Code  Gb  xm_gdi_rom_image.o [1]
XM_RomImageExit         0x80150fbc        0x4  Code  Gb  xm_gdi_rom_image.o [1]
XM_RomImageFreeAll      0x801511b8       0x5c  Code  Gb  xm_gdi_rom_image.o [1]
XM_RomImageInit         0x80150f68       0x54  Code  Gb  xm_gdi_rom_image.o [1]
XM_RomImageOpen         0x801510e0       0x18  Code  Gb  xm_gdi_rom_image.o [1]
XM_RomInit              0x8012720c       0x1c  Code  Gb  app_task.o [1]
XM_RomLength            0x8012724c       0x54  Code  Gb  app_task.o [1]
XM_SaveMenuData         0x80106b14       0xdc  Code  Gb  target.o [1]
XM_SetCardState         0x80106724       0x60  Code  Gb  target.o [1]
XM_SetFileAttributes    0x80106f10       0x24  Code  Gb  target.o [1]
XM_SetFmlDeviceCap      0x80106784      0x168  Code  Gb  target.o [1]
XM_SetLocalTime         0x8012a384       0xc4  Code  Gb  rtc.o [1]
XM_SetTimer             0x801550f8       0x74  Code  Gb  xm_time_drv.o [1]
XM_SetViewSwitchAnimatingDirection
                        0x80153710        0xc  Code  Gb  xm_win_user.o [1]
XM_SetWindowAlpha       0x80152360       0x20  Code  Gb  xm_win_user.o [1]
XM_SetWindowFrameBuffer
                        0x801536e8       0x28  Code  Gb  xm_win_user.o [1]
XM_SetWindowPos         0x8015219c       0xd0  Code  Gb  xm_win_user.o [1]
XM_SetWindowPrivateData
                        0x80151d74       0x4c  Code  Gb  xm_win_user.o [1]
XM_ShutDownSystem       0x801066d4       0x50  Code  Gb  target.o [1]
XM_SignalSemaphore      0x80158f40       0x20  Code  Gb  xm_semaphore.o [1]
XM_Sleep                0x80112bd8        0x4  Code  Gb  rtosinit.o [1]
XM_TesterSendCommand    0x80165448       0x78  Code  Gb  xm_tester.o [1]
XM_TimerDriverClose     0x80154ff0       0x48  Code  Gb  xm_time_drv.o [1]
XM_TimerDriverDispatchEvent
                        0x8015506c       0x8c  Code  Gb  xm_time_drv.o [1]
XM_TimerDriverOpen      0x80154fc0       0x30  Code  Gb  xm_time_drv.o [1]
XM_TimerDriverPoll      0x80155038       0x34  Code  Gb  xm_time_drv.o [1]
XM_TimerEventProc       0x80154f8c       0x34  Code  Gb  xm_time_drv.o [1]
XM_TouchDriverClose     0x80160c58       0x24  Code  Gb  xm_touch_drv .o [1]
XM_TouchDriverGetEvent  0x80160b9c       0x94  Code  Gb  xm_touch_drv .o [1]
XM_TouchDriverOpen      0x80160c30       0x28  Code  Gb  xm_touch_drv .o [1]
XM_TouchDriverPoll      0x80160c7c       0x30  Code  Gb  xm_touch_drv .o [1]
XM_TouchEventProc       0x80160b1c       0x80  Code  Gb  xm_touch_drv .o [1]
XM_TraceKernelErrCode   0x80106f34       0x10  Code  Gb  target.o [1]
XM_TriggerRTC           0x8012a510       0x94  Code  Gb  rtc.o [1]
XM_UartDriverClose      0x80161b20       0x20  Code  Gb  xm_uart_drv.o [1]
XM_UartDriverGetEvent   0x80161b40      0x290  Code  Gb  xm_uart_drv.o [1]
XM_UartDriverOpen       0x80161aec       0x34  Code  Gb  xm_uart_drv.o [1]
XM_UartDriverPoll       0x80161dd0       0x38  Code  Gb  xm_uart_drv.o [1]
XM_UpdateWindow         0x80151e44       0x30  Code  Gb  xm_win_user.o [1]
XM_VideoIconInit        0x8013abf0       0x48  Code  Gb  xm_icon_manage.o [1]
XM_VideoItemAppendVideoFile
                        0x80131afc        0x8  Code  Gb  xmvideoitem.o [1]
XM_VideoItemCheckCardPerformance
                        0x80131b04       0x60  Code  Gb  xmvideoitem.o [1]
XM_VideoItemCheckCardRecycleSpace
                        0x80131b6c      0x100  Code  Gb  xmvideoitem.o [1]
XM_VideoItemCloseService
                        0x80131884       0xc8  Code  Gb  xmvideoitem.o [1]
XM_VideoItemCreateResourceMutexSemaphore
                        0x80130c24       0x24  Code  Gb  xmvideoitem.o [1]
XM_VideoItemCreateVideoItemHandle
                        0x80132ab8      0x268  Code  Gb  xmvideoitem.o [1]
XM_VideoItemCreateVideoTempFile
                        0x8013420c      0x1b4  Code  Gb  xmvideoitem.o [1]
XM_VideoItemDeleteVideoItemHandle
                        0x80132d24      0x1d4  Code  Gb  xmvideoitem.o [1]
XM_VideoItemDeleteVideoItemHandleFromFileName
                        0x80132f7c        0x8  Code  Gb  xmvideoitem.o [1]
XM_VideoItemDeleteVideoItemHandleFromFileNameEx
                        0x80132ef8       0x84  Code  Gb  xmvideoitem.o [1]
XM_VideoItemGetDiskUsage
                        0x80133c0c      0x1a0  Code  Gb  xmvideoitem.o [1]
XM_VideoItemGetImageItemList
                        0x80134500      0x1b4  Code  Gb  xmvideoitem.o [1]
XM_VideoItemGetNextCircularVideoItemHandle
                        0x8013297c       0x88  Code  Gb  xmvideoitem.o [1]
XM_VideoItemGetVideoChannel
                        0x80132a24       0x90  Code  Gb  xmvideoitem.o [1]
XM_VideoItemGetVideoChannelFromTempVideoItemName
                        0x80130dec       0xe0  Code  Gb  xmvideoitem.o [1]
XM_VideoItemGetVideoFilePath
                        0x8013254c       0xcc  Code  Gb  xmvideoitem.o [1]
XM_VideoItemGetVideoItemHandle
                        0x80130c88      0x164  Code  Gb  xmvideoitem.o [1]
XM_VideoItemGetVideoItemList
                        0x801337e4      0x280  Code  Gb  xmvideoitem.o [1]
XM_VideoItemGetVideoPath
                        0x8013252c       0x20  Code  Gb  xmvideoitem.o [1]
XM_VideoItemInit        0x80131758      0x12c  Code  Gb  xmvideoitem.o [1]
XM_VideoItemIsBasicServiceOpened
                        0x80132a04       0x10  Code  Gb  xmvideoitem.o [1]
XM_VideoItemIsServiceOpened
                        0x80132a14       0x10  Code  Gb  xmvideoitem.o [1]
XM_VideoItemIsTempVideoItemFile
                        0x80130ed0       0x28  Code  Gb  xmvideoitem.o [1]
XM_VideoItemLock        0x80130c48        0x8  Code  Gb  xmvideoitem.o [1]
XM_VideoItemMarkVideoFileUnuse
                        0x80134450       0xa8  Code  Gb  xmvideoitem.o [1]
XM_VideoItemMarkVideoFileUsage
                        0x801343c0       0x90  Code  Gb  xmvideoitem.o [1]
XM_VideoItemMonitorAndRecycleGarbage
                        0x80133790       0x4c  Code  Gb  xmvideoitem.o [1]
XM_VideoItemOpenService
                        0x80131c88      0x4a8  Code  Gb  xmvideoitem.o [1]
XM_VideoItemRenameTempFile
                        0x80131958      0x150  Code  Gb  xmvideoitem.o [1]
XM_VideoItemUnlock      0x80130c50        0x8  Code  Gb  xmvideoitem.o [1]
XM_VideoItemUpdateVideoItemFromFileName
                        0x801332a4      0x1b8  Code  Gb  xmvideoitem.o [1]
XM_VideoItemUpdateVideoItemFromTempName
                        0x80133124      0x180  Code  Gb  xmvideoitem.o [1]
XM_VideoItemUpdateVideoItemHandle
                        0x80132f84      0x1a0  Code  Gb  xmvideoitem.o [1]
XM_VideoItemWaitingForUpdate
                        0x80134120       0xec  Code  Gb  xmvideoitem.o [1]
XM_WaitSemaphore        0x80158f20       0x20  Code  Gb  xm_semaphore.o [1]
XM_WaveClose            0x80115f7c       0x9c  Code  Gb  xm_iisadc.o [1]
XM_WaveInit             0x80115d58       0x54  Code  Gb  xm_iisadc.o [1]
XM_WaveOpen             0x80115dac      0x1d0  Code  Gb  xm_iisadc.o [1]
XM_WaveRead             0x801161ec      0x1c8  Code  Gb  xm_iisadc.o [1]
XM_WaveSetDacMute       0x80116018        0xc  Code  Gb  xm_iisadc.o [1]
XM_WaveSetDacVolume     0x80116024       0x84  Code  Gb  xm_iisadc.o [1]
XM_WaveWrite            0x801160a8      0x144  Code  Gb  xm_iisadc.o [1]
XM_WidgetProc           0x8016206c        0x4  Code  Gb  xm_win_widget.o [1]
XM_calloc               0x801508c4       0x28  Code  Gb  xm_win_mem.o [1]
XM_fclose               0x8013d384        0x4  Code  Gb  xm_core_file.o [1]
XM_fgets                0x8013d38c       0x94  Code  Gb  xm_core_file.o [1]
XM_filesize             0x8013d388        0x4  Code  Gb  xm_core_file.o [1]
XM_fopen                0x8013d374        0x4  Code  Gb  xm_core_file.o [1]
XM_fread                0x8013d37c        0x4  Code  Gb  xm_core_file.o [1]
XM_free                 0x801508ec       0xc0  Code  Gb  xm_win_mem.o [1]
XM_fseek                0x8013d378        0x4  Code  Gb  xm_core_file.o [1]
XM_fverify              0x8013d420       0x5c  Code  Gb  xm_core_file.o [1]
XM_fwrite               0x8013d380        0x4  Code  Gb  xm_core_file.o [1]
XM_heap_debug_free      0x80127334       0x18  Code  Gb  app_task.o [1]
XM_heap_debug_malloc    0x80127330        0x4  Code  Gb  app_task.o [1]
XM_idle                 0x801272a0        0x8  Code  Gb  app_task.o [1]
XM_init_view_reference_coordinate
                        0x801524a0      0x318  Code  Lc  xm_win_user.o [1]
XM_lcdc_channel_type    0x8011981c      0x118  Code  Gb  hw_osd_layer_iar.o [1]
XM_lcdc_convert_argb888_to_ayuv444
                        0x80111c0c      0x2c8  Code  Gb  xm_osd_layer.o [1]
XM_lcdc_copy_raw_image  0x8011162c      0x2f8  Code  Gb  xm_osd_layer.o [1]
XM_lcdc_lcd_coordinate_to_osd_coordinate
                        0x8011239c      0x114  Code  Gb  xm_osd_layer.o [1]
XM_lcdc_load_gif_image  0x801542d0      0x1b0  Code  Gb  xm_osd_layer_gif.o [1]
XM_lcdc_load_png_image  0x80111924      0x2e8  Code  Gb  xm_osd_layer.o [1]
XM_lcdc_osd_exit        0x801102dc       0x50  Code  Gb  xm_osd_layer.o [1]
XM_lcdc_osd_get_enable  0x80110d50       0x54  Code  Gb  xm_osd_layer.o [1]
XM_lcdc_osd_get_format  0x80110e00       0x54  Code  Gb  xm_osd_layer.o [1]
XM_lcdc_osd_get_height  0x801110a4       0x54  Code  Gb  xm_osd_layer.o [1]
XM_lcdc_osd_get_ui_format
                        0x80112370       0x2c  Code  Gb  xm_osd_layer.o [1]
XM_lcdc_osd_get_viewable_height
                        0x801113c0       0x3c  Code  Gb  xm_osd_layer.o [1]
XM_lcdc_osd_get_viewable_width
                        0x80111340       0x3c  Code  Gb  xm_osd_layer.o [1]
XM_lcdc_osd_get_viewable_x_offset
                        0x80111440       0x3c  Code  Gb  xm_osd_layer.o [1]
XM_lcdc_osd_get_viewable_y_offset
                        0x801114c0       0x3c  Code  Gb  xm_osd_layer.o [1]
XM_lcdc_osd_get_width   0x80110f50       0x54  Code  Gb  xm_osd_layer.o [1]
XM_lcdc_osd_get_x_offset
                        0x80111154       0x54  Code  Gb  xm_osd_layer.o [1]
XM_lcdc_osd_get_y_offset
                        0x80111204       0x54  Code  Gb  xm_osd_layer.o [1]
XM_lcdc_osd_horz_align  0x801101e0       0x34  Code  Gb  xm_osd_layer.o [1]
XM_lcdc_osd_init        0x8011028c       0x50  Code  Gb  xm_osd_layer.o [1]
XM_lcdc_osd_layer_load_ayuv444_image
                        0x80111ed4      0x49c  Code  Gb  xm_osd_layer.o [1]
XM_lcdc_osd_layer_set_lock
                        0x8011097c       0xc8  Code  Gb  xm_osd_layer.o [1]
XM_lcdc_osd_layer_setup_position
                        0x80110954       0x28  Code  Gb  xm_osd_layer.o [1]
XM_lcdc_osd_set_brightness_coeff
                        0x801112b8       0x44  Code  Gb  xm_osd_layer.o [1]
XM_lcdc_osd_set_enable  0x80110d04       0x4c  Code  Gb  xm_osd_layer.o [1]
XM_lcdc_osd_set_global_coeff
                        0x80110da4       0x5c  Code  Gb  xm_osd_layer.o [1]
XM_lcdc_osd_set_height  0x80110fa8       0xfc  Code  Gb  xm_osd_layer.o [1]
XM_lcdc_osd_set_viewable_height
                        0x8011137c       0x44  Code  Gb  xm_osd_layer.o [1]
XM_lcdc_osd_set_viewable_width
                        0x801112fc       0x44  Code  Gb  xm_osd_layer.o [1]
XM_lcdc_osd_set_viewable_x_offset
                        0x801113fc       0x44  Code  Gb  xm_osd_layer.o [1]
XM_lcdc_osd_set_viewable_y_offset
                        0x8011147c       0x44  Code  Gb  xm_osd_layer.o [1]
XM_lcdc_osd_set_width   0x80110e54       0xfc  Code  Gb  xm_osd_layer.o [1]
XM_lcdc_osd_set_x_offset
                        0x801110f8       0x5c  Code  Gb  xm_osd_layer.o [1]
XM_lcdc_osd_set_y_offset
                        0x801111a8       0x5c  Code  Gb  xm_osd_layer.o [1]
XM_lcdc_osd_set_yuv_addr
                        0x80111258       0x60  Code  Gb  xm_osd_layer.o [1]
XM_lcdc_osd_vert_align  0x80110214       0x30  Code  Gb  xm_osd_layer.o [1]
XM_lock                 0x80112bdc       0x38  Code  Gb  rtosinit.o [1]
XM_malloc               0x801507bc      0x108  Code  Gb  xm_win_mem.o [1]
XM_osd_framebuffer_clear
                        0x801370d0      0x178  Code  Gb  xm_osd_framebuffer.o [1]
XM_osd_framebuffer_close
                        0x8013730c      0x4d8  Code  Gb  xm_osd_framebuffer.o [1]
XM_osd_framebuffer_config_exit
                        0x801592d8       0x50  Code  Gb  xm_osd_framebuffer_config.o [1]
XM_osd_framebuffer_config_init
                        0x80158f80      0x358  Code  Gb  xm_osd_framebuffer_config.o [1]
XM_osd_framebuffer_copy
                        0x801378c0       0xf0  Code  Gb  xm_osd_framebuffer.o [1]
XM_osd_framebuffer_create
                        0x80136bac      0x430  Code  Gb  xm_osd_framebuffer.o [1]
XM_osd_framebuffer_exit
                        0x80137c24      0x160  Code  Gb  xm_osd_framebuffer.o [1]
XM_osd_framebuffer_get_buffer
                        0x80136fdc       0xf4  Code  Gb  xm_osd_framebuffer.o [1]
XM_osd_framebuffer_get_framebuffer_count
                        0x801379b0       0x58  Code  Gb  xm_osd_framebuffer.o [1]
XM_osd_framebuffer_init
                        0x80137b20      0x104  Code  Gb  xm_osd_framebuffer.o [1]
XM_osd_framebuffer_open
                        0x80137248       0xc0  Code  Gb  xm_osd_framebuffer.o [1]
XM_osd_framebuffer_release
                        0x801377e4       0xd8  Code  Gb  xm_osd_framebuffer.o [1]
XM_osd_framebuffer_set_framebuffer_address
                        0x80137a08      0x118  Code  Gb  xm_osd_framebuffer.o [1]
XM_osd_layer_animate    0x801631d0      0x708  Code  Gb  xm_osd_layer_animate.o [1]
XM_osd_layer_init       0x80110a44      0x2c0  Code  Gb  xm_osd_layer.o [1]
XM_printf               0x80112c58       0x30  Code  Gb  rtosinit.o [1]
XM_rename               0x8013d47c        0x4  Code  Gb  xm_core_file.o [1]
XM_unlock               0x80112c14       0x44  Code  Gb  rtosinit.o [1]
XM_voice_prompts_get_text
                        0x80150a38       0x28  Code  Gb  app_voice.o [1]
XM_voice_prompts_init   0x80150cf0       0xc8  Code  Gb  app_voice.o [1]
XM_voice_prompts_insert_voice
                        0x80150a60       0xf0  Code  Gb  app_voice.o [1]
XM_wakeup               0x801272a8        0xc  Code  Gb  app_task.o [1]
Y_line                  0x83fec58c        0x2  Data  Lc  arkn141_scale.o [1]
_AddDevice              0x801dd14c       0x24  Code  Lc  SD_MMC_Drive.o [1]
_AddDriver              0x8014367c       0x74  Code  Lc  FS_OS_Interface.o [1]
_AutoFormat             0x80171df4       0x80  Code  Lc  FAT_Format.o [1]
_CStrftime              0x8014adbb       0xe8  Code  Gb  xstrftim.o [4]
_CacheRWAPI             0x801dcc5c       0x18  Data  Lc  FS_CacheRW.o [1]
_CacheRW_Command        0x801dca44       0x58  Code  Lc  FS_CacheRW.o [1]
_CacheRW_InvalidateCache
                        0x801dc958       0x3c  Code  Lc  FS_CacheRW.o [1]
_CacheRW_Prefetch       0x801dca9c      0x154  Code  Gb  FS_CacheRW.o [1]
_CacheRW_ReadFromCache  0x801dc75c       0x5c  Code  Lc  FS_CacheRW.o [1]
_CacheRW_UpdateCache    0x801dc7d0       0xa8  Code  Lc  FS_CacheRW.o [1]
_CacheRW_WriteCache     0x801dc878       0xe0  Code  Lc  FS_CacheRW.o [1]
_CalcCheckSum           0x801461b8       0x44  Code  Lc  FAT_Misc.o [1]
_CalcLogClusterPos      0x80146bb8       0x18  Code  Lc  FAT_Misc.o [1]
_CalcNumChar            0x80146148       0x38  Code  Lc  FAT_Misc.o [1]
_CheckBPB               0x8014658c      0x244  Code  Lc  FAT_Misc.o [1]
_CheckDelays            0x80114f5c      0x120  Code  Lc  OSKERN.o [10]
_CheckGifAndGetBasicInfo
                        0x801cf2c0      0x148  Code  Lc  gif.o [1]
_CheckGifAndGetBasicInfo
                        0x8015393c      0x144  Code  Lc  xm_osd_layer_gif.o [1]
_Clean                  0x801dc9cc       0x78  Code  Lc  FS_CacheRW.o [1]
_ClusterId2FATOff       0x8015f394       0x2c  Code  Lc  FAT_FreeCluster.o [1]
_ClusterId2FATOff       0x80157590       0x2c  Code  Lc  FAT_GetFileClusterSectorInfo.o [1]
_ClusterId2FATOff       0x80145e28       0x2c  Code  Lc  FAT_Misc.o [1]
_CopyDirText            0x80144ab4       0x60  Code  Lc  FAT_Open.o [1]
_CopyLongName           0x80146104       0x44  Code  Lc  FAT_Misc.o [1]
_CopyString             0x801460c4       0x40  Code  Lc  FAT_Misc.o [1]
_CutUpdateDirEntry      0x8015761c       0x94  Code  Lc  FAT_GetFileClusterSectorInfo.o [1]
_DVR_BIN_               0x801d9b20      0x7be  Data  Gb  dvr.jpg [2]
_DVR_SECTION_$$Base     0x801d9b20              --   Gb  - Linker created -
_DVR_SECTION_$$Length   0x000007be              --   Gb  - Linker created -
_DVR_SECTION_$$Limit    0x801da2de              --   Gb  - Linker created -
_Daysto                 0x80125491       0x42  Code  Gb  xttotm.o [4]
_Driver2Id              0x801436f0       0x30  Code  Lc  FS_OS_Interface.o [1]
_EndLoop                0x801656e0       0x78  Code  Lc  xm_tester_script.o [1]
_Event                  0x83fed3ac        0x8  Data  Lc  FS_OS.o [1]
_ExceptionDump_         0x801e2070      0x114  Code  Gb  exception_dump.o [1]
_FSeekNL                0x8011c1b4       0x6c  Code  Lc  FS_Misc.o [1]
_FatFormat              0x80171d90       0x64  Code  Lc  FAT_Format.o [1]
_FatFormatEx            0x801717f4      0x58c  Code  Lc  FAT_Format.o [1]
_FileSystemCache        0x83a70000   0x200000  Data  Lc  main.o [1]
_Format                 0x80171e74       0xcc  Code  Lc  FAT_Format.o [1]
_GenldDefault           0x8010b105      0x288  Code  Lc  xprintffull.o [4]
_Gentime                0x8015fe05      0x5c8  Code  Gb  xgentime.o [4]
_GetDirInfo             0x80143784       0x64  Code  Lc  FAT_DirEntry.o [1]
_GetDriverName          0x801dd144        0x8  Code  Lc  SD_MMC_Drive.o [1]
_GetGifTotalPicture     0x801cf754       0xf0  Code  Lc  gif.o [1]
_GetHashCode            0x801dc74c       0x10  Code  Lc  FS_CacheRW.o [1]
_GetMail                0x80158dec       0xc4  Code  Gb  OSMX.o [10]
_GetN                   0x801258d1       0x26  Code  Lc  xscanffull.o [4]
_GetNumCharInEntry      0x80146180       0x38  Code  Lc  FAT_Misc.o [1]
_GetNumUnits            0x801dd554        0xc  Code  Lc  SD_MMC_Drive.o [1]
_GetOneByte             0x801cf668       0x30  Code  Lc  gif.o [1]
_GetOneByte             0x80153a80       0x30  Code  Lc  xm_osd_layer_gif.o [1]
_GetPartitionNumSectors
                        0x8015e9fc       0x10  Code  Lc  FS_Partition.o [1]
_GetPartitionStartSector
                        0x8015ea0c       0x10  Code  Lc  FS_Partition.o [1]
_GetStatus              0x801dd51c       0x38  Code  Lc  SD_MMC_Drive.o [1]
_Get_LocaleC_Tinfo      0x8014ac8d        0x4  Code  Gb  xlocale_c.o [4]
_Getdst                 0x8015fab9       0xf2  Code  Gb  xgetdst.o [4]
_GetfldDefault          0x80125a89      0x106  Code  Lc  xscanffull.o [4]
_GetfloatDefault        0x80125f95      0x43c  Code  Lc  xscanffull.o [4]
_GetintDefault          0x80125d7d      0x212  Code  Lc  xscanffull.o [4]
_GetstrDefault          0x80125b8f      0x1da  Code  Lc  xscanffull.o [4]
_Gettime                0x80125647       0x40  Code  Gb  xgettime.o [4]
_HasSignature           0x8015ea1c       0x2c  Code  Lc  FS_Partition.o [1]
_Init                   0x801655fc       0x54  Code  Lc  xm_tester_script.o [1]
_InitMedium             0x801dd50c       0x10  Code  Lc  SD_MMC_Drive.o [1]
_Init_AITC              0x80112898      0x144  Code  Lc  rtosinit.o [1]
_IoCtl                  0x801dd4c4       0x44  Code  Lc  SD_MMC_Drive.o [1]
_IsBPB                  0x8015ea48       0x30  Code  Lc  FS_Partition.o [1]
_IsInited               0x83fc8e84        0x1  Data  Lc  FS_Core.o [1]
_Isdst                  0x8014ab09      0x140  Code  Gb  xisdst.o [4]
_IsdstStr               0x803000d4        0x4  Data  Gb  setlocale.o [4]
_Isdst_olddst           0x8030009c        0x4  Data  Lc  xisdst.o [4]
_Isdst_rules            0x803000a0        0x4  Data  Gb  xisdst.o [4]
_JpegOpenEncoder        0x8015b03c      0x230  Code  Lc  arkn141_jpeg_encoder.o [1]
_LdtobDefault           0x8010ac39      0x4a6  Code  Lc  xprintffull.o [4]
_LitobDefault           0x8010ab13      0x120  Code  Lc  xprintffull.o [4]
_LocaleC_Tinfo          0x83fecc20       0x54  Data  Lc  xlocale_c.o [4]
_LocaleC_islower        0x80180988       0x1c  Code  Gb  uart.o [1]
_LocaleC_isspace        0x801890ec       0x24  Code  Gb  xm_tester_script.o [1]
_LocaleC_toupper        0x80171634       0x20  Code  Gb  FAT_VolumeLabel.o [1]
_Localtime_oldzone      0x80300090        0x4  Data  Lc  localtim.o [4]
_Localtime_tzoff        0x80300094        0x4  Data  Lc  localtim.o [4]
_LocatePartition        0x80145b68       0x3c  Code  Lc  FS_Core.o [1]
_Loop                   0x80165650       0x90  Code  Lc  xm_tester_script.o [1]
_Mount                  0x8011c8dc       0x4c  Code  Lc  FS_Volume.o [1]
_NumDriverLocks         0x83fed448        0x4  Data  Lc  FS_OS_Interface.o [1]
_NumLocks               0x83fed3a8        0x1  Data  Lc  FS_OS.o [1]
_NumSectorBuffers       0x83fc8e7c        0x4  Data  Lc  FS_Core.o [1]
_NumUnits               0x83fed4b8        0x4  Data  Lc  SD_MMC_Drive.o [1]
_NumVolumes             0x83fec318        0x4  Data  Lc  FS_Volume.o [1]
_OS_DoRR                0x80114eb8       0xa4  Code  Lc  OSKERN.o [10]
_OS_ISR_Undefined       0x80112acc        0x8  Code  Lc  rtosinit.o [1]
_OS_ISR_Undefined_0     0x80112ac8        0x4  Code  Lc  rtosinit.o [1]
_OS_RSema_OnTerminate   0x80130840       0x78  Code  Lc  OSRSEM.o [10]
_OS_cbTimerEx           0x80143110       0x14  Code  Lc  OSTIMERX.o [10]
_OpenDir                0x80143b80       0xbc  Code  Lc  FAT_Dir.o [1]
_OutputGIF              0x801cf408      0x260  Code  Lc  gif.o [1]
_PassData               0x801cf698       0x34  Code  Lc  gif.o [1]
_PassData               0x80153ab0       0x34  Code  Lc  xm_osd_layer_gif.o [1]
_Printf                 0x8010a59d      0x576  Code  Gb  xprintffull.o [4]
_Prout                  0x801e3a39       0x16  Code  Gb  xprout.o [4]
_PutcharsDefault        0x8010b38d       0x32  Code  Lc  xprintffull.o [4]
_ROM_BIN_               0x80000080    0xe04bf  Data  Gb  rom.bin [2]
_ROM_SECTION_$$Base     0x80000080              --   Gb  - Linker created -
_ROM_SECTION_$$Length   0x000e04bf              --   Gb  - Linker created -
_ROM_SECTION_$$Limit    0x800e053f              --   Gb  - Linker created -
_Rand_idx               0x80300008        0x4  Data  Lc  rand.o [4]
_Rand_rv                0x8030000c       0x80  Data  Lc  rand.o [4]
_Randinit               0x80300000        0x1  Data  Gb  rand.o [4]
_Randseed               0x80300004        0x4  Data  Gb  rand.o [4]
_Read                   0x801443c0       0x80  Code  Lc  FS_LogBlock.o [1]
_Read                   0x801dd170       0x6c  Code  Lc  SD_MMC_Drive.o [1]
_ReadBurst              0x80164ea8       0x48  Code  Lc  FAT_Read.o [1]
_ReadData               0x80164ef0      0x330  Code  Lc  FAT_Read.o [1]
_ReadMultBuffer         0x801dd448       0x7c  Code  Lc  SD_MMC_Drive.o [1]
_RecycleGetItemCount    0x80157cb8       0xcc  Code  Lc  xm_recycle.o [1]
_RomImageOpenImage      0x80150fc0      0x120  Code  Lc  xm_gdi_rom_image.o [1]
_SB_Clean               0x80145850       0x40  Code  Lc  FS_Core.o [1]
_SFN_CreateDirEntry     0x80146504       0x88  Code  Lc  FAT_Misc.o [1]
_SFN_FindDirEntry       0x801464e4       0x20  Code  Lc  FAT_Misc.o [1]
_SFN_ReadDirEntryInfo   0x8014620c      0x2d8  Code  Lc  FAT_Misc.o [1]
_SNProut                0x801e2e33       0x1c  Code  Gb  xsnprout.o [4]
_SProut                 0x8014af63        0xa  Code  Gb  xsprout.o [4]
_SScin                  0x801e15b5       0x24  Code  Gb  xsscin.o [4]
_Scanf                  0x801258f9      0x190  Code  Gb  xscanffull.o [4]
_SectorIsBlank          0x80146d54       0x24  Code  Lc  FAT_Misc.o [1]
_SetDirInfo             0x801437e8       0x9c  Code  Lc  FAT_DirEntry.o [1]
_SetDirPosIndex         0x801461fc       0x10  Code  Lc  FAT_Misc.o [1]
_SetFATSector           0x80145e54       0x28  Code  Lc  FAT_Misc.o [1]
_SetMode                0x801dc994       0x38  Code  Lc  FS_CacheRW.o [1]
_Stat                   0x83fed218       0x20  Data  Lc  FS_LogBlock.o [1]
_Stoflt                 0x8014a165      0x1b8  Code  Gb  xstoflt.o [4]
_Stopfx                 0x8014a031      0x134  Code  Gb  xstopfx.o [4]
_Stoxflt                0x8014a589      0x1dc  Code  Gb  xstoxflt.o [4]
_Text2Mode              0x8011bf40       0x48  Code  Lc  FS_Misc.o [1]
_TruncateFile           0x80171654       0x94  Code  Lc  FAT_SetEndOfFile.o [1]
_Ttotm                  0x801254d5       0xdc  Code  Gb  xttotm.o [4]
_Ttotm_ts               0x803000a4       0x2c  Data  Lc  xttotm.o [4]
_Tzoff                  0x80109a25       0x98  Code  Gb  localtim.o [4]
_TzoneStr               0x803000d0        0x4  Data  Gb  setlocale.o [4]
_UpdateDirEntry         0x80143e9c       0x94  Code  Lc  FAT_Write.o [1]
_UpdatePartTable        0x80171764       0x90  Code  Lc  FAT_Format.o [1]
_WAIT_FOR_SYNCHRONIZE_TO_ANA
                        0x80129c30       0x4c  Code  Lc  rtc.o [1]
_WalkAdjFileClusters    0x80146bd0       0x88  Code  Lc  FAT_Misc.o [1]
_Write                  0x80144440       0x24  Code  Lc  FS_LogBlock.o [1]
_Write                  0x801dd1dc      0x1f0  Code  Lc  SD_MMC_Drive.o [1]
_WriteBurst             0x80143e54       0x48  Code  Lc  FAT_Write.o [1]
_WriteData              0x80143f30      0x29c  Code  Lc  FAT_Write.o [1]
_WriteEmptyFATSectors   0x80146cec       0x68  Code  Lc  FAT_Misc.o [1]
_WriteFATEntry          0x80145e7c      0x248  Code  Lc  FAT_Misc.o [1]
_WriteIntoCache         0x801dc7b8       0x18  Code  Lc  FS_CacheRW.o [1]
_WriteMultBuffer        0x801dd3cc       0x7c  Code  Lc  SD_MMC_Drive.o [1]
_XMSYS_VideoRenderVideoFrameIntoDisplay
                        0x80116d90       0xf0  Code  Lc  xm_video_task.o [1]
_XM_PeekMessage         0x80151b94      0x100  Code  Lc  xm_win_user.o [1]
__DLIB_PERTHREAD$$Base  0x80300000              --   Gb  - Linker created -
__DLIB_PERTHREAD$$Limit
                        0x803000d8              --   Gb  - Linker created -
__PRETTY_FUNCTION__.10610
                        0x801dfb88        0xe  Data  Lc  utils.o [6]
__XM_VideoItemMonitorAndRecycleGarbage
                        0x80133460      0x330  Code  Gb  xmvideoitem.o [1]
__aeabi_JMP_BUF_SIZE {Abs}
                        0x00000008              --   Gb  setjmp.o [11]
__aeabi_assert          0x801385ab       0x54  Code  Gb  xassert.o [4]
__aeabi_cdcmpeq         0x80124690             Code  Gb  DblCmpEq.o [9]
__aeabi_cdcmple         0x8010fc84             Code  Gb  DblCmpLe.o [9]
__aeabi_cdrcmple        0x801078e0             Code  Gb  DblCmpGe.o [9]
__aeabi_cfcmpeq         0x801430ec             Code  Gb  FltCmpEq.o [11]
__aeabi_cfcmple         0x8010f718             Code  Gb  FltCmpLe.o [9]
__aeabi_cfrcmple        0x8010f6ec             Code  Gb  FltCmpGe.o [9]
__aeabi_d2f             0x800f9424             Code  Gb  DblToFlt.o [9]
__aeabi_d2iz            0x80101da8             Code  Gb  DblToS32.o [9]
__aeabi_d2lz            0x8010f7ac             Code  Gb  DblToS64.o [11]
__aeabi_d2uiz           0x801079f4             Code  Gb  DblToU32.o [9]
__aeabi_d2ulz           0x801248a4             Code  Gb  DblToU64.o [11]
__aeabi_dadd            0x8010621c             Code  Gb  DblAdd.o [9]
__aeabi_dcmpeq          0x80107984             Code  Gb  DblLogEq.o [11]
__aeabi_dcmpge          0x80101d80             Code  Gb  DblLogGe.o [11]
__aeabi_dcmpgt          0x800ed784             Code  Gb  DblLogGt.o [11]
__aeabi_dcmple          0x80101d94             Code  Gb  DblLogLe.o [11]
__aeabi_dcmplt          0x80105b10             Code  Gb  DblLogLt.o [11]
__aeabi_ddiv            0x800ed1f4             Code  Gb  DblDiv.o [9]
__aeabi_dmul            0x800ed580             Code  Gb  DblMul.o [9]
__aeabi_dsub            0x800ee250             Code  Gb  DblSub.o [9]
__aeabi_errno_addr      0x8010f79d        0xa  Code  Gb  errno.o [4]
__aeabi_f2d             0x80102038             Code  Gb  FltToDbl.o [9]
__aeabi_f2iz            0x8010f744             Code  Gb  FltToS32.o [9]
__aeabi_f2uiz           0x80141d10             Code  Gb  FltToU32.o [9]
__aeabi_fadd            0x8014b2fc             Code  Gb  FltAdd.o [9]
__aeabi_fdiv            0x80101e78             Code  Gb  FltDiv.o [9]
__aeabi_fmul            0x80141bc8             Code  Gb  FltMul.o [9]
__aeabi_fsub            0x80160424             Code  Gb  FltSub.o [9]
__aeabi_i2d             0x800ed1c4             Code  Gb  S32ToDbl.o [9]
__aeabi_i2f             0x80162038             Code  Gb  S32ToFlt.o [9]
__aeabi_idiv            0x800f89b0             Code  Gb  I32DivMod.o [11]
__aeabi_idiv0           0x8010f5f0             Code  Gb  IntDivZer.o [11]
__aeabi_idivmod         0x800f89b0             Code  Gb  I32DivMod.o [11]
__aeabi_l2d             0x800f9510             Code  Gb  S64ToDbl.o [11]
__aeabi_l2f             0x80101e08             Code  Gb  I64ToFlt.o [11]
__aeabi_lasr            0x80164e88             Code  Gb  S64Shr.o [11]
__aeabi_ldiv0           0x8010f6cc             Code  Gb  I64DivZer.o [11]
__aeabi_ldivmod         0x800f8da0             Code  Gb  I64DivMod.o [11]
__aeabi_lmul            0x80160410             Code  Gb  I64Mul.o [11]
__aeabi_memclr          0x80160cb0             Code  Gb  ABImemclr.o [11]
__aeabi_memclr4         0x80150494             Code  Gb  ABImemclr4.o [11]
__aeabi_memcpy          0x801076ac             Code  Gb  ABImemcpy.o [11]
__aeabi_memcpy4         0x801076d0             Code  Gb  ABImemcpy.o [11]
__aeabi_memcpy8         0x801076d0             Code  Gb  ABImemcpy.o [11]
__aeabi_memmove         0x8010fbb0             Code  Gb  ABImemmove.o [11]
__aeabi_memmove4        0x8010fbb0             Code  Gb  ABImemmove.o [11]
__aeabi_memmove8        0x8010fbb0             Code  Gb  ABImemmove.o [11]
__aeabi_memset          0x801100d0             Code  Gb  ABImemset.o [11]
__aeabi_memset4         0x80161aa8             Code  Gb  ABImemset48.o [11]
__aeabi_memset8         0x80161aa8             Code  Gb  ABImemset48.o [11]
__aeabi_ui2d            0x801079e8             Code  Gb  U32ToDbl.o [9]
__aeabi_ui2f            0x8015a5c4             Code  Gb  U32ToFlt.o [9]
__aeabi_uidiv           0x800f89c0             Code  Gb  I32DivMod.o [11]
__aeabi_uidivmod        0x800f89c0             Code  Gb  I32DivMod.o [11]
__aeabi_ul2d            0x8012491c             Code  Gb  U64ToDbl.o [11]
__aeabi_ul2f            0x80101e28             Code  Gb  I64ToFlt.o [11]
__aeabi_uldivmod        0x800f8db8             Code  Gb  I64DivMod.o [11]
__assert_fail           0x80103531       0x10  Code  Gb  tachograph.o [6]
__call_ctors            0x801e3815       0x18  Code  Gb  cppinit.o [4]
__cexit_clearlocks      0x801e3950             Code  Gb  cexit.o [11]
__cmain                 0x801e391c             Code  Gb  cmain.o [11]
__compound_literal.0    0x83fc84d8        0xc  Data  Lc  avienc.o [6]
__compound_literal.0    0x83fc81ac        0x8  Data  Lc  pcm.o [5]
__compound_literal.1    0x83fc81b4        0x8  Data  Lc  pcm.o [5]
__cstart_clearlocks     0x801e3aec             Code  Gb  cstart_clearlocks.o [11]
__data_GetMemChunk      0x8015f9cd       0x28  Code  Gb  xgetmemchunk.o [4]
__environ               0x83fed59c        0x4  Data  Gb  environ.o [4]
__errno_location        0x800f8b78        0x8  Code  Gb  avio.o [1]
__exit                  0x801078cc             Code  Gb  XXexit.o [11]
__getzone               0x80125641        0x4  Code  Gb  getzone.o [4]
__iar_Atan              0x801e0dd9      0x174  Code  Gb  xatan.o [9]
__iar_Cosh              0x801e2775       0xe0  Code  Gb  xcosh.o [9]
__iar_Dint              0x8014a799       0x94  Code  Gb  xdint.o [9]
__iar_Dnorm             0x80125739       0x48  Code  Gb  xdnorm.o [9]
__iar_Dscale            0x80125781      0x128  Code  Gb  xdscale.o [9]
__iar_Dtentox           0x8014a3dd      0x13e  Code  Gb  xdtento.o [9]
__iar_Dtest             0x80118b41       0x3c  Code  Gb  xdtest.o [9]
__iar_Dunscale          0x801d4195       0x68  Code  Gb  xdunscal.o [9]
__iar_EmptyStepPoint    0x801385a9        0x2  Code  Gb  xassert.o [4]
__iar_Errno             0x80300098        0x4  Data  Gb  errno.o [4]
__iar_Exp               0x8014a841      0x2c8  Code  Gb  xexp.o [9]
__iar_FDint             0x8014b29f       0x5e  Code  Gb  xfdint.o [9]
__iar_FRint             0x801263d1       0x68  Code  Gb  xfrint.o [9]
__iar_Locksyslock       0x8015fa27       0x46  Code  Gb  xsyslock.o [4]
__iar_Log               0x80124315      0x26c  Code  Gb  xlog.o [9]
__iar_Logpoly           0x8012459d       0x6c  Code  Gb  xlog.o [9]
__iar_Memchr            0x801256a4             Code  Gb  memchr.o [11]
__iar_Memset            0x801100d0             Code  Gb  ABImemset.o [11]
__iar_Memset4_word      0x80161ab4             Code  Gb  ABImemset48.o [11]
__iar_Memset8_word      0x80161ab4             Code  Gb  ABImemset48.o [11]
__iar_Memset_word       0x801100dc             Code  Gb  ABImemset.o [11]
__iar_PowXpExp2         0x80124ba9      0x44c  Code  Lc  pow.o [9]
__iar_Quad              0x801d2f99      0x410  Code  Gb  xquad.o [9]
__iar_ReportAssert      0x80159719       0x4a  Code  Gb  xreportassert.o [4]
__iar_Rint              0x80141829       0x80  Code  Gb  xrint.o [9]
__iar_Sin               0x801e0b9d      0x210  Code  Gb  xsin.o [9]
__iar_Sinh              0x801e11d5      0x1f4  Code  Gb  xsinh.o [9]
__iar_Stod              0x80124805        0xa  Code  Gb  xstod.o [9]
__iar_Stodx             0x801246bd      0x13c  Code  Gb  xstod.o [9]
__iar_Stold             0x8014b295        0xa  Code  Gb  xstold.o [9]
__iar_Stoldx            0x8014b14d      0x13c  Code  Gb  xstold.o [9]
__iar_Stoll             0x8014af59        0xa  Code  Gb  xstoll.o [4]
__iar_Stollx            0x8014aea3       0xb6  Code  Gb  xstoll.o [4]
__iar_Stolx             0x80107831       0x9c  Code  Gb  xstol.o [4]
__iar_Stoul             0x801242bb        0xa  Code  Gb  xstoul.o [4]
__iar_Stoull            0x8014b0f1        0xa  Code  Gb  xstoull.o [4]
__iar_Stoullx           0x8014af6d      0x17a  Code  Gb  xstoull.o [4]
__iar_Stoulx            0x80124191      0x12a  Code  Gb  xstoul.o [4]
__iar_Strchr            0x800efe30             Code  Gb  strchr.o [11]
__iar_Strrchr           0x8010a583       0x1a  Code  Gb  strrchr.o [4]
__iar_Strstr            0x8010a555       0x2e  Code  Gb  strstr.o [4]
__iar_SubNrm            0x80141ce4             Code  Gb  FltMul.o [9]
__iar_SubNrmP           0x80141ce0             Code  Gb  FltMul.o [9]
__iar_TzoneStr_init     0x80125615       0x24  Code  Gb  setlocale.o [4]
__iar_Unlocksyslock     0x8015fa6d       0x16  Code  Gb  xsyslock.o [4]
__iar_Xp_addh           0x801d3b35      0x2f2  Code  Gb  xprec.o [9]
__iar_Xp_addx           0x801d3f63       0x36  Code  Gb  xprec.o [9]
__iar_Xp_getw           0x801d39f1       0x6c  Code  Gb  xprec.o [9]
__iar_Xp_mulh           0x801d3e27      0x13c  Code  Gb  xprec.o [9]
__iar_Xp_setw           0x801d3a5d       0xd8  Code  Gb  xprec.o [9]
__iar_ceil              0x80124820             Code  Gb  ceil.o [9]
__iar_ceill             0x80124820             Code  Gb  ceil.o [9]
__iar_clearlocks        0x8015f9f5       0x32  Code  Gb  xsyslock.o [4]
__iar_cstart_call_ctors
                        0x801e37e0       0x34  Code  Gb  cmain_call_ctors.o [11]
__iar_dadd              0x8010622c             Code  Gb  DblAdd.o [9]
__iar_data_init3        0x801e3564       0x4c  Code  Gb  data_init3.o [11]
__iar_dlfree            0x80149ac5      0x4be  Code  Gb  dlmalloc.o [4]
__iar_dlib_perthread_access
                        0x801255ec       0x28  Code  Gb  xtls.o [10]
__iar_dlib_perthread_cpp_destroy
                        0x8030008c        0x4  Data  Gb  xthreads.o [4]
__iar_dlib_perthread_deallocate
                        0x80171625       0x10  Code  Gb  xthreads.o [4]
__iar_dlib_perthread_destroy
                        0x801715fd       0x1c  Code  Gb  xthreads.o [4]
__iar_dlmalloc          0x8014985f      0x260  Code  Gb  dlmalloc.o [4]
__iar_dsub              0x800ee260             Code  Gb  DblSub.o [9]
__iar_dsubStart         0x800ee280             Code  Gb  DblSub.o [9]
__iar_edom              0x8014a82c             Code  Gb  iarEdom.o [11]
__iar_fadd              0x8014b308             Code  Gb  FltAdd.o [9]
__iar_floor             0x80124ab0             Code  Gb  floor.o [9]
__iar_floorl            0x80124ab0             Code  Gb  floor.o [9]
__iar_fmod              0x801d3f98             Code  Gb  fmod.o [9]
__iar_fmodl             0x801d3f98             Code  Gb  fmod.o [9]
__iar_fsub              0x80160430             Code  Gb  FltSub.o [9]
__iar_fsubStart         0x80160440             Code  Gb  FltSub.o [9]
__iar_i2d               0x800ed1c8             Code  Gb  S32ToDbl.o [9]
__iar_i2f               0x8016204c             Code  Gb  S32ToFlt.o [9]
__iar_l2d               0x800f9538             Code  Gb  S64ToDbl.o [11]
__iar_packbits_init3    0x801e2b95       0xb6  Code  Gb  packbits_init3.o [11]
__iar_program_start     0x801dedfc             Code  Gb  cortex_a5_board_cstartup_iar.o [1]
__iar_sqrt              0x8012492c             Code  Gb  sqrt.o [9]
__iar_system_Mtxdst     0x8017200f        0x2  Code  Gb  xmtx.o [4]
__iar_system_Mtxinit    0x8017200d        0x2  Code  Gb  xmtx.o [4]
__iar_system_Mtxlock    0x80172011        0x2  Code  Gb  xmtx.o [4]
__iar_system_Mtxunlock  0x80172013        0x2  Code  Gb  xmtx.o [4]
__iar_zero_init3        0x801e38f5       0x28  Code  Gb  zero_init3.o [11]
__isinf                 0x800f8be8       0x40  Code  Gb  avio.o [1]
__isnan                 0x800f8c28       0x30  Code  Gb  avio.o [1]
__isoc99_sscanf         0x800f8b94       0x18  Code  Gb  avio.o [1]
__low_level_init        0x801e3941        0x4  Code  Gb  low_level_init.o [4]
__sti__routine          0x8014ac49       0x42  Code  Lc  xlocale_c.o [4]
__sync_add_and_fetch_4  0x800f8c64       0x14  Code  Gb  avio.o [1]
__sync_val_compare_and_swap_4
                        0x800f8c78       0x1c  Code  Gb  avio.o [1]
__vector                0x80000000             Code  Gb  cortex_a5_board_cstartup_iar.o [1]
__write                 0x80126600       0x58  Code  Gb  main.o [1]
__xpg_strerror_r        0x800f8c5c        0x8  Code  Gb  avio.o [1]
_aAccessMode            0x8011c56c       0x78  Data  Lc  FS_Misc.o [1]
_aFATTypeInfo           0x80171f80       0x18  Data  Lc  FAT_Format.o [1]
_aFormatInfo            0x80171fa4       0x68  Data  Lc  FAT_Format.o [1]
_aMemBlock              0x83fe5160     0x1000  Data  Lc  ConfigDrive.o [1]
_acVolumeLabel          0x80171f98        0xc  Data  Gb  FAT_Format.o [1]
_call_main              0x801e392c             Code  Gb  cmain.o [11]
_core_bTimeSetting      0x83fc8c20        0x1  Data  Gb  target.o [1]
_cutoff_file            0x80130f18       0xbc  Code  Lc  xmvideoitem.o [1]
_errno                  0x83fc9000        0x4  Data  Lc  avio.o [1]
_exit                   0x801e394c             Code  Gb  cexit.o [11]
_gif_close              0x80153b5c       0x18  Code  Lc  xm_osd_layer_gif.o [1]
_gif_open               0x80153ae4       0x78  Code  Lc  xm_osd_layer_gif.o [1]
_gm_                    0x83feb708      0x1d4  Data  Lc  dlmalloc.o [4]
_heap_bottom            0x83fed3b4        0x4  Data  Lc  xm_win_mem.o [1]
_heap_empty             0x83fed3bc        0x4  Data  Lc  xm_win_mem.o [1]
_heap_mem               0x83c70000   0x200000  Data  Lc  xm_win_mem.o [1]
_heap_semaphore         0x83fed3c0        0x4  Data  Lc  xm_win_mem.o [1]
_heap_top               0x83fed3b8        0x4  Data  Lc  xm_win_mem.o [1]
_imp_lcdc_copy_raw_image_ARGB888
                        0x80111504      0x128  Code  Gb  xm_osd_layer.o [1]
_inp_yup                0x80173f90       0xd8  Code  Gb  mul64_op.o [12]
_main                   0x801e3934             Code  Gb  cmain.o [11]
_memset                 0x801507a4       0x18  Code  Lc  xm_win_mem.o [1]
_output_gif             0x80153d78      0x2dc  Code  Lc  xm_osd_layer_gif.o [1]
_pDriverLock            0x83fed44c        0x4  Data  Lc  FS_OS_Interface.o [1]
_paSectorBuffer         0x83fc8e78        0x4  Data  Lc  FS_Core.o [1]
_paSema                 0x83fed3a4        0x4  Data  Lc  FS_OS.o [1]
_read_color_map         0x801cf26c       0x54  Code  Lc  gif.o [1]
_read_color_map         0x801538e8       0x54  Code  Lc  xm_osd_layer_gif.o [1]
_reg_brightness         0x83fed5af        0x1  Data  Lc  pc_main.o [1]
_reg_contrast           0x83fed5b0        0x1  Data  Lc  pc_main.o [1]
_reg_hue                0x83fed5b1        0x1  Data  Lc  pc_main.o [1]
_reg_saturation         0x83fed5b2        0x1  Data  Lc  pc_main.o [1]
_xm_paint_view          0x80152380       0xf4  Code  Gb  xm_win_user.o [1]
a                       0x801e0fa0       0x40  Data  Lc  xatan.o [9]
a100                    0x801663a2        0x6  Data  Gb  tab_ld8k.o [13]
abort                   0x800ed1bb        0xa  Code  Gb  abort.o [4]
abort_sources           0x83fc868c       0x34  Data  Lc  xm_i2c.o [1]
abs                     0x801369b9        0x8  Code  Gb  abs.o [4]
abs_s                   0x80181244       0x1c  Code  Gb  basic_op.o [13]
access                  0x8013d794       0x78  Code  Gb  xm_core_file.o [1]
acos                    0x801e2931       0xd8  Code  Gb  acos.o [9]
adc_bat_process         0x8011a7c8       0x68  Code  Lc  xm_adc.o [1]
adc_dma_start           0x80115980       0x7c  Code  Lc  xm_iisadc.o [1]
adc_dma_stop            0x801159fc       0x10  Code  Lc  xm_iisadc.o [1]
adc_exit                0x80115a48       0x14  Code  Lc  xm_iisadc.o [1]
adc_init                0x80115a0c       0x3c  Code  Lc  xm_iisadc.o [1]
adc_int_handler         0x8011a960       0x34  Code  Gb  xm_adc.o [1]
adc_key                 0x8011ab40       0x3c  Data  Lc  xm_adc.o [1]
adc_key_process         0x8011a830      0x130  Code  Lc  xm_adc.o [1]
add                     0x80181204       0x20  Code  Gb  basic_op.o [13]
addEventQueue           0x8014747c       0x80  Code  Gb  message_task.o [1]
add_segment             0x80148f81      0x1fa  Code  Lc  dlmalloc.o [4]
adjust_codec_frame_rate
                        0x8013dd84        0x4  Code  Lc  xm_h264_cache_file.o [1]
adjust_position         0x801d5628       0xd8  Code  Lc  app_recycleview.o [1]
adler32                 0x80160cb8      0x2f0  Code  Gb  adler32.o [14]
ae_event                0x83fed450        0x8  Data  Lc  Gem_isp_ae.o [1]
ae_info_output_enable   0x83fecb60        0x4  Data  Lc  Gem_isp_ae.o [1]
ae_rcd                  0x83fecb04       0x5c  Data  Gb  Gem_isp_ae.o [1]
alarm_off               0x8012a274       0x14  Code  Gb  rtc.o [1]
alaw2linear             0x801e0305       0x2a  Code  Lc  pcm.o [5]
albumListViewBtn_0      0x801d7a5c       0x24  Data  Lc  app_albumlistview.o [1]
albumListViewBtn_0      0x801d15a0       0x24  Data  Lc  app_albumview.o [1]
alt_digits              0x8014ac94        0x1  Data  Lc  xlocale_c.o [4]
am_pm                   0x8014ac98        0x8  Data  Lc  xlocale_c.o [4]
analog_gain_from_exposure_calculate
                        0x8015c518      0x110  Code  Lc  arkn141_cmos_sensor_ar0238.o [1]
analog_gain_table       0x8015e0a8       0x70  Data  Lc  arkn141_cmos_sensor_ar0238.o [1]
ap0238_Parallel_Linear_1080p30_Low_Power_Mode
                        0x8016f2b8     0x1a20  Code  Gb  ar0238.o [1]
apond2                  0x83feb8dc       0x28  Data  Lc  pst.o [12]
app_start_update        0x80177890       0xc4  Code  Gb  app_systemupdate.o [1]
append_one_video        0x8013150c      0x1f8  Code  Lc  xmvideoitem.o [1]
append_packet_chunked   0x800e5541      0x1e6  Code  Lc  utils.o [6]
append_video_volume     0x80131704       0x54  Code  Lc  xmvideoitem.o [1]
ar0238_cmos_isp_ae_init
                        0x8015ce90        0x4  Code  Lc  arkn141_cmos_sensor_ar0238.o [1]
ar0238_cmos_isp_ae_run  0x8015dec8        0x4  Code  Lc  arkn141_cmos_sensor_ar0238.o [1]
ar0238_cmos_isp_awb_init
                        0x8015c89c      0x110  Code  Lc  arkn141_cmos_sensor_ar0238.o [1]
ar0238_cmos_isp_awb_run
                        0x8015d0c8        0x4  Code  Lc  arkn141_cmos_sensor_ar0238.o [1]
ar0238_cmos_isp_colors_init
                        0x8015c9f8       0xd4  Code  Lc  arkn141_cmos_sensor_ar0238.o [1]
ar0238_cmos_isp_colors_run
                        0x8015d194      0x194  Code  Lc  arkn141_cmos_sensor_ar0238.o [1]
ar0238_cmos_isp_denoise_init
                        0x8015cacc       0xc0  Code  Lc  arkn141_cmos_sensor_ar0238.o [1]
ar0238_cmos_isp_denoise_run
                        0x8015d5e4      0x13c  Code  Lc  arkn141_cmos_sensor_ar0238.o [1]
ar0238_cmos_isp_enhance_init
                        0x8015ce40       0x50  Code  Lc  arkn141_cmos_sensor_ar0238.o [1]
ar0238_cmos_isp_enhance_run
                        0x8015ddf0       0xd8  Code  Lc  arkn141_cmos_sensor_ar0238.o [1]
ar0238_cmos_isp_eris_init
                        0x8015cb8c       0xec  Code  Lc  arkn141_cmos_sensor_ar0238.o [1]
ar0238_cmos_isp_eris_run
                        0x8015d924       0xa4  Code  Lc  arkn141_cmos_sensor_ar0238.o [1]
ar0238_cmos_isp_fesp_init
                        0x8015cc78      0x1c8  Code  Lc  arkn141_cmos_sensor_ar0238.o [1]
ar0238_cmos_isp_fesp_run
                        0x8015db88       0x9c  Code  Lc  arkn141_cmos_sensor_ar0238.o [1]
ar0238_cmos_isp_sys_init
                        0x8015ce94      0x234  Code  Lc  arkn141_cmos_sensor_ar0238.o [1]
ar0238_cmos_max_gain_get
                        0x8015c4f0       0x28  Code  Gb  arkn141_cmos_sensor_ar0238.o [1]
ar0238_cmos_max_gain_set
                        0x8015c46c       0x84  Code  Lc  arkn141_cmos_sensor_ar0238.o [1]
ar0238_cmos_sensor_get_sensor_name
                        0x8015c800        0xc  Code  Lc  arkn141_cmos_sensor_ar0238.o [1]
ar0238_default_colort   0x8015e26c       0x84  Data  Lc  arkn141_cmos_sensor_ar0238.o [1]
ar0238_default_resolt   0x8015e248       0x24  Data  Lc  arkn141_cmos_sensor_ar0238.o [1]
ar0238_isp_sensor_init  0x8015c80c       0x90  Code  Lc  arkn141_cmos_sensor_ar0238.o [1]
argv_1080P_good_video_quality
                        0x83fbe468       0x74  Data  Gb  avi_codec_task.o [1]
argv_1080P_high_video_quality
                        0x83fbe4dc       0x74  Data  Gb  avi_codec_task.o [1]
argv_1080P_normal_video_quality
                        0x83fbe3f4       0x74  Data  Gb  avi_codec_task.o [1]
argv_720P               0x83fbe380       0x74  Data  Gb  avi_codec_task.o [1]
arkn141_codec_close     0x8014b6e8       0xac  Code  Gb  arkn141_codec.o [1]
arkn141_codec_init      0x8014b52c      0x124  Code  Gb  arkn141_codec.o [1]
arkn141_codec_inited    0x83fecf94        0x4  Data  Lc  arkn141_codec.o [1]
arkn141_codec_open      0x8014b650       0x98  Code  Gb  arkn141_codec.o [1]
arkn141_codec_opened    0x83fecf8c        0x8  Data  Lc  arkn141_codec.o [1]
arkn141_codec_release_hw
                        0x8014b840       0x5c  Code  Gb  arkn141_codec.o [1]
arkn141_codec_reserve_hw
                        0x8014b794       0xac  Code  Gb  arkn141_codec.o [1]
arkn141_codec_semid     0x83fecf9c       0x14  Data  Lc  arkn141_codec.o [1]
arkn141_codec_trigger_decode_finish_event
                        0x8014b95c        0x8  Code  Gb  arkn141_codec.o [1]
arkn141_codec_trigger_h264_encode_finish_event
                        0x8014b8ec        0x8  Code  Gb  arkn141_codec.o [1]
arkn141_codec_waiting_for_decode_finished
                        0x8014b8f4       0x68  Code  Gb  arkn141_codec.o [1]
arkn141_codec_waiting_for_h264_encode_finished
                        0x8014b89c       0x50  Code  Gb  arkn141_codec.o [1]
arkn141_decode_frame    0x801ddd71      0x22a  Code  Lc  h264_arkn141.o [5]
arkn141_decode_nal_unit
                        0x801ddc91       0xd4  Code  Lc  h264_arkn141.o [5]
arkn141_get_clks        0x80142264       0x6c  Code  Gb  CpuClkCounter.o [1]
arkn141_isp_ae_initialize
                        0x80156288       0xb0  Code  Gb  arkn141_isp_exposure_cmos.o [1]
arkn141_isp_ae_run      0x80156338       0x10  Code  Gb  arkn141_isp_exposure_cmos.o [1]
arkn141_isp_cmos_sensor_read_register
                        0x80155590       0x10  Code  Gb  arkn141_cmos_sensor_ar0238_io.o [1]
arkn141_isp_cmos_sensor_write_register
                        0x801555a0       0x10  Code  Gb  arkn141_cmos_sensor_ar0238_io.o [1]
arkn141_isp_scalar_anti_aliasing_enhance
                        0x8013a22c      0x254  Code  Gb  arkn141_scale.o [1]
arkn141_isp_user_data   0x83febbe8        0x4  Data  Lc  sensor_task.o [1]
arkn141_isp_user_data_base
                        0x83febbec        0x4  Data  Lc  sensor_task.o [1]
arkn141_jpeg_decode     0x8015b9b8      0x3d4  Code  Gb  arkn141_jpeg_decoder.o [1]
arkn141_jpeg_encode     0x8015b29c      0x2c8  Code  Gb  arkn141_jpeg_encoder.o [1]
arkn141_jpeg_get_image_info
                        0x8015b790      0x228  Code  Gb  arkn141_jpeg_decoder.o [1]
arkn141_lcdc_init       0x8011a2a8       0x60  Code  Gb  hw_osd_layer_iar.o [1]
arkn141_open_encoder    0x801b79ec      0x66c  Code  Lc  arkn141_h264_encoder.o [1]
arkn141_scalar_access_semid
                        0x83fec5dc       0x14  Data  Lc  arkn141_scale.o [1]
arkn141_scalar_finish_event
                        0x83fec5f0        0x8  Data  Lc  arkn141_scale.o [1]
arkn141_scalar_interrupt_handler
                        0x80139b4c       0x68  Code  Lc  arkn141_scale.o [1]
arkn141_scalar_process  0x8013a484      0x3e0  Code  Gb  arkn141_scale.o [1]
arkn141_scalar_process_internal
                        0x80139bb4      0x318  Code  Gb  arkn141_scale.o [1]
arkn141_scale_init      0x8013a150       0xd0  Code  Gb  arkn141_scale.o [1]
asicRegisterDesc        0x8018f1b0     0x13f8  Data  Lc  encasiccontroller.o [1]
asic_service_priority   0x801df42c        0x4  Data  Lc  arkn141_h264_decoder.o [1]
asic_status             0x83fed4ec        0x4  Data  Gb  ewl_x280_common.o [1]
asin                    0x801e2855       0xdc  Code  Gb  asin.o [9]
asyc_frame_index        0x83fecd1c        0x4  Data  Lc  CdrRequest.o [1]
asyc_message_length     0x83fecd18        0x4  Data  Lc  CdrRequest.o [1]
asyn_channel_name       0x80135024        0x8  Data  Lc  xmvideoitem.o [1]
asyn_message_buffer     0x83e70000    0x80000  Data  Lc  CdrRequest.o [1]
asyn_message_count      0x83fecd14        0x4  Data  Lc  CdrRequest.o [1]
asyn_stream_channel     0x83fecd38        0x1  Data  Lc  CdrRequest.o [1]
asyn_stream_handle      0x83fecd34        0x4  Data  Lc  CdrRequest.o [1]
asyn_stream_length      0x83fecd20        0x4  Data  Lc  CdrRequest.o [1]
asyn_stream_name        0x83fecd50       0x10  Data  Lc  CdrRequest.o [1]
asyn_stream_offset      0x83fecd24        0x4  Data  Lc  CdrRequest.o [1]
asyn_stream_prefetch_cache
                        0x83ef0000    0x40000  Data  Lc  CdrRequest.o [1]
asyn_stream_prefetch_length
                        0x83fecd2c        0x4  Data  Lc  CdrRequest.o [1]
asyn_stream_prefetch_offset
                        0x83fecd28        0x4  Data  Lc  CdrRequest.o [1]
asyn_stream_prefetch_size
                        0x83fecd30        0x4  Data  Lc  CdrRequest.o [1]
asyn_stream_type        0x83fecd39        0x1  Data  Lc  CdrRequest.o [1]
at_running              0x83fed278        0x4  Data  Lc  xm_at.o [1]
at_sema                 0x83fed27c       0x14  Data  Lc  xm_at.o [1]
at_stop                 0x83fed274        0x4  Data  Lc  xm_at.o [1]
atan                    0x801e2ee9       0x98  Code  Gb  atan.o [9]
atoi                    0x801bbb85        0xc  Code  Gb  atoi.o [4]
audio_control_get_cur   0x8018a890       0x7c  Code  Gb  AudioFunction.o [1]
audio_control_get_max   0x8018a970       0x68  Code  Gb  AudioFunction.o [1]
audio_control_get_min   0x8018a90c       0x64  Code  Gb  AudioFunction.o [1]
audio_control_get_res   0x8018a9d8       0x64  Code  Gb  AudioFunction.o [1]
audio_control_set_cur   0x8018a758      0x138  Code  Gb  AudioFunction.o [1]
audio_data              0x83f6e800     0x8000  Data  Lc  avi_codec_task.o [1]
audio_endpoint_control_set_cur
                        0x8018aa3c       0x20  Code  Gb  AudioFunction.o [1]
audio_fifo              0x83f8d880     0x4000  Data  Lc  avi_codec_task.o [1]
audio_get_buffer        0x800f45d1      0x15c  Code  Lc  utils.o [5]
audio_mute_disable      0x80116404        0x4  Code  Lc  xm_iisadc.o [1]
audio_mute_enable       0x80116400        0x4  Code  Lc  xm_iisadc.o [1]
audio_mute_open         0x801163fc        0x4  Code  Lc  xm_iisadc.o [1]
auto_exposure_increment_calculate
                        0x80156c40       0x24  Code  Lc  arkn141_isp_exposure.o [1]
auto_exposure_increment_get
                        0x80156848      0x16c  Code  Lc  arkn141_isp_exposure.o [1]
auto_exposure_step_calculate
                        0x801569b4      0x28c  Code  Gb  arkn141_isp_exposure.o [1]
av_add_index_entry      0x800e3be1      0x116  Code  Gb  utils.o [6]
av_add_q                0x800edec1       0x98  Code  Gb  rational.o [7]
av_append_packet        0x800e62c1       0x48  Code  Gb  utils.o [6]
av_asprintf             0x800f0341       0x58  Code  Gb  avstring.o [7]
av_basename             0x800f00e1       0x12  Code  Gb  avstring.o [7]
av_bprint_channel_layout
                        0x8010ea31      0x140  Code  Gb  channel_layout.o [7]
av_bprint_chars         0x80109c71       0xfc  Code  Gb  bprint.o [7]
av_bprint_clear         0x80109b01        0xe  Code  Gb  bprint.o [7]
av_bprint_escape        0x8010a061      0x3d4  Code  Gb  bprint.o [7]
av_bprint_finalize      0x80109bd1       0x96  Code  Gb  bprint.o [7]
av_bprint_get_buffer    0x80109b11       0xb4  Code  Gb  bprint.o [7]
av_bprint_init          0x8010a441       0x9c  Code  Gb  bprint.o [7]
av_bprint_init_for_buffer
                        0x80109af1        0xe  Code  Gb  bprint.o [7]
av_bprint_strftime      0x80109e61      0x200  Code  Gb  bprint.o [7]
av_bprintf              0x80109d71       0xe6  Code  Gb  bprint.o [7]
av_buffer_alloc         0x80101b51       0x64  Code  Gb  buffer.o [7]
av_buffer_allocz        0x80101c01       0x74  Code  Gb  buffer.o [7]
av_buffer_create        0x80101821       0x6c  Code  Gb  buffer.o [7]
av_buffer_default_free  0x80101891        0xa  Code  Gb  buffer.o [7]
av_buffer_get_opaque    0x801016e1        0x6  Code  Gb  buffer.o [7]
av_buffer_get_ref_count
                        0x801016f1        0x6  Code  Gb  buffer.o [7]
av_buffer_is_writable   0x80101701       0x1c  Code  Gb  buffer.o [7]
av_buffer_make_writable
                        0x80101bc1       0x3e  Code  Gb  buffer.o [7]
av_buffer_pool_get      0x80101951      0x200  Code  Gb  buffer.o [7]
av_buffer_pool_init     0x80101721       0x2a  Code  Gb  buffer.o [7]
av_buffer_pool_uninit   0x80101781       0x4e  Code  Gb  buffer.o [7]
av_buffer_realloc       0x80101c81       0xf6  Code  Gb  buffer.o [7]
av_buffer_ref           0x80101751       0x22  Code  Gb  buffer.o [7]
av_buffer_remove_data   0x801016c1       0x14  Code  Gb  buffer.o [7]
av_buffer_unref         0x801017d1       0x46  Code  Gb  buffer.o [7]
av_calloc               0x800ec461       0x26  Code  Gb  mem.o [7]
av_channel_layout_extract_channel
                        0x8010e7b1       0xdc  Code  Gb  channel_layout.o [7]
av_close_input_file     0x800e51a1       0x14  Code  Gb  utils.o [6]
av_codec_context_class  0x801919d0       0x2c  Data  Lc  options.o [5]
av_codec_get_codec_descriptor
                        0x800f2cb1        0x6  Code  Gb  utils.o [5]
av_codec_get_id         0x800e4641       0x6c  Code  Gb  utils.o [6]
av_codec_get_lowres     0x800f2cd1        0x6  Code  Gb  utils.o [5]
av_codec_get_pkt_timebase
                        0x800f2c81       0x10  Code  Gb  utils.o [5]
av_codec_get_tag        0x800e0ae1       0x2c  Code  Gb  utils.o [6]
av_codec_get_tag2       0x800e0b11       0x3c  Code  Gb  utils.o [6]
av_codec_is_decoder     0x800f2a01        0xc  Code  Gb  utils.o [5]
av_codec_is_encoder     0x800f29e1       0x1a  Code  Gb  utils.o [5]
av_codec_next           0x800f29c1       0x1c  Code  Gb  utils.o [5]
av_codec_set_codec_descriptor
                        0x800f2cc1        0x6  Code  Gb  utils.o [5]
av_codec_set_lowres     0x800f2ce1        0x6  Code  Gb  utils.o [5]
av_codec_set_pkt_timebase
                        0x800f2c91       0x16  Code  Gb  utils.o [5]
av_compare_mod          0x800f09f1       0x58  Code  Gb  mathematics.o [7]
av_compare_ts           0x800f08c1      0x122  Code  Gb  mathematics.o [7]
av_copy_packet          0x800eed81       0x18  Code  Gb  avpacket.o [5]
av_copy_packet_side_data
                        0x800eebd1       0xde  Code  Gb  avpacket.o [5]
av_crc                  0x8010fae1       0xc8  Code  Gb  crc.o [7]
av_crc_get_table        0x8010fa81       0x5c  Code  Gb  crc.o [7]
av_crc_init             0x8010f8f1      0x18c  Code  Gb  crc.o [7]
av_crc_table            0x83fd1044     0x5000  Data  Lc  crc.o [7]
av_crc_table_params     0x801e38cc       0x28  Data  Lc  crc.o [7]
av_d2q                  0x800edd51      0x170  Code  Gb  rational.o [7]
av_d2str                0x800f02c1       0x2a  Code  Gb  avstring.o [7]
av_default_get_category
                        0x800ecab1        0x6  Code  Gb  log.o [7]
av_default_item_name    0x800ecaa1        0x6  Code  Gb  log.o [7]
av_demuxer_open         0x800e36e1       0x44  Code  Gb  utils.o [6]
av_destruct_packet      0x800ee8a1       0x12  Code  Gb  avpacket.o [5]
av_dict_copy            0x800f92a1       0x8c  Code  Gb  dict.o [7]
av_dict_count           0x800f8f31        0x6  Code  Gb  dict.o [7]
av_dict_free            0x800f9041       0x40  Code  Gb  dict.o [7]
av_dict_get             0x800f8f41       0xf2  Code  Gb  dict.o [7]
av_dict_parse_string    0x800f9331       0xc4  Code  Gb  dict.o [7]
av_dict_set             0x800f9081      0x218  Code  Gb  dict.o [7]
av_dirname              0x800f00b1       0x2a  Code  Gb  avstring.o [7]
av_div_q                0x800edfb1       0x50  Code  Gb  rational.o [7]
av_dump_format          0x800e2c91      0x480  Code  Gb  utils.o [6]
av_dup_packet           0x800eeda1       0x34  Code  Gb  avpacket.o [5]
av_dynarray2_add        0x800ec881      0x13e  Code  Gb  mem.o [7]
av_dynarray_add         0x800ec791       0xee  Code  Gb  mem.o [7]
av_escape               0x800f0051       0x5e  Code  Gb  avstring.o [7]
av_expr_eval            0x801087e1       0x4e  Code  Gb  eval.o [7]
av_expr_free            0x801089b1      0x146  Code  Gb  eval.o [7]
av_expr_parse           0x80109751      0x12c  Code  Gb  eval.o [7]
av_expr_parse_and_eval  0x80109881       0xa0  Code  Gb  eval.o [7]
av_fast_malloc          0x800f5511       0x32  Code  Gb  utils.o [5]
av_fast_padded_malloc   0x800f3f01       0x66  Code  Gb  utils.o [5]
av_fast_padded_mallocz  0x800f5551       0x56  Code  Gb  utils.o [5]
av_fast_realloc         0x800f4a51       0x2e  Code  Gb  utils.o [5]
av_filename_number_test
                        0x800e2571       0x28  Code  Gb  utils.o [6]
av_find_best_stream     0x800e4d91      0x1ea  Code  Gb  utils.o [6]
av_find_default_stream_index
                        0x800e0721       0x66  Code  Gb  utils.o [6]
av_find_info_tag        0x800eefb1       0xfa  Code  Gb  parseutils.o [7]
av_find_input_format    0x800e4d01       0x86  Code  Gb  utils.o [6]
av_find_nearest_q_idx   0x800ee0a1      0x1ac  Code  Gb  rational.o [7]
av_find_opt             0x800fa7f1       0xb8  Code  Gb  opt.o [7]
av_find_program_from_stream
                        0x800e0b51       0x72  Code  Gb  utils.o [6]
av_find_stream_info     0x800eadd1        0xa  Code  Gb  utils.o [6]
av_first_parser         0x83fed58c        0x4  Data  Lc  parser.o [5]
av_float2int            0x800f8be4        0x4  Code  Lc  avio.o [1]
av_fmt_ctx_get_duration_estimation_method
                        0x801063e1        0x6  Code  Gb  options.o [6]
av_format_context_class
                        0x801d8b10       0x2c  Data  Lc  options.o [6]
av_frame_alloc          0x8010c1a1       0x84  Code  Gb  frame.o [7]
av_frame_class          0x801919fc       0x2c  Data  Lc  options.o [5]
av_frame_clone          0x8010c401       0xb2  Code  Gb  frame.o [7]
av_frame_copy_props     0x8010b821      0x26a  Code  Gb  frame.o [7]
av_frame_free           0x8010bbd1       0x16  Code  Gb  frame.o [7]
av_frame_get_best_effort_timestamp
                        0x8010b3d1        0xc  Code  Gb  frame.o [7]
av_frame_get_buffer     0x8010be91       0x56  Code  Gb  frame.o [7]
av_frame_get_channel_layout
                        0x8010b431        0xc  Code  Gb  frame.o [7]
av_frame_get_channels   0x8010b451        0x6  Code  Gb  frame.o [7]
av_frame_get_decode_error_flags
                        0x8010b4b1        0x6  Code  Gb  frame.o [7]
av_frame_get_metadata   0x8010b491        0x6  Code  Gb  frame.o [7]
av_frame_get_pkt_duration
                        0x8010b3f1        0xc  Code  Gb  frame.o [7]
av_frame_get_pkt_pos    0x8010b411        0xc  Code  Gb  frame.o [7]
av_frame_get_pkt_size   0x8010b4d1        0x6  Code  Gb  frame.o [7]
av_frame_get_plane_buffer
                        0x8010b5e1      0x12c  Code  Gb  frame.o [7]
av_frame_get_qp_table   0x8010b501       0x16  Code  Gb  frame.o [7]
av_frame_get_sample_rate
                        0x8010b471        0x6  Code  Gb  frame.o [7]
av_frame_get_side_data  0x8010b521       0x36  Code  Gb  frame.o [7]
av_frame_is_writable    0x8010b711       0xd4  Code  Gb  frame.o [7]
av_frame_make_writable  0x8010c231      0x1c6  Code  Gb  frame.o [7]
av_frame_move_ref       0x8010c101       0x98  Code  Gb  frame.o [7]
av_frame_new_side_data  0x8010b561       0x74  Code  Gb  frame.o [7]
av_frame_ref            0x8010bef1      0x202  Code  Gb  frame.o [7]
av_frame_set_best_effort_timestamp
                        0x8010b3e1        0xa  Code  Gb  frame.o [7]
av_frame_set_channel_layout
                        0x8010b441        0xa  Code  Gb  frame.o [7]
av_frame_set_channels   0x8010b461        0x6  Code  Gb  frame.o [7]
av_frame_set_decode_error_flags
                        0x8010b4c1        0x6  Code  Gb  frame.o [7]
av_frame_set_metadata   0x8010b4a1        0x6  Code  Gb  frame.o [7]
av_frame_set_pkt_duration
                        0x8010b401        0xa  Code  Gb  frame.o [7]
av_frame_set_pkt_pos    0x8010b421        0xa  Code  Gb  frame.o [7]
av_frame_set_pkt_size   0x8010b4e1        0x6  Code  Gb  frame.o [7]
av_frame_set_qp_table   0x8010b7f1       0x2c  Code  Gb  frame.o [7]
av_frame_set_sample_rate
                        0x8010b481        0x6  Code  Gb  frame.o [7]
av_frame_unref          0x8010ba91      0x136  Code  Gb  frame.o [7]
av_free                 0x800ec281       0x44  Code  Gb  mem.o [7]
av_free_packet          0x800ee8c1       0x5a  Code  Gb  avpacket.o [5]
av_freep                0x800ec591       0x4c  Code  Gb  mem.o [7]
av_gcd                  0x800f04f1       0x46  Code  Gb  mathematics.o [7]
av_get_alt_sample_fmt   0x8010ebd1       0x26  Code  Gb  samplefmt.o [7]
av_get_audio_frame_duration
                        0x800f4d41      0x7ca  Code  Gb  utils.o [5]
av_get_bits_per_pixel   0x8010c941       0x44  Code  Gb  pixdesc.o [7]
av_get_bits_per_sample  0x800f5781      0x1b0  Code  Gb  utils.o [5]
av_get_bits_per_sample_fmt
                        0x8010ec91       0x24  Code  Gb  samplefmt.o [7]
av_get_bytes_per_sample
                        0x8010ec61       0x24  Code  Gb  samplefmt.o [7]
av_get_channel_description
                        0x8010e961       0xc2  Code  Gb  channel_layout.o [7]
av_get_channel_layout   0x8010e601      0x1a8  Code  Gb  channel_layout.o [7]
av_get_channel_layout_channel_index
                        0x8010e551       0x58  Code  Gb  channel_layout.o [7]
av_get_channel_layout_nb_channels
                        0x8010e491       0x54  Code  Gb  channel_layout.o [7]
av_get_channel_layout_string
                        0x8010eb71       0x2c  Code  Gb  channel_layout.o [7]
av_get_channel_name     0x8010e891       0xc8  Code  Gb  channel_layout.o [7]
av_get_codec_tag_string
                        0x800f35b1      0x226  Code  Gb  utils.o [5]
av_get_default_channel_layout
                        0x8010e4f1       0x56  Code  Gb  channel_layout.o [7]
av_get_double           0x800fd9b1      0x138  Code  Gb  opt.o [7]
av_get_exact_bits_per_sample
                        0x800f2d91      0x16c  Code  Gb  utils.o [5]
av_get_frame_filename   0x800e2471       0xfa  Code  Gb  utils.o [6]
av_get_int              0x800fd871      0x138  Code  Gb  opt.o [7]
av_get_media_type_string
                        0x8010f3e1       0x6a  Code  Gb  utils.o [7]
av_get_output_timestamp
                        0x800f0e81       0x1c  Code  Gb  mux.o [6]
av_get_packed_sample_fmt
                        0x8010ec01       0x22  Code  Gb  samplefmt.o [7]
av_get_packet           0x800e5731       0x36  Code  Gb  utils.o [6]
av_get_padded_bits_per_pixel
                        0x8010c991       0x74  Code  Gb  pixdesc.o [7]
av_get_pcm_codec        0x800f2f01       0x24  Code  Gb  utils.o [5]
av_get_picture_type_char
                        0x8010f451       0x94  Code  Gb  utils.o [7]
av_get_pix_fmt          0x8010cc91       0xe2  Code  Gb  pixdesc.o [7]
av_get_pix_fmt_name     0x8010c911       0x24  Code  Gb  pixdesc.o [7]
av_get_pix_fmt_string   0x8010cc01       0x8e  Code  Gb  pixdesc.o [7]
av_get_planar_sample_fmt
                        0x8010ec31       0x22  Code  Gb  samplefmt.o [7]
av_get_profile_name     0x800f2cf1       0x32  Code  Gb  utils.o [5]
av_get_q                0x800fd581      0x19c  Code  Gb  opt.o [7]
av_get_random_seed      0x801079a1        0x8  Code  Gb  random_seed.o [7]
av_get_sample_fmt       0x8010efa1      0x128  Code  Gb  samplefmt.o [7]
av_get_sample_fmt_name  0x8010eba1       0x24  Code  Gb  samplefmt.o [7]
av_get_sample_fmt_string
                        0x8010ef41       0x5e  Code  Gb  samplefmt.o [7]
av_get_standard_channel_layout
                        0x8010e5b1       0x44  Code  Gb  channel_layout.o [7]
av_get_string           0x800fb701      0x16c  Code  Gb  opt.o [7]
av_get_token            0x800f01c1       0xf8  Code  Gb  avstring.o [7]
av_gettime              0x800f8d71       0x2a  Code  Gb  time.o [7]
av_grow_packet          0x800eede1      0x112  Code  Gb  avpacket.o [5]
av_guess_codec          0x800e54d1       0x64  Code  Gb  utils.o [6]
av_guess_format         0x800e5381      0x14a  Code  Gb  utils.o [6]
av_guess_frame_rate     0x800e1191      0x118  Code  Gb  utils.o [6]
av_guess_sample_aspect_ratio
                        0x800e12b1      0x104  Code  Gb  utils.o [6]
av_hex_dump             0x800e2451       0x18  Code  Gb  utils.o [6]
av_hex_dump_log         0x800e2431       0x18  Code  Gb  utils.o [6]
av_hwaccel_next         0x800f3001       0x1c  Code  Gb  utils.o [5]
av_iformat_next         0x800e0691       0x1c  Code  Gb  utils.o [6]
av_image_alloc          0x8010dcb1      0x28a  Code  Gb  imgutils.o [7]
av_image_check_size     0x8010d421       0x72  Code  Gb  imgutils.o [7]
av_image_copy           0x8010e241      0x248  Code  Gb  imgutils.o [7]
av_image_copy_plane     0x8010d4a1       0xaa  Code  Gb  imgutils.o [7]
av_image_copy_to_buffer
                        0x8010df41      0x2fa  Code  Gb  imgutils.o [7]
av_image_fill_arrays    0x8010da21      0x238  Code  Gb  imgutils.o [7]
av_image_fill_linesizes
                        0x8010d8b1      0x162  Code  Gb  imgutils.o [7]
av_image_fill_max_pixsteps
                        0x8010d6f1      0x122  Code  Gb  imgutils.o [7]
av_image_fill_pointers  0x8010d551      0x194  Code  Gb  imgutils.o [7]
av_image_get_buffer_size
                        0x8010dc61       0x50  Code  Gb  imgutils.o [7]
av_image_get_linesize   0x8010d821       0x82  Code  Gb  imgutils.o [7]
av_index_search_timestamp
                        0x800e4f81      0x13e  Code  Gb  utils.o [6]
av_init_packet          0x800ee441       0x38  Code  Gb  avpacket.o [5]
av_int_list_length_for_size
                        0x8010f4f1       0xda  Code  Gb  utils.o [7]
av_interleaved_write_frame
                        0x800f2851      0x12a  Code  Gb  mux.o [6]
av_isdigit              0x800effa1        0xc  Code  Gb  avstring.o [7]
av_isgraph              0x800effb1        0xc  Code  Gb  avstring.o [7]
av_isspace              0x800effc1       0x44  Code  Gb  avstring.o [7]
av_isxdigit             0x800f0011       0x34  Code  Gb  avstring.o [7]
av_lockmgr_register     0x800f3061       0x72  Code  Gb  utils.o [5]
av_log                  0x800ed0a1       0x76  Code  Gb  log.o [7]
av_log_ask_for_sample   0x800f3541       0x32  Code  Gb  utils.o [5]
av_log_callback         0x83fc8e68        0x4  Data  Lc  log.o [7]
av_log_default_callback
                        0x800ecea1      0x1f8  Code  Gb  log.o [7]
av_log_format_line      0x800ecd11       0x46  Code  Gb  log.o [7]
av_log_get_level        0x800ecae1        0xc  Code  Gb  log.o [7]
av_log_level            0x83fc8e6c        0x4  Data  Lc  log.o [7]
av_log_missing_feature  0x800f3581       0x22  Code  Gb  utils.o [5]
av_log_set_callback     0x800ecb11        0xc  Code  Gb  log.o [7]
av_log_set_flags        0x800ecb01        0xc  Code  Gb  log.o [7]
av_log_set_level        0x800ecaf1        0xc  Code  Gb  log.o [7]
av_malloc               0x800ec2d1       0x54  Code  Gb  mem.o [7]
av_mallocz              0x800ec3f1       0x64  Code  Gb  mem.o [7]
av_match_ext            0x800e3b61       0x74  Code  Gb  utils.o [6]
av_max_alloc            0x800ebea1        0xc  Code  Gb  mem.o [7]
av_memcpy_backptr       0x800ebeb1      0x3ce  Code  Gb  mem.o [7]
av_memdup               0x800ec491       0x74  Code  Gb  mem.o [7]
av_mul_q                0x800edf61       0x48  Code  Gb  rational.o [7]
av_nearer_q             0x800ed7a1      0x17a  Code  Gb  rational.o [7]
av_new_packet           0x800eeb11       0x60  Code  Gb  avpacket.o [5]
av_new_program          0x800e31c1       0x7c  Code  Gb  utils.o [6]
av_new_stream           0x800e34a1       0x14  Code  Gb  utils.o [6]
av_next_option          0x800fa641       0x3c  Code  Gb  opt.o [7]
av_oformat_next         0x800e06b1       0x1c  Code  Gb  utils.o [6]
av_opt_child_class_next
                        0x800fa6e1       0x14  Code  Gb  opt.o [7]
av_opt_child_next       0x800fa6c1       0x14  Code  Gb  opt.o [7]
av_opt_eval_double      0x800fbf31       0x32  Code  Gb  opt.o [7]
av_opt_eval_flags       0x800fc031       0x32  Code  Gb  opt.o [7]
av_opt_eval_float       0x800fbf71       0x32  Code  Gb  opt.o [7]
av_opt_eval_int         0x800fbff1       0x32  Code  Gb  opt.o [7]
av_opt_eval_int64       0x800fbfb1       0x32  Code  Gb  opt.o [7]
av_opt_eval_q           0x800fbef1       0x32  Code  Gb  opt.o [7]
av_opt_find             0x800faf01       0x14  Code  Gb  opt.o [7]
av_opt_find2            0x800fad61      0x16e  Code  Gb  opt.o [7]
av_opt_flag_is_set      0x800fdaf1      0x186  Code  Gb  opt.o [7]
av_opt_free             0x800fa781       0x6e  Code  Gb  opt.o [7]
av_opt_freep_ranges     0x800fa741       0x3c  Code  Gb  opt.o [7]
av_opt_get              0x800fb2e1      0x350  Code  Gb  opt.o [7]
av_opt_get_double       0x800fd291      0x136  Code  Gb  opt.o [7]
av_opt_get_image_size   0x800fb141       0x7c  Code  Gb  opt.o [7]
av_opt_get_int          0x800fd721      0x146  Code  Gb  opt.o [7]
av_opt_get_key_value    0x800fab11       0x5a  Code  Gb  opt.o [7]
av_opt_get_pixel_fmt    0x800fb0d1       0x6e  Code  Gb  opt.o [7]
av_opt_get_q            0x800fd3d1      0x1a6  Code  Gb  opt.o [7]
av_opt_get_sample_fmt   0x800fc671       0x6e  Code  Gb  opt.o [7]
av_opt_get_video_rate   0x800faf21      0x1a6  Code  Gb  opt.o [7]
av_opt_next             0x800fa681       0x40  Code  Gb  opt.o [7]
av_opt_ptr              0x800faed1       0x2a  Code  Gb  opt.o [7]
av_opt_query_ranges     0x800fa701       0x3a  Code  Gb  opt.o [7]
av_opt_query_ranges_default
                        0x800fb871      0x1d8  Code  Gb  opt.o [7]
av_opt_set              0x800fc071      0x40e  Code  Gb  opt.o [7]
av_opt_set_bin          0x800fb251       0x86  Code  Gb  opt.o [7]
av_opt_set_defaults     0x800fe131        0xc  Code  Gb  opt.o [7]
av_opt_set_defaults2    0x800fdc81      0x4a4  Code  Gb  opt.o [7]
av_opt_set_dict         0x800fc481       0xa8  Code  Gb  opt.o [7]
av_opt_set_double       0x800fcb21       0x52  Code  Gb  opt.o [7]
av_opt_set_from_string  0x800fc6e1      0x142  Code  Gb  opt.o [7]
av_opt_set_image_size   0x800fb1c1       0x90  Code  Gb  opt.o [7]
av_opt_set_int          0x800fcb81       0x5e  Code  Gb  opt.o [7]
av_opt_set_pixel_fmt    0x800fc971      0x13a  Code  Gb  opt.o [7]
av_opt_set_q            0x800fcab1       0x6a  Code  Gb  opt.o [7]
av_opt_set_sample_fmt   0x800fc831      0x13a  Code  Gb  opt.o [7]
av_opt_set_video_rate   0x800fb631       0xc6  Code  Gb  opt.o [7]
av_opt_show2            0x800fd241       0x46  Code  Gb  opt.o [7]
av_packet_from_data     0x800eeb71       0x54  Code  Gb  avpacket.o [5]
av_packet_get_side_data
                        0x800ee481       0x52  Code  Gb  avpacket.o [5]
av_packet_merge_side_data
                        0x800ee921      0x1b8  Code  Gb  avpacket.o [5]
av_packet_new_side_data
                        0x800ee831       0x70  Code  Gb  avpacket.o [5]
av_packet_shrink_side_data
                        0x800ee4e1       0x50  Code  Gb  avpacket.o [5]
av_packet_split_side_data
                        0x800ee561      0x2a8  Code  Gb  avpacket.o [5]
av_parse_color          0x800ef171      0x29c  Code  Gb  parseutils.o [7]
av_parse_ratio          0x800ef411       0x9a  Code  Gb  parseutils.o [7]
av_parse_time           0x800ef8a1      0x3ba  Code  Gb  parseutils.o [7]
av_parse_video_rate     0x800efc61      0x1d0  Code  Gb  parseutils.o [7]
av_parse_video_size     0x800ef0c1       0xa6  Code  Gb  parseutils.o [7]
av_parser_change        0x800fa141       0x80  Code  Gb  parser.o [5]
av_parser_close         0x800fa121       0x1c  Code  Gb  parser.o [5]
av_parser_init          0x800fa1c1       0xa2  Code  Gb  parser.o [5]
av_parser_next          0x800f99e1       0x1c  Code  Gb  parser.o [5]
av_parser_parse2        0x800fa271      0x3c8  Code  Gb  parser.o [5]
av_picture_copy         0x80118a71       0x20  Code  Gb  avpicture.o [5]
av_pix_fmt_count_planes
                        0x8010cae1       0x66  Code  Gb  pixdesc.o [7]
av_pix_fmt_desc_get     0x8010ca11       0x16  Code  Gb  pixdesc.o [7]
av_pix_fmt_desc_get_id  0x8010ca71       0x30  Code  Gb  pixdesc.o [7]
av_pix_fmt_desc_next    0x8010ca31       0x34  Code  Gb  pixdesc.o [7]
av_pix_fmt_descriptors  0x801c6118     0x1410  Data  Gb  pixdesc.o [7]
av_pix_fmt_get_chroma_sub_sample
                        0x8010caa1       0x36  Code  Gb  pixdesc.o [7]
av_pix_fmt_swap_endianness
                        0x8010cb51       0xa6  Code  Gb  pixdesc.o [7]
av_pkt_dump2            0x800e4001       0x28  Code  Gb  utils.o [6]
av_pkt_dump_log2        0x800e3fd1       0x2c  Code  Gb  utils.o [6]
av_probe_input_buffer   0x800e6081      0x21a  Code  Gb  utils.o [6]
av_probe_input_format   0x800e62a1       0x16  Code  Gb  utils.o [6]
av_probe_input_format2  0x800e6061       0x1c  Code  Gb  utils.o [6]
av_probe_input_format3  0x800e5771      0x1e4  Code  Gb  utils.o [6]
av_read_frame           0x800eade1      0x4b0  Code  Gb  utils.o [6]
av_read_image_line      0x8010c4c1      0x2de  Code  Gb  pixdesc.o [7]
av_read_packet          0x800e6051        0x8  Code  Gb  utils.o [6]
av_read_pause           0x800e3691       0x22  Code  Gb  utils.o [6]
av_read_play            0x800e36c1       0x20  Code  Gb  utils.o [6]
av_realloc              0x800ec331       0x84  Code  Gb  mem.o [7]
av_realloc_array        0x800ec3c1       0x2a  Code  Gb  mem.o [7]
av_realloc_f            0x800ec5e1       0xb2  Code  Gb  mem.o [7]
av_reallocp_array       0x800ec6a1       0xe2  Code  Gb  mem.o [7]
av_reduce               0x800ed921      0x428  Code  Gb  rational.o [7]
av_register_all         0x80110181       0x56  Code  Gb  allformats.o [6]
av_register_codec_parser
                        0x800f9a01       0x10  Code  Gb  parser.o [5]
av_register_hwaccel     0x800f2fd1       0x22  Code  Gb  utils.o [5]
av_register_input_format
                        0x800e06d1       0x1e  Code  Gb  utils.o [6]
av_register_output_format
                        0x800e06f1       0x22  Code  Gb  utils.o [6]
av_rescale              0x800f0871       0x18  Code  Gb  mathematics.o [7]
av_rescale_delta        0x800f0a81      0x36c  Code  Gb  mathematics.o [7]
av_rescale_q            0x800f0a51       0x2a  Code  Gb  mathematics.o [7]
av_rescale_q_rnd        0x800f0891       0x2a  Code  Gb  mathematics.o [7]
av_rescale_rnd          0x800f0541      0x32e  Code  Gb  mathematics.o [7]
av_reverse              0x801e24b0      0x100  Data  Gb  mathematics.o [7]
av_sample_fmt_is_planar
                        0x8010ecc1       0x24  Code  Gb  samplefmt.o [7]
av_samples_alloc        0x8010f1f1      0x136  Code  Gb  samplefmt.o [7]
av_samples_alloc_array_and_samples
                        0x8010f331       0x88  Code  Gb  samplefmt.o [7]
av_samples_copy         0x8010ee51       0xe6  Code  Gb  samplefmt.o [7]
av_samples_fill_arrays  0x8010f0d1      0x116  Code  Gb  samplefmt.o [7]
av_samples_get_buffer_size
                        0x8010ecf1       0xc8  Code  Gb  samplefmt.o [7]
av_samples_set_silence  0x8010edc1       0x86  Code  Gb  samplefmt.o [7]
av_seek_frame           0x800eb291      0x60e  Code  Gb  utils.o [6]
av_set_double           0x800fccd1       0x66  Code  Gb  opt.o [7]
av_set_int              0x800fcbe1       0x6e  Code  Gb  opt.o [7]
av_set_options_string   0x800fc531      0x110  Code  Gb  opt.o [7]
av_set_pts_info         0x800e7a81       0xc4  Code  Gb  utils.o [6]
av_set_q                0x800fcc51       0x80  Code  Gb  opt.o [7]
av_set_string3          0x800fc641       0x2c  Code  Gb  opt.o [7]
av_shrink_packet        0x800ee811       0x18  Code  Gb  avpacket.o [5]
av_small_strptime       0x800ef4b1      0x3e8  Code  Gb  parseutils.o [7]
av_strcasecmp           0x800efef1       0x4c  Code  Gb  avstring.o [7]
av_strdup               0x800ec511       0x74  Code  Gb  mem.o [7]
av_stream_get_r_frame_rate
                        0x800e0661        0xe  Code  Gb  utils.o [6]
av_stream_set_r_frame_rate
                        0x800e0671       0x16  Code  Gb  utils.o [6]
av_strerror             0x8010f871       0x7c  Code  Gb  error.o [7]
av_stristart            0x800efe91       0x56  Code  Gb  avstring.o [7]
av_stristr              0x800f0401       0x4c  Code  Gb  avstring.o [7]
av_strlcat              0x800f0451       0x76  Code  Gb  avstring.o [7]
av_strlcatf             0x800f02f1       0x44  Code  Gb  avstring.o [7]
av_strlcpy              0x800f0171       0x4a  Code  Gb  avstring.o [7]
av_strncasecmp          0x800eff41       0x54  Code  Gb  avstring.o [7]
av_strnstr              0x800f03a1       0x54  Code  Gb  avstring.o [7]
av_strstart             0x800efe51       0x3c  Code  Gb  avstring.o [7]
av_strtod               0x80108851      0x158  Code  Gb  eval.o [7]
av_strtok               0x800f0101       0x6a  Code  Gb  avstring.o [7]
av_sub_q                0x800ee001       0x9c  Code  Gb  rational.o [7]
av_subtitle_rect_class  0x80191a28       0x2c  Data  Lc  options.o [5]
av_timegm               0x800eef01       0xa8  Code  Gb  parseutils.o [7]
av_ts_make_string       0x800f0ff1       0x40  Code  Lc  mux.o [6]
av_url_split            0x800e1611      0x1bc  Code  Gb  utils.o [6]
av_usleep               0x800f8d21       0x48  Code  Gb  time.o [7]
av_vlog                 0x800ecac1       0x12  Code  Gb  log.o [7]
av_write_frame          0x800f2791       0xbc  Code  Gb  mux.o [6]
av_write_image_line     0x8010c7a1      0x170  Code  Gb  pixdesc.o [7]
av_write_trailer        0x800f17e1      0x100  Code  Gb  mux.o [6]
av_xiphlacing           0x800f2f41       0x48  Code  Gb  utils.o [5]
avci100_1080i_extradata.12988
                        0x801df97c       0x61  Data  Lc  utils.o [6]
avci100_1080p_extradata.12987
                        0x801df9dd       0x51  Data  Lc  utils.o [6]
avci100_720p_extradata.12990
                        0x801dfa8f       0x59  Data  Lc  utils.o [6]
avci50_1080i_extradata.12989
                        0x801dfa2e       0x61  Data  Lc  utils.o [6]
avcodec_align_dimensions
                        0x800f55b1      0x1ce  Code  Gb  utils.o [5]
avcodec_align_dimensions2
                        0x800f2a21      0x1ae  Code  Gb  utils.o [5]
avcodec_alloc_context3  0x800f99b1       0x28  Code  Gb  options.o [5]
avcodec_alloc_frame     0x800f7331       0x78  Code  Gb  utils.o [5]
avcodec_close           0x80105a39       0xbc  Code  Gb  utils.o [5]
avcodec_configuration   0x800f2d41        0xa  Code  Gb  utils.o [5]
avcodec_copy_context    0x800f9641      0x18a  Code  Gb  options.o [5]
avcodec_decode_audio3   0x800f6b61      0x10e  Code  Gb  utils.o [5]
avcodec_decode_audio4   0x800f6471      0x6e4  Code  Gb  utils.o [5]
avcodec_decode_subtitle2
                        0x800f3981      0x2d4  Code  Gb  utils.o [5]
avcodec_decode_video2   0x800f6d81      0x5aa  Code  Gb  utils.o [5]
avcodec_default_execute
                        0x800f2bd1       0x54  Code  Gb  utils.o [5]
avcodec_default_execute2
                        0x800f2c31       0x44  Code  Gb  utils.o [5]
avcodec_default_get_buffer
                        0x800f78c1       0x3a  Code  Gb  utils.o [5]
avcodec_default_get_buffer2
                        0x800f7881       0x3a  Code  Gb  utils.o [5]
avcodec_default_get_format
                        0x800f3861       0x36  Code  Gb  utils.o [5]
avcodec_default_reget_buffer
                        0x800f34d1       0x30  Code  Gb  utils.o [5]
avcodec_default_release_buffer
                        0x800f3501       0x3e  Code  Gb  utils.o [5]
avcodec_descriptor_get  0x80103431       0x54  Code  Gb  codec_desc.o [5]
avcodec_descriptor_get_by_name
                        0x801034d1       0x54  Code  Gb  codec_desc.o [5]
avcodec_descriptor_next
                        0x80103491       0x3c  Code  Gb  codec_desc.o [5]
avcodec_encode_audio    0x800f7dd1      0x49e  Code  Gb  utils.o [5]
avcodec_encode_audio2   0x800f7901      0x4cc  Code  Gb  utils.o [5]
avcodec_encode_subtitle
                        0x800f3361       0x34  Code  Gb  utils.o [5]
avcodec_encode_video    0x800f3e61       0x92  Code  Gb  utils.o [5]
avcodec_encode_video2   0x800f3c61      0x1fe  Code  Gb  utils.o [5]
avcodec_fill_audio_frame
                        0x800f4991       0xb2  Code  Gb  utils.o [5]
avcodec_find_decoder    0x800f4c01       0xa0  Code  Gb  utils.o [5]
avcodec_find_decoder_by_name
                        0x800f37e1       0x36  Code  Gb  utils.o [5]
avcodec_find_encoder    0x800f4a81       0xb0  Code  Gb  utils.o [5]
avcodec_find_encoder_by_name
                        0x800f3821       0x40  Code  Gb  utils.o [5]
avcodec_flush_buffers   0x800f2d61       0x24  Code  Gb  utils.o [5]
avcodec_free_frame      0x800f38a1       0x1e  Code  Gb  utils.o [5]
avcodec_get_class       0x800f95d1        0xa  Code  Gb  options.o [5]
avcodec_get_context_defaults3
                        0x800f97d1      0x1e0  Code  Gb  options.o [5]
avcodec_get_edge_width  0x800f2a11        0x4  Code  Gb  utils.o [5]
avcodec_get_frame_class
                        0x800f95e1        0x8  Code  Gb  options.o [5]
avcodec_get_frame_defaults
                        0x800f3f71       0x68  Code  Gb  utils.o [5]
avcodec_get_name        0x800f4ca1       0x54  Code  Gb  utils.o [5]
avcodec_get_subtitle_rect_class
                        0x800f95f1        0x8  Code  Gb  options.o [5]
avcodec_get_type        0x800f4b31       0xd0  Code  Gb  utils.o [5]
avcodec_is_open         0x800f31e1        0xa  Code  Gb  utils.o [5]
avcodec_license         0x800f2d51        0x8  Code  Gb  utils.o [5]
avcodec_open2           0x800f5931      0x834  Code  Gb  utils.o [5]
avcodec_pix_fmt_to_codec_tag
                        0x80105b31       0x2c  Code  Gb  raw.o [5]
avcodec_register        0x80105a01       0x38  Code  Gb  utils.o [5]
avcodec_register_all    0x80126691       0x38  Code  Gb  allcodecs.o [5]
avcodec_set_dimensions  0x800f45b1       0x1e  Code  Gb  utils.o [5]
avcodec_string          0x800f8271      0x740  Code  Gb  utils.o [5]
avcodec_version         0x800f2d31        0xa  Code  Gb  utils.o [5]
avformat_alloc_context  0x80106481       0x2c  Code  Gb  options.o [6]
avformat_alloc_output_context
                        0x800f19d1       0x1c  Code  Gb  mux.o [6]
avformat_alloc_output_context2
                        0x800f18e1       0xe8  Code  Gb  mux.o [6]
avformat_close_input    0x800e50c1       0xdc  Code  Gb  utils.o [6]
avformat_configuration  0x800e0551        0xa  Code  Gb  utils.o [6]
avformat_find_stream_info
                        0x800e87c1     0x260e  Code  Gb  utils.o [6]
avformat_free_context   0x800e35b1       0xdc  Code  Gb  utils.o [6]
avformat_get_class      0x801063f1        0xa  Code  Gb  options.o [6]
avformat_get_riff_audio_tags
                        0x800e0c91        0xa  Code  Gb  utils.o [6]
avformat_get_riff_video_tags
                        0x800e0c81        0xa  Code  Gb  utils.o [6]
avformat_license        0x800e0561        0x8  Code  Gb  utils.o [6]
avformat_match_stream_specifier
                        0x800e0f21      0x270  Code  Gb  utils.o [6]
avformat_mutex          0x83fed2a4        0x4  Data  Lc  utils.o [5]
avformat_network_deinit
                        0x800e0c71        0x4  Code  Gb  utils.o [6]
avformat_network_init   0x800e0c61        0x4  Code  Gb  utils.o [6]
avformat_new_stream     0x800e32e1      0x1b4  Code  Gb  utils.o [6]
avformat_open_input     0x800ebac1      0x3a2  Code  Gb  utils.o [6]
avformat_query_codec    0x800e4151       0x84  Code  Gb  utils.o [6]
avformat_queue_attached_pictures
                        0x800e3ae1       0x7c  Code  Gb  utils.o [6]
avformat_seek_file      0x800eb8a1      0x214  Code  Gb  utils.o [6]
avformat_version        0x800e0541        0xa  Code  Gb  utils.o [6]
avformat_write_header   0x800f19f1      0x692  Code  Gb  mux.o [6]
avg_rc_error            0x801be130       0x80  Code  Lc  H264RateControl.o [1]
avi_headers             0x801e1e20       0x30  Data  Lc  avidec.o [6]
avi_load_index          0x80199a91      0x3c0  Code  Lc  avidec.o [6]
avi_metadata_conv       0x801e1e98       0x10  Data  Lc  avidec.o [6]
avi_probe               0x8019abc1       0x38  Code  Lc  avidec.o [6]
avi_read_close          0x8019a321       0x54  Code  Lc  avidec.o [6]
avi_read_header         0x8019af71     0x19ac  Code  Lc  avidec.o [6]
avi_read_packet         0x8019a381      0x83c  Code  Lc  avidec.o [6]
avi_read_seek           0x80199e51      0x4c6  Code  Lc  avidec.o [6]
avi_sync                0x80199561      0x52a  Code  Lc  avidec.o [6]
avi_write_counters      0x801c7531      0x152  Code  Lc  avienc.o [6]
avi_write_header        0x801c8031      0x8a2  Code  Lc  avienc.o [6]
avi_write_idx1          0x801c7691      0x1b2  Code  Lc  avienc.o [6]
avi_write_ix            0x801c7851      0x2a8  Code  Lc  avienc.o [6]
avi_write_packet        0x801c7c81      0x3aa  Code  Lc  avienc.o [6]
avi_write_trailer       0x801c7b01      0x178  Code  Lc  avienc.o [6]
avio_alloc_context      0x800fe651       0x9c  Code  Gb  aviobuf.o [6]
avio_check              0x801056a1       0x70  Code  Gb  avio.o [6]
avio_close              0x800fee11       0xd8  Code  Gb  aviobuf.o [6]
avio_close_dyn_buf      0x800fed61       0xa8  Code  Gb  aviobuf.o [6]
avio_closep             0x80101171       0xe8  Code  Gb  aviobuf.o [6]
avio_enum_protocols     0x80104ef1       0x54  Code  Gb  avio.o [6]
avio_flush              0x800fea21       0x64  Code  Gb  aviobuf.o [6]
avio_get_str            0x800ff481       0xb6  Code  Gb  aviobuf.o [6]
avio_get_str16be        0x800ff841      0x19a  Code  Gb  aviobuf.o [6]
avio_get_str16le        0x800ff6a1      0x19a  Code  Gb  aviobuf.o [6]
avio_open               0x800fe8d1       0x38  Code  Gb  aviobuf.o [6]
avio_open2              0x800fe891       0x38  Code  Gb  aviobuf.o [6]
avio_open_dyn_buf       0x800fe911       0x54  Code  Gb  aviobuf.o [6]
avio_pause              0x800fe361       0x16  Code  Gb  aviobuf.o [6]
avio_printf             0x800feb81       0x4e  Code  Gb  aviobuf.o [6]
avio_put_str            0x800febd1       0x48  Code  Gb  aviobuf.o [6]
avio_put_str16le        0x80100761      0x434  Code  Gb  aviobuf.o [6]
avio_r8                 0x800ff0b1       0x30  Code  Gb  aviobuf.o [6]
avio_rb16               0x800ff601       0x50  Code  Gb  aviobuf.o [6]
avio_rb24               0x800ff9e1       0x70  Code  Gb  aviobuf.o [6]
avio_rb32               0x800ffa51       0x90  Code  Gb  aviobuf.o [6]
avio_rb64               0x800ffbe1      0x138  Code  Gb  aviobuf.o [6]
avio_read               0x800ff1a1       0xec  Code  Gb  aviobuf.o [6]
avio_rl16               0x800ff651       0x50  Code  Gb  aviobuf.o [6]
avio_rl24               0x800ffb71       0x6e  Code  Gb  aviobuf.o [6]
avio_rl32               0x800ffae1       0x8e  Code  Gb  aviobuf.o [6]
avio_rl64               0x800ffd21      0x126  Code  Gb  aviobuf.o [6]
avio_seek               0x800ff291      0x1e0  Code  Gb  aviobuf.o [6]
avio_seek_time          0x800fe381       0x78  Code  Gb  aviobuf.o [6]
avio_size               0x800fe281       0x7a  Code  Gb  aviobuf.o [6]
avio_skip               0x800ff471       0x10  Code  Gb  aviobuf.o [6]
avio_w8                 0x800feef1       0x76  Code  Gb  aviobuf.o [6]
avio_wb16               0x801004d1       0xf6  Code  Gb  aviobuf.o [6]
avio_wb24               0x801005d1      0x186  Code  Gb  aviobuf.o [6]
avio_wb32               0x801001c1      0x206  Code  Gb  aviobuf.o [6]
avio_wb64               0x80101261      0x436  Code  Gb  aviobuf.o [6]
avio_wl16               0x801003d1       0xf6  Code  Gb  aviobuf.o [6]
avio_wl24               0x80100ba1      0x186  Code  Gb  aviobuf.o [6]
avio_wl32               0x800fffb1      0x206  Code  Gb  aviobuf.o [6]
avio_wl64               0x80100d31      0x436  Code  Gb  aviobuf.o [6]
avio_write              0x800fea91       0xe6  Code  Gb  aviobuf.o [6]
avpicture_alloc         0x80118aa1       0x2c  Code  Gb  avpicture.o [5]
avpicture_fill          0x80118b11       0x22  Code  Gb  avpicture.o [5]
avpicture_free          0x80118a91        0xa  Code  Gb  avpicture.o [5]
avpicture_get_size      0x80118ad1        0xa  Code  Gb  avpicture.o [5]
avpicture_layout        0x80118ae1       0x22  Code  Gb  avpicture.o [5]
avpriv_bprint_to_extradata
                        0x800f32e1       0x24  Code  Gb  utils.o [5]
avpriv_color_frame      0x800f44b1       0xf8  Code  Gb  utils.o [5]
avpriv_find_pix_fmt     0x80105b61       0x26  Code  Gb  rawdec.o [5]
avpriv_find_start_code  0x800f31f1       0xe6  Code  Gb  utils.o [5]
avpriv_frame_get_metadatap
                        0x8010b4f1        0x6  Code  Gb  frame.o [7]
avpriv_lock_avformat    0x800f30e1       0x30  Code  Gb  utils.o [5]
avpriv_new_chapter      0x800e3241       0x9c  Code  Gb  utils.o [6]
avpriv_report_missing_feature
                        0x800ed171       0x40  Code  Gb  log.o [7]
avpriv_request_sample   0x800ed121       0x50  Code  Gb  log.o [7]
avpriv_set_pts_info     0x800e1c11       0xc4  Code  Gb  utils.o [6]
avpriv_set_systematic_pal2
                        0x8010d311      0x108  Code  Gb  imgutils.o [7]
avpriv_toupper4         0x800f3141       0x50  Code  Gb  utils.o [5]
avpriv_unlock_avformat  0x800f3111       0x30  Code  Gb  utils.o [5]
avsubtitle_free         0x800f38e1       0x98  Code  Gb  utils.o [5]
avutil_configuration    0x8010f3c1        0xa  Code  Gb  utils.o [7]
avutil_license          0x8010f3d1        0x8  Code  Gb  utils.o [7]
avutil_version          0x8010f5d1       0x20  Code  Gb  utils.o [7]
aysn_code               0x83fc8310       0x50  Data  Lc  xm_uvc_socket.o [1]
b                       0x801d33f0      0x5d0  Data  Lc  xquad.o [9]
b100                    0x8016040a        0x6  Data  Gb  tab_ld8k.o [13]
bBackLightOn            0x83fc8c23        0x1  Data  Lc  target.o [1]
bBackupVoltageLevel     0x83fc8c25        0x1  Data  Gb  target.o [1]
bCurAltSet              0x83fed3f3        0x1  Data  Gb  UsbRequest.o [1]
bDebugFlg               0x83fed5aa        0x1  Data  Gb  globaldata.o [1]
bDualFormatOrder        0x83fc8c2b        0x1  Data  Gb  globaldata.o [1]
bFlg_mjpeg              0x83fed5a9        0x1  Data  Gb  descript_def.o [1]
bFlg_needFormatChange   0x83fed5a8        0x1  Data  Gb  VideoFunction.o [1]
bHdmiPlugIn             0x83fc8c26        0x1  Data  Gb  target.o [1]
bOtherSpeedDescFlg      0x83fed5a3        0x1  Data  Gb  UsbRequest.o [1]
bResetFlg               0x83fed5a1        0x1  Data  Gb  interrupt.o [1]
bRollDegree             0x83fc9041        0x1  Data  Gb  sensorlib.o [1]
bSDCardState            0x83fc8c24        0x1  Data  Gb  target.o [1]
bSuspendFlg             0x83fed5a0        0x1  Data  Gb  interrupt.o [1]
bVideoContrastLevel     0x83fc8c21        0x1  Data  Lc  target.o [1]
bVoltageLevel           0x83fc8c22        0x1  Data  Lc  target.o [1]
backlight_check_auto_off
                        0x80106680       0x54  Code  Gb  target.o [1]
backlight_clear_auto_off_ticket
                        0x80106618       0x68  Code  Gb  target.o [1]
base_port               0x83fc9010        0x4  Data  Lc  hx170dec.o [1]
base_port               0x83fc9018        0x4  Data  Gb  hx280enc.o [1]
basic_service_opened    0x83fc7a70        0x4  Data  Lc  xmvideoitem.o [1]
battery_voltage_count   0x83fecd10        0x4  Data  Lc  xm_adc.o [1]
battery_voltage_index   0x83fecd0c        0x4  Data  Lc  xm_adc.o [1]
battery_voltage_value   0x83fecccc       0x40  Data  Lc  xm_adc.o [1]
bit_stream_buff         0x83fc8db4        0x4  Data  Lc  g729_dec.o [13]
bit_stream_curr         0x83fc8dbc        0x4  Data  Lc  g729_dec.o [13]
bit_stream_last         0x83fc8db8        0x4  Data  Lc  g729_dec.o [13]
bit_stream_size         0x83fc8dc0        0x4  Data  Lc  g729_dec.o [13]
bits2prm_ld8k           0x80174594      0x138  Code  Gb  bits.o [13]
bkgColor                0x83fecbc0        0x4  Data  Gb  xm_win_gdi.o [1]
bl_off_ticket           0x83fc8c0c        0x4  Data  Lc  target.o [1]
bl_off_time             0x83fc8c08        0x4  Data  Lc  target.o [1]
block_len               0x83fc8c50        0x2  Data  Lc  sdmmc.o [1]
block_write_access_sema
                        0x83fea178       0x14  Data  Lc  xm_h264_cache_file.o [1]
bmAttrAdjust            0x83fed5a4        0x2  Data  Gb  globaldata.o [1]
bmCamAttrControls1      0x83fc6774        0x1  Data  Gb  descript_def.o [1]
bmCamAttrControls2      0x83fc6775        0x1  Data  Gb  descript_def.o [1]
bmVideoAttrContrls      0x83fc6674        0x2  Data  Gb  descript_def.o [1]
boundaries_check        0x80155e6c       0x20  Code  Lc  arkn141_isp_exposure_cmos.o [1]
boundary_max_check      0x80155e54       0x18  Code  Lc  arkn141_isp_exposure_cmos.o [1]
boundary_min_check      0x80155e3c       0x18  Code  Lc  arkn141_isp_exposure_cmos.o [1]
boundary_min_check_u16  0x80155e28       0x14  Code  Lc  arkn141_isp_exposure_cmos.o [1]
bsdDecodeReturn         0x801a86a4       0x38  Code  Lc  h264decapi.o [1]
bsearch                 0x80107a3b       0x3e  Code  Gb  bsearch.o [4]
build_xlaw_table        0x801e0355       0x8a  Code  Lc  pcm.o [5]
bulkLoadFifo            0x80147f30       0xb4  Code  Lc  UvcVideo.o [1]
burst_load_fifo         0x80147efc       0x34  Code  Lc  UvcVideo.o [1]
bus_burst_length        0x801df428        0x4  Data  Lc  arkn141_h264_decoder.o [1]
busy_data               0x8012094c       0xc0  Code  Lc  sdmmc.o [1]
busy_delay              0x80112bb8       0x14  Code  Gb  rtosinit.o [1]
c                       0x801d39c0       0x30  Data  Lc  xquad.o [9]
cabacInitValues         0x801ca774      0xe60  Data  Gb  h264hwd_cabac.o [1]
cache_block_access_sema
                        0x83fea148       0x14  Data  Lc  xm_h264_cache_file.o [1]
cache_block_free        0x83fea140        0x8  Data  Lc  xm_h264_cache_file.o [1]
cache_cmd_access_sema   0x83fe18fc        0x4  Data  Lc  xm_h264_cache_command_queue.o [1]
cache_cmd_count         0x83fe1904        0x4  Data  Lc  xm_h264_cache_command_queue.o [1]
cache_cmd_count_sema    0x83fe1900        0x4  Data  Lc  xm_h264_cache_command_queue.o [1]
cache_debug_assert      0x8013d994       0x20  Code  Lc  xm_h264_cache_file.o [1]
cache_file_system_busy_block_count
                        0x83fea068        0x4  Data  Lc  xm_h264_cache_file.o [1]
cache_file_system_dirty_block_statistics
                        0x83fea06c       0x84  Data  Lc  xm_h264_cache_file.o [1]
cache_file_system_not_busy_event
                        0x83fea15c        0x8  Data  Lc  xm_h264_cache_file.o [1]
calc_alert_view_move_step_and_setup_initial_osd_layer_position
                        0x80162cc4      0x280  Code  Lc  xm_osd_layer_animate.o [1]
calc_middle_rotate_matrix_width
                        0x801164a8       0x20  Code  Lc  xm_video_task.o [1]
calc_move_step_and_setup_initial_osd_layer_position
                        0x80162070      0xc54  Code  Lc  xm_osd_layer_animate.o [1]
camera_device_usb_init  0x8015a760       0x6c  Code  Gb  pc_main.o [1]
canvas_clear            0x801cdbe4       0x18  Code  Lc  xm_canvas.o [1]
canvas_dst_in           0x801cdeb0       0xbc  Code  Lc  xm_canvas.o [1]
canvas_dst_over         0x801cdd30       0x78  Code  Lc  xm_canvas.o [1]
canvas_screen           0x801cdf6c       0xdc  Code  Lc  xm_canvas.o [1]
canvas_src              0x801cdbfc       0x58  Code  Lc  xm_canvas.o [1]
canvas_src_in           0x801cdda8      0x108  Code  Lc  xm_canvas.o [1]
canvas_src_over         0x801cdc54       0xdc  Code  Lc  xm_canvas.o [1]
card_dma_detect_ch_disable
                        0x80120a0c       0x84  Code  Lc  sdmmc.o [1]
cbMapData               0x83fb6088        0x4  Data  Lc  xm_tester_script.o [1]
ceil                    0x80124820             Code  Gb  ceil.o [9]
ceill                   0x80124820             Code  Gb  ceil.o [9]
ch0_osd_rgb_buffer      0x82401480   0x4bf000  Data  Lc  xm_osd_framebuffer_config.o [1]
ch0_osd_yuv_buffer      0x83810600   0x25f800  Data  Lc  xm_osd_framebuffer_config.o [1]
ch_no                   0x83fed1f4        0xc  Data  Lc  xm_hybrid_stream.o [1]
chang_clk               0x8011fb78      0x12c  Code  Lc  sdmmc.o [1]
change_task_do          0x83fc901c        0x4  Data  Lc  os_change_task.o [1]
channel_layout_map      0x801de870      0x1b0  Data  Lc  channel_layout.o [7]
channel_names           0x801dea20      0x120  Data  Lc  channel_layout.o [7]
check_and_create_directory
                        0x8013d574      0x160  Code  Gb  xm_core_file.o [1]
check_button_clicked    0x80191468       0x94  Code  Lc  app_button.o [1]
checks_done.3935        0x83fed590        0x4  Data  Lc  utils.o [7]
checksum_int            0x801408d0       0x28  Code  Lc  CdrRequest.o [1]
checksum_int            0x80135450       0x28  Code  Lc  xm_system_update.o [1]
class                   0x801e15ec       0x2c  Data  Lc  x264_arkn141.o [5]
class                   0x801e2eb8       0x2c  Data  Lc  eval.o [7]
clear_codec_command     0x80112e6c       0x2c  Code  Lc  avi_codec_task.o [1]
clear_response_message  0x80112e64        0x8  Code  Lc  avi_codec_task.o [1]
clear_video_layer       0x801d1d4c       0x90  Code  Lc  app_videoview.o [1]
clock_gating            0x801df418        0x4  Data  Lc  arkn141_h264_decoder.o [1]
close                   0x8013d77c       0x18  Code  Gb  xm_core_file.o [1]
close_map_file          0x80165540       0x20  Code  Lc  xm_tester_script.o [1]
close_recycle_task      0x80114558       0x10  Code  Lc  avi_codec_task.o [1]
cmd_free                0x83fe2d1c        0x8  Data  Lc  xm_h264_cache_command_queue.o [1]
cmd_pool                0x83fe2d14        0x8  Data  Lc  xm_h264_cache_command_queue.o [1]
cmd_unit                0x83fe1914     0x1400  Data  Lc  xm_h264_cache_command_queue.o [1]
cmos_calc_inttime_gain  0x80156348       0x28  Code  Gb  arkn141_isp_exposure_cmos.o [1]
cmos_fps_set            0x8015c76c       0x24  Code  Lc  arkn141_cmos_sensor_ar0238.o [1]
cmos_gain               0x83fecf58       0x34  Data  Lc  arkn141_cmos_sensor_ar0238.o [1]
cmos_gain_initialize    0x8015c434       0x38  Code  Lc  arkn141_cmos_sensor_ar0238.o [1]
cmos_get_iso            0x8015c748       0x24  Code  Lc  arkn141_cmos_sensor_ar0238.o [1]
cmos_inttime            0x83fc8d64       0x18  Data  Lc  arkn141_cmos_sensor_ar0238.o [1]
cmos_inttime_gain_update
                        0x8015c684       0x44  Code  Lc  arkn141_cmos_sensor_ar0238.o [1]
cmos_inttime_gain_update_manual
                        0x8015c6c8       0x80  Code  Lc  arkn141_cmos_sensor_ar0238.o [1]
cmos_inttime_initialize
                        0x8015c400       0x34  Code  Lc  arkn141_cmos_sensor_ar0238.o [1]
cmos_sensor_set_readout_direction
                        0x8015c790       0x70  Code  Lc  arkn141_cmos_sensor_ar0238.o [1]
cmp_era_date            0x8015fcc3       0x98  Code  Lc  xgentime.o [4]
code_frame_count        0x83fed4ac        0x4  Data  Lc  H264CodeFrame.o [1]
code_frame_ticket       0x83fed460        0x8  Data  Lc  H264CodeFrame.o [1]
codecStartEvent         0x83fed0ac        0x8  Data  Lc  xmvideoitem.o [1]
codec_child_class_next  0x800f9601       0x34  Code  Lc  options.o [5]
codec_child_next        0x800f9591       0x16  Code  Lc  options.o [5]
codec_decode_event      0x83fecfb8        0x8  Data  Lc  arkn141_codec.o [1]
codec_descriptors       0x801c16b4     0x1c84  Data  Lc  codec_desc.o [5]
codec_e_ticket          0x83fed4b4        0x4  Data  Lc  H264CodeFrame.o [1]
codec_mutex             0x83fed2a0        0x4  Data  Lc  utils.o [5]
codec_s_ticket          0x83fed4b0        0x4  Data  Lc  H264CodeFrame.o [1]
codec_share_memory_user
                        0x83fecf98        0x4  Data  Lc  arkn141_codec.o [1]
codedBlockPatternInter  0x801b4d7c       0x30  Data  Lc  h264hwd_vlc.o [1]
codedBlockPatternIntra4x4
                        0x801b4d4c       0x30  Data  Lc  h264hwd_vlc.o [1]
coeffToken0_0           0x801b6338       0x40  Data  Lc  h264hwd_cavlc.o [1]
coeffToken0_1           0x801b6378       0x60  Data  Lc  h264hwd_cavlc.o [1]
coeffToken0_2           0x801b63d8       0x70  Data  Lc  h264hwd_cavlc.o [1]
coeffToken0_3           0x801b6448       0x40  Data  Lc  h264hwd_cavlc.o [1]
coeffToken2_0           0x801b6488       0x40  Data  Lc  h264hwd_cavlc.o [1]
coeffToken2_1           0x801b64c8       0x40  Data  Lc  h264hwd_cavlc.o [1]
coeffToken2_2           0x801b6508      0x100  Data  Lc  h264hwd_cavlc.o [1]
coeffToken4_0           0x801b6608       0x80  Data  Lc  h264hwd_cavlc.o [1]
coeffToken4_1           0x801b6688      0x100  Data  Lc  h264hwd_cavlc.o [1]
coeffToken8             0x801b6788       0x80  Data  Lc  h264hwd_cavlc.o [1]
coeffTokenMinus1_0      0x801b6808       0x10  Data  Lc  h264hwd_cavlc.o [1]
coeffTokenMinus1_1      0x801b6818       0x40  Data  Lc  h264hwd_cavlc.o [1]
color                   0x8014a31c       0x6c  Data  Lc  log.o [7]
color_table             0x801da4e8      0x460  Data  Lc  parseutils.o [7]
color_table_compare     0x800ef0b1        0xa  Code  Lc  parseutils.o [7]
colored_fputs           0x800ecd61      0x13a  Code  Lc  log.o [7]
combine_fullpath_media_filename
                        0x80133a64       0xe0  Code  Gb  xmvideoitem.o [1]
comment                 0x83fc8f98        0x8  Data  Lc  arkn141_jpeg_encoder.o [1]
compare                 0x80130bec       0x38  Code  Lc  xmvideoitem.o [1]
compat_free_buffer      0x800f38c1       0x1c  Code  Lc  utils.o [5]
compat_release_buffer   0x800f3fe1       0x14  Code  Lc  utils.o [5]
compute_pkt_fields      0x800e64a1      0xba8  Code  Lc  utils.o [6]
compute_pkt_fields2     0x800f2091      0x700  Code  Lc  mux.o [6]
conf_spec               0x8011fce0       0xb8  Code  Lc  sdmmc.o [1]
confi_fifo_unempty      0x8011f7e8       0x7c  Code  Lc  sdmmc.o [1]
const_names             0x801e3770       0x10  Data  Lc  opt.o [7]
const_values            0x801e3780       0x20  Data  Lc  opt.o [7]
constants               0x801e2e88       0x30  Data  Lc  eval.o [7]
context_to_name         0x800f9571       0x1a  Code  Lc  options.o [5]
continue_playback       0x801d2104       0xc4  Code  Lc  app_videoview.o [1]
copy_packet_data        0x800eecb1       0xc2  Code  Lc  avpacket.o [5]
cos                     0x801e3ab3        0xa  Code  Gb  cos.o [9]
cosh                    0x801e3a99       0x10  Code  Gb  cosh.o [9]
count.4439              0x83fea9a8        0x4  Data  Lc  log.o [7]
crc16_ccitt             0x8015854c       0x44  Code  Gb  crc16.o [1]
crc16tab                0x80158590      0x200  Data  Lc  crc16.o [1]
crosstalk_match         0x8015daa8       0xe0  Code  Lc  arkn141_cmos_sensor_ar0238.o [1]
crosstalk_polyline_tbl  0x8015e738       0x38  Data  Lc  arkn141_cmos_sensor_ar0238.o [1]
cur_gain                0x83fc8d48        0x2  Data  Lc  dec_sid.o [13]
customData              0x83fc7750        0x4  Data  Lc  xm_win_user.o [1]
cutoff_file             0x80130fd4       0xf4  Code  Lc  xmvideoitem.o [1]
dac_dma_start           0x80115ca4       0xa4  Code  Lc  xm_iisadc.o [1]
dac_exit                0x80115c74       0x30  Code  Lc  xm_iisadc.o [1]
dac_init                0x80115be8       0x8c  Code  Lc  xm_iisadc.o [1]
dac_mute                0x83fc8e58        0x4  Data  Lc  xm_iisadc.o [1]
dac_vol                 0x83fc8e5c        0x4  Data  Lc  xm_iisadc.o [1]
data_discard            0x801df41c        0x4  Data  Lc  arkn141_h264_decoder.o [1]
data_packet_discard_count
                        0x83febbdc        0x4  Data  Lc  sensor_task.o [1]
data_tran_over          0x8011f884       0xd0  Code  Gb  sdmmc.o [1]
dateTimeSettingBtn_DEFAULT
                        0x801d68c4       0x24  Data  Lc  app_datetimesetting.o [1]
dateTimeSettingBtn_FORCED
                        0x801d68e8       0x18  Data  Lc  app_datetimesetting.o [1]
datetime_char_image     0x83fec464       0x9c  Data  Lc  app_time.o [1]
datetime_char_length    0x80187d34       0x9c  Data  Lc  app_time.o [1]
datetime_char_length    0x8013b920       0x30  Data  Lc  xm_icon_manage.o [1]
datetime_char_offset    0x80187c98       0x9c  Data  Lc  app_time.o [1]
datetime_char_offset    0x8013b8f0       0x30  Data  Lc  xm_icon_manage.o [1]
days                    0x8014aca0       0x58  Data  Lc  xlocale_c.o [4]
dec_cng_count           0x83fc8d4c        0x4  Data  Gb  dec_sid.o [13]
decode_jpeg_file        0x801d0c60      0x1b4  Code  Lc  app_albumview.o [1]
decode_str              0x801022b1      0x2ac  Code  Lc  id3v2.o [6]
decode_video            0x801d1a30       0x84  Code  Lc  app_videoview.o [1]
default4x4Inter         0x801af060       0x40  Data  Gb  h264hwd_seq_param_set.o [1]
default4x4Intra         0x801af020       0x40  Data  Gb  h264hwd_seq_param_set.o [1]
default8x8Inter         0x801af1a0      0x100  Data  Gb  h264hwd_seq_param_set.o [1]
default8x8Intra         0x801af0a0      0x100  Data  Gb  h264hwd_seq_param_set.o [1]
del_kmsg                0x80151534       0x30  Code  Lc  xm_win_user.o [1]
delay                   0x8012e900       0x30  Code  Gb  irq.o [1]
delay_cutoff_flag       0x83fed558        0x4  Data  Lc  xmvideoitem.o [1]
deleteFixup             0x801571e8      0x1dc  Code  Gb  common_rbtr.o [1]
deleteTree              0x80156e54       0x3c  Code  Lc  common_rbtr.o [1]
demosaic_match          0x8015d0cc       0xc8  Code  Lc  arkn141_cmos_sensor_ar0238.o [1]
demosaic_polyline_tbl   0x8015e478       0x38  Data  Lc  arkn141_cmos_sensor_ar0238.o [1]
demuxer_class           0x801e1eb0       0x2c  Data  Lc  avidec.o [6]
denoise_inttime_polyline_tbl
                        0x8015e4b0      0x190  Data  Lc  arkn141_cmos_sensor_ar0238.o [1]
denoise_match_inttime_gain
                        0x8015d330      0x2b4  Code  Lc  arkn141_cmos_sensor_ar0238.o [1]
dev_dbg                 0x8012ce1c        0xc  Code  Lc  xm_i2c.o [1]
dev_warn                0x8012ce28        0xc  Code  Lc  xm_i2c.o [1]
deviceConsumer          0x83fecbdc        0x8  Data  Lc  xm_iisadc.o [1]
deviceFifo              0x83f62000     0xc800  Data  Lc  xm_iisadc.o [1]
deviceProducer          0x83fecbd4        0x8  Data  Lc  xm_iisadc.o [1]
deviceSemaphore         0x83fecc00       0x20  Data  Lc  xm_iisadc.o [1]
deviceStatus            0x83fecbfc        0x2  Data  Lc  xm_iisadc.o [1]
deviceWaveFormat        0x83fecbc4       0x10  Data  Lc  xm_iisadc.o [1]
device_init             0x801663d0      0x214  Code  Gb  globalfunc.o [1]
device_state            0x83fecbfe        0x1  Data  Lc  xm_iisadc.o [1]
digital_gain_from_exposure_calculate
                        0x8015c628       0x5c  Code  Lc  arkn141_cmos_sensor_ar0238.o [1]
digits                  0x801242c4       0x28  Data  Lc  xstoul.o [4]
digits                  0x8014b0fc       0x28  Data  Lc  xstoull.o [4]
disable_usb_int         0x8015a5d4       0x98  Code  Gb  pc_main.o [1]
display_record_state_icons_scheme_1
                        0x8013b044      0x788  Code  Lc  xm_icon_manage.o [1]
div                     0x801258a9       0x20  Code  Gb  div.o [4]
div_s                   0x801817e4       0x34  Code  Gb  basic_op.o [13]
dmaDesc                 0x83feb320      0x200  Data  Lc  xm_iisadc.o [1]
dma_IRQHandler          0x8012aba8       0xa4  Code  Lc  dma.o [1]
dma_cfg_channel         0x8012ac4c       0x9c  Code  Gb  dma.o [1]
dma_channel_status_init
                        0x8012a8e4       0x30  Code  Gb  dma.o [1]
dma_clean_range         0x80128ec0       0x1c  Code  Gb  cortex_a5_mmu.o [1]
dma_clr_int             0x8012ad84       0x24  Code  Gb  dma.o [1]
dma_detect_ch_disable   0x8012ada8       0x40  Code  Gb  dma.o [1]
dma_flush_range         0x80128edc       0x1c  Code  Gb  cortex_a5_mmu.o [1]
dma_init                0x8012ace8       0x9c  Code  Gb  dma.o [1]
dma_inv_range           0x80128ea4       0x1c  Code  Gb  cortex_a5_mmu.o [1]
dma_memcpy              0x8012ae80      0x260  Code  Gb  dma.o [1]
dma_memcpy_access_sema  0x83fed0f8       0x14  Data  Lc  dma.o [1]
dma_memcpy_dma_channel  0x83fed0e0        0x4  Data  Lc  dma.o [1]
dma_memcpy_dma_lli      0x83fdc440     0x2000  Data  Lc  dma.o [1]
dma_memcpy_transfer_over_IRQHandler_lli
                        0x8012ae40       0x40  Code  Lc  dma.o [1]
dma_release_channel     0x8012a9a0       0x74  Code  Gb  dma.o [1]
dma_request_dma_channel
                        0x8012a914       0x8c  Code  Gb  dma.o [1]
dma_stop_channel        0x8012aa14       0x68  Code  Gb  dma.o [1]
dma_transfer_over       0x8012a8d0       0x14  Code  Gb  dma.o [1]
dmul                    0x8014a389       0x52  Code  Lc  xdtento.o [9]
do_gamma_adjust         0x83fec588        0x4  Data  Lc  arkn141_cmos_sensor_ar0238.o [1]
do_isp_scalar           0x83fed3f8        0x4  Data  Lc  Gem_isp_sys.o [1]
do_isp_scalar_anti_aliasing_enhance
                        0x83fec59c        0x4  Data  Lc  arkn141_scale.o [1]
do_move_animate         0x8016305c      0x174  Code  Lc  xm_osd_layer_animate.o [1]
do_scalar_anti_aliasing_enhance
                        0x83fec5b8        0x4  Data  Lc  arkn141_scale.o [1]
draw_progress_icon      0x801ce97c      0x2c0  Code  Lc  app_processview.o [1]
dummy_destruct_packet   0x800ee531       0x2e  Code  Lc  avpacket.o [5]
dummy_sensor_function   0x801663a8        0x4  Code  Gb  globalfunc.o [1]
dump_metadata           0x800e2641      0x15c  Code  Lc  utils.o [6]
dump_stream_format      0x800e2871      0x420  Code  Lc  utils.o [6]
dvr_buffer              0x83fc7d80        0x4  Data  Lc  jpeg_task.o [1]
dvr_length              0x83fc7d84        0x4  Data  Lc  jpeg_task.o [1]
dwClockExpires          0x83fec7f0       0x40  Data  Lc  xm_time_drv.o [1]
dwKeyDown               0x83fb6080        0x4  Data  Lc  xm_tester_script.o [1]
dwLangMenuOption        0x801cc300        0x8  Data  Lc  app_settingview.o [1]
dwLcdMenuOption         0x801cc2ec       0x14  Data  Lc  app_settingview.o [1]
dwModifier              0x83fb6084        0x4  Data  Lc  xm_tester_script.o [1]
dwRcdRelayMenuOption    0x801d4c08       0x14  Data  Lc  app_videosettingview.o [1]
dwRecordResolution      0x801d4c1c        0xc  Data  Lc  app_videosettingview.o [1]
dwTimeOut               0x83fec7b0       0x40  Data  Lc  xm_time_drv.o [1]
dwVideoSizeMenuOption   0x801d4bfc        0xc  Data  Lc  app_videosettingview.o [1]
dwl_dec_semid           0x83fed37c       0x14  Data  Lc  dwl_iar.o [1]
dwl_exit                0x8016ea88       0x18  Code  Gb  dwl_iar.o [1]
dwl_init                0x8016ea70       0x18  Code  Gb  dwl_iar.o [1]
dwl_pp_semid            0x83fed368       0x14  Data  Lc  dwl_iar.o [1]
dyn_buf_seek            0x800fe401       0x58  Code  Lc  aviobuf.o [6]
dyn_buf_write           0x800fe461       0x96  Code  Lc  aviobuf.o [6]
dyn_packet_buf_write    0x800fec21      0x136  Code  Lc  aviobuf.o [6]
enable_usb_int          0x8015a66c       0xa0  Code  Gb  pc_main.o [1]
end_update_cb           0x80177800       0x90  Code  Lc  app_systemupdate.o [1]
enhance_match           0x8015dc24       0xc0  Code  Lc  arkn141_cmos_sensor_ar0238.o [1]
enhance_polyline_tbl    0x8015e780       0x28  Data  Lc  arkn141_cmos_sensor_ar0238.o [1]
entangled_thread_counter
                        0x83fed2a8        0x4  Data  Lc  utils.o [5]
era                     0x8014acf8        0x1  Data  Lc  xlocale_c.o [4]
eris_polyline_tbl       0x8015e640       0xe0  Data  Lc  arkn141_cmos_sensor_ar0238.o [1]
error_entries           0x801e25b0       0xe4  Data  Lc  error.o [7]
etime                   0x80108831       0x20  Code  Lc  eval.o [7]
eval_expr               0x80107bf1      0xbe8  Code  Lc  eval.o [7]
eval_jpeg_count         0x83fc7d9c        0x4  Data  Lc  jpeg_task.o [1]
eval_jpeg_encode_bytes  0x83fc7da8        0x4  Data  Lc  jpeg_task.o [1]
eval_jpeg_encode_ticket
                        0x83fc7da4        0x4  Data  Lc  jpeg_task.o [1]
eval_jpeg_start_ticket  0x83fc7da0        0x4  Data  Lc  jpeg_task.o [1]
exc                     0x83fc8b9c        0x4  Data  Lc  dec_ld8k.o [13]
exit                    0x801e3945        0x8  Code  Gb  exit.o [4]
exp                     0x80125451       0x40  Code  Gb  exp.o [9]
exposure_antiflicker_correct
                        0x80155eb8       0x3c  Code  Lc  arkn141_isp_exposure_cmos.o [1]
exposure_limit_calculate
                        0x80155e8c       0x2c  Code  Gb  arkn141_isp_exposure_cmos.o [1]
extract_fullpath_media_filename
                        0x80133b44       0xc8  Code  Gb  xmvideoitem.o [1]
fabs                    0x801e3ad4             Code  Gb  fabs.o [9]
fabsl                   0x801e3ad4             Code  Gb  fabs.o [9]
fact                    0x801b6ac6        0x6  Data  Gb  rom_table.o [13]
fat_cluster_size        0x83fc7a44       0x20  Data  Lc  xmvideoitem.o [1]
fb_ARGB454_DrawHorzLine
                        0x801649b4       0xa8  Code  Gb  xm_fb_argb454_drv.o [1]
fb_ARGB454_FillRect     0x80164a5c       0x90  Code  Gb  xm_fb_argb454_drv.o [1]
fb_ARGB888_FillRect     0x801648c8       0xec  Code  Gb  xm_fb_argb888_drv.o [1]
fb_FillRect             0x8015386c       0x60  Code  Gb  xm_fb_drv.o [1]
fb_RGB565_DrawHorzLine  0x80164aec       0x9c  Code  Gb  xm_fb_rgb565_drv.o [1]
fb_RGB565_FillRect      0x80164b88       0x90  Code  Gb  xm_fb_rgb565_drv.o [1]
ff_add_index_entry      0x800e38a1      0x192  Code  Gb  utils.o [6]
ff_add_param_change     0x800e13c1      0x186  Code  Gb  utils.o [6]
ff_alloc_packet         0x800f6461       0x10  Code  Gb  utils.o [5]
ff_alloc_packet2        0x800f6301      0x15a  Code  Gb  utils.o [5]
ff_avcodec_locked       0x83fed580        0x4  Data  Wk  utils.o [5]
ff_avi_demuxer          0x83fc8538       0x48  Data  Gb  avidec.o [6]
ff_avi_muxer            0x83fc8490       0x48  Data  Gb  avienc.o [6]
ff_check_interrupt      0x80104fc1       0x14  Code  Gb  avio.o [6]
ff_check_pixfmt_descriptors
                        0x8010cd81      0x590  Code  Gb  pixdesc.o [7]
ff_choose_timebase      0x800f0df1       0x90  Code  Gb  mux.o [6]
ff_codec_bmp_tags       0x801d0070      0x940  Data  Gb  riff.o [6]
ff_codec_close_recursive
                        0x80105af5       0x1a  Code  Gb  utils.o [5]
ff_codec_get_id         0x800e3831       0x62  Code  Gb  utils.o [6]
ff_codec_get_tag        0x800e0951       0x24  Code  Gb  utils.o [6]
ff_codec_guid_get_id    0x8019cd11       0x2a  Code  Gb  riff.o [6]
ff_codec_open2_recursive
                        0x800f6c71      0x104  Code  Gb  utils.o [5]
ff_codec_wav_guids      0x801cff1c       0x64  Data  Gb  riff.o [6]
ff_codec_wav_tags       0x801cfd48      0x1c8  Data  Gb  riff.o [6]
ff_combine_frame        0x800f9ff1      0x126  Code  Gb  parser.o [5]
ff_compute_frame_duration
                        0x800e6311      0x18a  Code  Gb  utils.o [6]
ff_crc04C11DB7_update   0x800fe631       0x1a  Code  Gb  aviobuf.o [6]
ff_cropTbl              0x801c9e34      0x900  Data  Gb  mathtables.o [5]
ff_data_to_hex          0x800e0bd1       0x44  Code  Gb  utils.o [6]
ff_end_tag              0x8019d461       0xba  Code  Gb  riff.o [6]
ff_fetch_timestamp      0x800f9a11      0x568  Code  Gb  parser.o [5]
ff_file_protocol        0x83fc8610       0x44  Data  Gb  file.o [6]
ff_find_hwaccel         0x800f3021       0x34  Code  Gb  utils.o [5]
ff_find_stream_index    0x800e0c21       0x3c  Code  Gb  utils.o [6]
ff_free_stream          0x800e34c1       0xee  Code  Gb  utils.o [6]
ff_gen_search           0x800e7b51      0x53a  Code  Gb  utils.o [6]
ff_generate_avci_extradata
                        0x800e0e71       0xac  Code  Gb  utils.o [6]
ff_get_audio_frame_size
                        0x800e3a41       0x9e  Code  Gb  utils.o [6]
ff_get_bmp_header       0x8019cc01       0x76  Code  Gb  riff.o [6]
ff_get_buffer           0x800f4481       0x22  Code  Gb  utils.o [5]
ff_get_guid             0x8019d521       0x1a  Code  Gb  riff.o [6]
ff_get_line             0x800ff5b1       0x4a  Code  Gb  aviobuf.o [6]
ff_get_pcm_codec_id     0x800e0981      0x15c  Code  Gb  utils.o [6]
ff_get_v_length         0x800fe301       0x28  Code  Gb  aviobuf.o [6]
ff_get_wav_header       0x8019d541      0x3a4  Code  Gb  riff.o [6]
ff_h264_arkn141_decode_init
                        0x801df0ed      0x26e  Code  Lc  h264_arkn141.o [5]
ff_h264_arkn141_decoder
                        0x83fc83d8       0x64  Data  Gb  h264_arkn141.o [5]
ff_h264_demuxer         0x83fc85c8       0x48  Data  Gb  h264dec.o [6]
ff_h264_muxer           0x83fc8580       0x48  Data  Gb  rawenc.o [6]
ff_hex_to_data          0x800e0ca1       0xd4  Code  Gb  utils.o [6]
ff_http_match_no_proxy  0x800e0d81       0xe8  Code  Gb  utils.o [6]
ff_id3v1_genre_str      0x801dfe68      0x250  Data  Gb  id3v1.o [6]
ff_id3v2_34_metadata_conv
                        0x801ddac0       0x78  Data  Gb  id3v2.o [6]
ff_id3v2_3_tags         0x801ddc74       0x1c  Data  Gb  id3v2.o [6]
ff_id3v2_4_metadata_conv
                        0x801ddb80       0x38  Data  Gb  id3v2.o [6]
ff_id3v2_4_tags         0x801ddc3c       0x38  Data  Gb  id3v2.o [6]
ff_id3v2_free_extra_meta
                        0x801021f1       0x88  Code  Gb  id3v2.o [6]
ff_id3v2_match          0x801020a1       0x4e  Code  Gb  id3v2.o [6]
ff_id3v2_mime_tags      0x801dd97c      0x144  Data  Gb  id3v2.o [6]
ff_id3v2_parse_apic     0x80102131       0xba  Code  Gb  id3v2.o [6]
ff_id3v2_picture_types  0x83fc84e4       0x54  Data  Gb  id3v2.o [6]
ff_id3v2_read           0x801029a1      0xa56  Code  Gb  id3v2.o [6]
ff_id3v2_tag_len        0x801020f1       0x34  Code  Gb  id3v2.o [6]
ff_id3v2_tags           0x801ddbb8       0x84  Data  Gb  id3v2.o [6]
ff_index_search_timestamp
                        0x800e0801      0x150  Code  Gb  utils.o [6]
ff_init_buffer_info     0x800f4001      0x1b2  Code  Gb  utils.o [5]
ff_interleave_add_packet
                        0x800f12c1      0x320  Code  Gb  mux.o [6]
ff_interleave_packet_per_dts
                        0x800f15e1      0x200  Code  Gb  mux.o [6]
ff_inverse              0x801c9830      0x404  Data  Gb  mathtables.o [5]
ff_iso8601_to_unix_time
                        0x800e1551       0xbe  Code  Gb  utils.o [6]
ff_lock_avcodec         0x800f3411       0xb2  Code  Gb  utils.o [5]
ff_make_absolute_url    0x800e17d1      0x196  Code  Gb  utils.o [6]
ff_match_2uint16        0x800f2f91       0x3c  Code  Gb  utils.o [5]
ff_metadata_conv        0x8010fcc1       0xcc  Code  Gb  metadata.o [6]
ff_metadata_conv_ctx    0x8010fd91      0x33c  Code  Gb  metadata.o [6]
ff_mpeg4video_split     0x800f9f81       0x54  Code  Gb  parser.o [5]
ff_ntp_time             0x800e25a1       0x38  Code  Gb  utils.o [6]
ff_packet_free_side_data
                        0x800eeae1       0x2e  Code  Gb  avpacket.o [5]
ff_parse_close          0x800f9fe1        0xa  Code  Gb  parser.o [5]
ff_parse_key_value      0x800e1971      0x108  Code  Gb  utils.o [6]
ff_parse_specific_params
                        0x8019cde1       0xc4  Code  Gb  riff.o [6]
ff_pcm_s16le_decoder    0x83fc8148       0x64  Data  Gb  pcm.o [5]
ff_pcm_s16le_encoder    0x83fc80e4       0x64  Data  Gb  pcm.o [5]
ff_program_add_stream_index
                        0x800e3111       0xa6  Code  Gb  utils.o [6]
ff_put_bmp_header       0x8019ceb1       0xca  Code  Gb  riff.o [6]
ff_put_v                0x800ffe51      0x156  Code  Gb  aviobuf.o [6]
ff_put_wav_header       0x8019cf81      0x4d6  Code  Gb  riff.o [6]
ff_raw_audio_read_header
                        0x801e2191       0x46  Code  Gb  rawdec.o [6]
ff_raw_pix_fmt_tags     0x801dcc74      0x4d0  Data  Gb  raw.o [5]
ff_raw_read_partial_packet
                        0x801e2241       0x58  Code  Gb  rawdec.o [6]
ff_raw_video_read_header
                        0x801e21e1       0x56  Code  Gb  rawdec.o [6]
ff_raw_write_packet     0x801e3a01       0x12  Code  Gb  rawenc.o [6]
ff_rawvideo_options     0x801e3450       0x60  Data  Gb  rawdec.o [6]
ff_read_frame_flush     0x800e51c1      0x1b6  Code  Gb  utils.o [6]
ff_read_packet          0x800e5bd1      0x47c  Code  Gb  utils.o [6]
ff_read_riff_info       0x8019c921      0x2d6  Code  Gb  riff.o [6]
ff_read_timestamp       0x800e4031      0x112  Code  Lc  utils.o [6]
ff_reduce_index         0x800e0791       0x64  Code  Gb  utils.o [6]
ff_reget_buffer         0x800f62d1       0x22  Code  Gb  utils.o [5]
ff_reverse              0x801c9d34      0x100  Data  Gb  mathtables.o [5]
ff_riff_info_conv       0x801cff80       0x68  Data  Gb  riff.o [6]
ff_riff_write_info      0x8019d8f1      0x104  Code  Gb  riff.o [6]
ff_riff_write_info_tag  0x8019cd81       0x5a  Code  Gb  riff.o [6]
ff_seek_frame_binary    0x800e8091      0x3b8  Code  Gb  utils.o [6]
ff_sqrt_tab             0x801c9c34      0x100  Data  Gb  mathtables.o [5]
ff_start_tag            0x8019cd41       0x3a  Code  Gb  riff.o [6]
ff_thread_await_progress
                        0x800f31c1        0x2  Code  Gb  utils.o [5]
ff_thread_can_start_frame
                        0x800f31d1        0x4  Code  Gb  utils.o [5]
ff_thread_finish_setup  0x800f31a1        0x2  Code  Gb  utils.o [5]
ff_thread_get_buffer    0x800f4d01       0x32  Code  Gb  utils.o [5]
ff_thread_get_format    0x800f3191        0xa  Code  Gb  utils.o [5]
ff_thread_init          0x800f2f31        0x6  Code  Gb  utils.o [5]
ff_thread_ref_frame     0x800f3321       0x32  Code  Gb  utils.o [5]
ff_thread_release_buffer
                        0x800f3311        0xa  Code  Gb  utils.o [5]
ff_thread_report_progress
                        0x800f31b1        0x2  Code  Gb  utils.o [5]
ff_unlock_avcodec       0x800f33a1       0x6a  Code  Gb  utils.o [5]
ff_update_cur_dts       0x800e25e1       0x52  Code  Gb  utils.o [6]
ff_url_join             0x800e1b61       0xa4  Code  Gb  utils.o [6]
ff_wav_codec_get_id     0x8019cc81       0x90  Code  Gb  riff.o [6]
ff_write_chained        0x800e1a81       0xda  Code  Gb  utils.o [6]
ff_x264_arkn141_encoder
                        0x83fc8374       0x64  Data  Gb  x264_arkn141.o [5]
ff_zigzag_direct        0x801ca734       0x40  Data  Gb  mathtables.o [5]
ffio_fdopen             0x800fe751      0x140  Code  Gb  aviobuf.o [6]
ffio_fill               0x800fe971       0xa6  Code  Gb  aviobuf.o [6]
ffio_get_checksum       0x800fe331       0x18  Code  Gb  aviobuf.o [6]
ffio_init_checksum      0x800fe351        0xc  Code  Gb  aviobuf.o [6]
ffio_init_context       0x800fe181       0x8a  Code  Gb  aviobuf.o [6]
ffio_limit              0x800e3731       0xf6  Code  Gb  utils.o [6]
ffio_open_dyn_packet_buf
                        0x800fe6f1       0x56  Code  Gb  aviobuf.o [6]
ffio_read_partial       0x800ff101       0x9a  Code  Gb  aviobuf.o [6]
ffio_read_varlen        0x800ff541       0x68  Code  Gb  aviobuf.o [6]
ffio_rewind_with_probe_data
                        0x800fe501       0xd6  Code  Gb  aviobuf.o [6]
ffio_set_buf_size       0x800fe5e1       0x46  Code  Gb  aviobuf.o [6]
ffio_url_child_class_next
                        0x800fe161       0x12  Code  Lc  aviobuf.o [6]
ffio_url_child_next     0x800fe141       0x14  Code  Lc  aviobuf.o [6]
ffio_url_class          0x801e32b0       0x2c  Data  Gb  aviobuf.o [6]
ffio_url_options        0x801e32f0       0x30  Data  Lc  aviobuf.o [6]
ffurl_alloc             0x80105391      0x124  Code  Gb  avio.o [6]
ffurl_close             0x80105631       0x64  Code  Gb  avio.o [6]
ffurl_closep            0x80105031       0x64  Code  Gb  avio.o [6]
ffurl_connect           0x801055b1       0x7c  Code  Gb  avio.o [6]
ffurl_context_class     0x801e33f0       0x2c  Data  Gb  avio.o [6]
ffurl_get_file_handle   0x80104f81       0x16  Code  Gb  avio.o [6]
ffurl_get_multi_file_handle
                        0x80104fe1       0x50  Code  Gb  avio.o [6]
ffurl_open              0x80105711       0xee  Code  Gb  avio.o [6]
ffurl_protocol_next     0x80104e31       0x1c  Code  Gb  avio.o [6]
ffurl_read              0x801050a1       0xfc  Code  Gb  avio.o [6]
ffurl_read_complete     0x80105901       0xf6  Code  Gb  avio.o [6]
ffurl_register_protocol
                        0x801054c1       0x44  Code  Gb  avio.o [6]
ffurl_seek              0x80104f51       0x2a  Code  Gb  avio.o [6]
ffurl_shutdown          0x80104fa1       0x16  Code  Gb  avio.o [6]
ffurl_size              0x80105511       0x92  Code  Gb  avio.o [6]
ffurl_write             0x80105801       0xf6  Code  Gb  avio.o [6]
fg                      0x801e2cf8       0xa0  Data  Gb  tab_ld8k.o [13]
fg_sum                  0x801e382c       0x28  Data  Gb  tab_ld8k.o [13]
fg_sum_inv              0x801e3854       0x28  Data  Gb  tab_ld8k.o [13]
fgets_map_file          0x80165560       0x9c  Code  Gb  xm_tester_script.o [1]
fifo_dma_reset          0x8011f404       0x68  Code  Lc  sdmmc.o [1]
file_check              0x801e19a1       0x6a  Code  Lc  file.o [6]
file_class              0x801e2f80       0x2c  Data  Lc  file.o [6]
file_close              0x801e1a11        0xc  Code  Lc  file.o [6]
file_get_handle         0x801e1991        0x6  Code  Lc  file.o [6]
file_open               0x801e1ac1       0x90  Code  Lc  file.o [6]
file_options            0x801e2fb0       0x60  Data  Lc  file.o [6]
file_read               0x801e1a91       0x2a  Code  Lc  file.o [6]
file_seek               0x801e1a21       0x40  Code  Lc  file.o [6]
file_write              0x801e1a61       0x2a  Code  Lc  file.o [6]
filemanager_clear_response_message
                        0x801476dc        0x8  Code  Lc  xm_file_manager_task.o [1]
filemanager_mailbox     0x83fec708       0x1c  Data  Lc  xm_file_manager_task.o [1]
filemanager_mailbuf     0x83fec6b6        0x1  Data  Lc  xm_file_manager_task.o [1]
filemanager_reply_response_message
                        0x801476b8       0x24  Code  Lc  xm_file_manager_task.o [1]
filemanager_sema        0x83fec6f4       0x14  Data  Lc  xm_file_manager_task.o [1]
fill_buffer             0x800fef71      0x13a  Code  Lc  aviobuf.o [6]
find_cluster_set        0x8015ee28       0xe8  Code  Lc  FAT_FreeCluster.o [1]
first_avcodec           0x83fed290        0x4  Data  Lc  utils.o [5]
first_hwaccel           0x83fed298        0x4  Data  Lc  utils.o [5]
first_iformat           0x83fed184        0x4  Data  Lc  utils.o [6]
first_oformat           0x83fed188        0x4  Data  Lc  utils.o [6]
first_protocol          0x83fed588        0x4  Data  Lc  avio.o [6]
flag_image              0x83fec310        0x4  Data  Lc  xm_icon_manage.o [1]
flags                   0x83fea5a0        0x4  Data  Lc  log.o [7]
floor                   0x80124ab0             Code  Gb  floor.o [9]
floorl                  0x80124ab0             Code  Gb  floor.o [9]
flush_buffer            0x800fe211       0x64  Code  Lc  aviobuf.o [6]
fmod                    0x801d3f98             Code  Gb  fmod.o [9]
fmodl                   0x801d3f98             Code  Gb  fmod.o [9]
fmt_id_type.9189        0x801dfb08       0x78  Data  Lc  utils.o [6]
fmts                    0x8014acfc       0x30  Data  Lc  xlocale_c.o [4]
forced_iframe           0x83fed4dc        0x4  Data  Lc  avi_codec_task.o [1]
format_child_class_next
                        0x80106401       0x7a  Code  Lc  options.o [6]
format_child_next       0x80106381       0x50  Code  Lc  options.o [6]
format_line             0x800ecb21      0x1ea  Code  Lc  log.o [7]
format_to_name          0x80106361       0x20  Code  Lc  options.o [6]
format_view_system_event_handler
                        0x801748b8       0xc0  Code  Lc  app_format.o [1]
fpAutotestStop          0x83fec620        0x4  Data  Lc  xm_tester.o [1]
fpScript                0x83fb606c        0x4  Data  Lc  xm_tester_script.o [1]
fprintf                 0x800f8bc0        0x8  Code  Gb  avio.o [1]
fputc                   0x800f8bdc        0x8  Code  Gb  avio.o [1]
fputs                   0x800f8bac        0xc  Code  Gb  avio.o [1]
frameIdx_sel            0x801786ec       0xc4  Code  Gb  descript_def.o [1]
frame_mask              0x83fbe340       0x18  Data  Lc  avi_codec_task.o [1]
frame_options           0x80191be8      0x1e0  Data  Lc  options.o [5]
framebuffer_release     0x801369d8       0xc4  Code  Lc  xm_osd_framebuffer.o [1]
framebufferno           0x83fed3f4        0x4  Data  Lc  Gem_isp_sys.o [1]
frames_to_discard_to_remove_flash
                        0x83febbe4        0x4  Data  Lc  sensor_task.o [1]
free_apic               0x80102661       0x20  Code  Lc  id3v2.o [6]
free_geobtag            0x80102281       0x24  Code  Lc  id3v2.o [6]
freq_prev               0x83fecaa0       0x50  Data  Lc  lspdec.o [13]
freq_prev_reset         0x83fc8e04       0x14  Data  Gb  tab_ld8k.o [13]
fs_access_error_alert_cb
                        0x80163bbc       0x14  Code  Lc  desktop.o [1]
fs_low_performance_alert_cb
                        0x80163bd0       0x14  Code  Lc  desktop.o [1]
fwrite                  0x800f8bc8       0x14  Code  Gb  avio.o [1]
g729_synth              0x83fc8dc4        0x4  Data  Gb  g729_dec.o [13]
g_isp_param             0x83fc711c       0x60  Data  Lc  Gem_isp.o [1]
gain_code               0x83fc8b8c        0x2  Data  Lc  dec_ld8k.o [13]
gain_pitch              0x83fc8b8e        0x2  Data  Lc  dec_ld8k.o [13]
gain_prec               0x83fc8f84        0x2  Data  Gb  pst.o [12]
gamma_LUT1              0x8015e118       0x84  Data  Gb  arkn141_cmos_sensor_ar0238.o [1]
gamma_adjust_stage      0x83fec584        0x4  Data  Lc  arkn141_cmos_sensor_ar0238.o [1]
gamma_adjust_table      0x83fec500       0x84  Data  Lc  arkn141_cmos_sensor_ar0238.o [1]
gamma_linear_table      0x8015e19c       0x84  Data  Gb  arkn141_cmos_sensor_ar0238.o [1]
gbAudioError            0x83fed3e3        0x1  Data  Gb  AudioFunction.o [1]
gbBuffer                0x83fecd60       0x40  Data  Gb  globaldata.o [1]
gbError                 0x83fed5ab        0x1  Data  Gb  globaldata.o [1]
gbReset                 0x83fed5a2        0x1  Data  Gb  interrupt.o [1]
gbVideoError            0x83fed5a6        0x1  Data  Gb  VideoFunction.o [1]
gbVideoErrorLast        0x83fed5a7        0x1  Data  Gb  VideoFunction.o [1]
gbk1                    0x801e39b4       0x20  Data  Gb  tab_ld8k.o [13]
gbk2                    0x801e35f8       0x40  Data  Gb  tab_ld8k.o [13]
gcAudio_IAD_desc        0x83fc8fc0        0x8  Data  Gb  descript.o [1]
gcAudio_IT_desc         0x83fc8f18        0xc  Data  Gb  descript.o [1]
gcAudio_OT_desc         0x83fc8f30        0xc  Data  Gb  descript.o [1]
gcCS_AcHead_desc        0x83fc8f0c        0xc  Data  Gb  descript.o [1]
gcCS_Camera_IT_desc     0x83fc8df0       0x14  Data  Gb  descript.o [1]
gcCS_OT_desc            0x83fc8edc        0xc  Data  Gb  descript.o [1]
gcCS_PU_desc            0x83fc8ed0        0xc  Data  Gb  descript.o [1]
gcCS_VCIF_desc          0x83fc8e18       0x10  Data  Gb  descript.o [1]
gcCS_VS_header_desc     0x83fc8e28       0x10  Data  Gb  descript.o [1]
gcCS_VS_header_desc1    0x83fc8e38       0x10  Data  Gb  descript.o [1]
gcCS_VS_mjpegformat_desc
                        0x83fc8ee8        0xc  Data  Gb  descript.o [1]
gcCS_VS_yuvformat_desc  0x83fc8d10       0x1c  Data  Gb  descript.o [1]
gcCS_as_ep_desc         0x83fc8fd0        0x8  Data  Gb  descript.o [1]
gcCS_as_format_desc     0x83fc8f54        0xc  Data  Gb  descript.o [1]
gcCS_as_general_desc    0x83fc8fc8        0x8  Data  Gb  descript.o [1]
gcCS_color_match_desc   0x83fc8fb0        0x8  Data  Gb  descript.o [1]
gcCS_mjpegframe_desc    0x83fc8b5c       0x2c  Data  Gb  descript.o [1]
gcCS_still_image_mjpegframe_desc
                        0x83fc8c74       0x20  Data  Gb  descript.o [1]
gcCS_still_image_yuvframe_desc
                        0x83fc8d2c       0x1c  Data  Gb  descript.o [1]
gcCS_yuvframe_desc      0x83fc8b30       0x2c  Data  Gb  descript.o [1]
gcFeater_desc           0x83fc8f24        0xc  Data  Gb  descript.o [1]
gcLangIDString          0x83fc9004        0x4  Data  Gb  descript.o [1]
gcManufacturerString    0x83fc8d80       0x18  Data  Gb  descript.o [1]
gcProduceString         0x83fc8c2c       0x24  Data  Gb  descript.o [1]
gcProduceString1        0x83fc8d98       0x18  Data  Gb  descript.o [1]
gcSTD_ACIF_desc         0x83fc8f00        0xc  Data  Gb  descript.o [1]
gcSTD_VS_IF1_HS_bulk    0x83fc8ef4        0xc  Data  Gb  descript.o [1]
gcSTD_VS_ep_HS_bulk     0x83fc8fb8        0x8  Data  Gb  descript.o [1]
gcSTD_as0_desc          0x83fc8f3c        0xc  Data  Gb  descript.o [1]
gcSTD_as1_desc          0x83fc8f48        0xc  Data  Gb  descript.o [1]
gcSTD_as_ep_desc        0x83fc8f60        0xc  Data  Gb  descript.o [1]
gcSTD_ep_desc           0x83fc8fa8        0x8  Data  Gb  descript.o [1]
gcSerialnumString       0x83fc8ddc       0x14  Data  Gb  descript.o [1]
gcStd_IAD_desc          0x83fc8fa0        0x8  Data  Gb  descript.o [1]
gcStd_VCIF_desc         0x83fc8ec4        0xc  Data  Gb  descript.o [1]
gcStd_cfg_desc          0x83fc8eb8        0xc  Data  Gb  descript.o [1]
gcTestPacket            0x83fc8654       0x38  Data  Gb  descript.o [1]
get_Jpeg_CurJpegSize    0x80166998        0x4  Code  Gb  SensorCommon.o [1]
get_NASC                0x80120548       0x10  Code  Lc  sdmmc.o [1]
get_R2W_FACTOR          0x80120558       0x10  Code  Lc  sdmmc.o [1]
get_RCA                 0x801200e4      0x138  Code  Lc  sdmmc.o [1]
get_TAAC                0x801204e0       0x68  Code  Lc  sdmmc.o [1]
get_all_information     0x80121bc4       0x74  Code  Lc  sdmmc.o [1]
get_audio_buffer        0x8010bd51      0x13a  Code  Lc  frame.o [7]
get_avg_bits            0x801be70c       0xd4  Code  Lc  H264RateControl.o [1]
get_blocklen            0x801203e4       0x30  Code  Lc  sdmmc.o [1]
get_buffer_internal     0x800f41c1      0x2b6  Code  Lc  utils.o [5]
get_cap1                0x80120414       0x60  Code  Lc  sdmmc.o [1]
get_cap2                0x80120474       0x24  Code  Lc  sdmmc.o [1]
get_capacity            0x80120498       0x48  Code  Lc  sdmmc.o [1]
get_category            0x801063d1        0xc  Code  Lc  options.o [6]
get_category            0x800f95b1       0x14  Code  Lc  options.o [5]
get_cid                 0x801202d8       0xf8  Code  Lc  sdmmc.o [1]
get_csd                 0x8012021c       0xbc  Code  Lc  sdmmc.o [1]
get_dirty_cache_block_count
                        0x8013db24      0x144  Code  Lc  xm_h264_cache_file.o [1]
get_fat_cluster_size_from_channel
                        0x80130ef8       0x20  Code  Lc  xmvideoitem.o [1]
get_framebuffer_index_from_osd_layer
                        0x801369c0       0x18  Code  Lc  xm_osd_framebuffer.o [1]
get_free_cache_block_size
                        0x8013dcf4       0x88  Code  Lc  xm_h264_cache_file.o [1]
get_head_set            0x8015ec74       0x68  Code  Lc  FAT_FreeCluster.o [1]
get_key                 0x800faa21       0xe4  Code  Lc  opt.o [7]
get_last_framebuffer    0x80136ae4       0xc8  Code  Lc  xm_osd_framebuffer.o [1]
get_max_count_set       0x8015ed44       0x7c  Code  Lc  FAT_FreeCluster.o [1]
get_node                0x80151564       0x28  Code  Lc  xm_win_user.o [1]
get_node_from_hwnd      0x8015158c       0x5c  Code  Lc  xm_win_user.o [1]
get_recycle_item_name   0x80157aec       0x60  Code  Lc  xm_recycle.o [1]
get_restore_item_name   0x80157b4c       0x60  Code  Lc  xm_recycle.o [1]
get_scr                 0x8012151c       0xd0  Code  Lc  sdmmc.o [1]
get_tail_set            0x8015ecdc       0x68  Code  Lc  FAT_FreeCluster.o [1]
get_video_buffer        0x8010bbf1      0x15e  Code  Lc  frame.o [7]
get_video_info          0x801d1980       0x5c  Code  Lc  app_videoview.o [1]
get_width               0x801216b8       0x20  Code  Lc  sdmmc.o [1]
getenv                  0x80107781       0x48  Code  Gb  getenv.o [4]
getera                  0x8015fd65       0x9a  Code  Lc  xgentime.o [4]
getint                  0x8015fa89       0x30  Code  Lc  xgetdst.o [4]
getpagesize             0x8016e0cc        0x8  Code  Lc  dwl_iar.o [1]
getpagesize             0x80178f04        0x8  Code  Lc  ewl_x280_common.o [1]
gettimeofday            0x800f8b80       0x14  Code  Gb  avio.o [1]
getval                  0x8015fbb1       0x54  Code  Lc  xgentime.o [4]
gif_decode_frame        0x80153b74      0x204  Code  Lc  xm_osd_layer_gif.o [1]
gif_render_frame        0x80154054      0x27c  Code  Lc  xm_osd_layer_gif.o [1]
gmtime                  0x8010992f        0xe  Code  Gb  gmtime.o [4]
gop_avg_qp              0x801be244      0x180  Code  Lc  H264RateControl.o [1]
gpio_function_init      0x80177a68       0x40  Code  Gb  gpio_function.o [1]
gsAudioLimit            0x83fed4f4        0x4  Data  Gb  globaldata.o [1]
gsAudioStatus           0x83fed4f0        0x4  Data  Gb  globaldata.o [1]
gsDeviceStatus          0x83fed40c        0xc  Data  Gb  globaldata.o [1]
gsEp0Status             0x83fed418        0xc  Data  Gb  globaldata.o [1]
gsStdDevDesc            0x83fed354       0x14  Data  Gb  descript.o [1]
gsStillProbeCtrl        0x83fed424        0xc  Data  Gb  globaldata.o [1]
gsUsbRequest            0x83fed478        0x8  Data  Gb  globaldata.o [1]
gsVideoDefault          0x83fed2ac       0x18  Data  Gb  globaldata.o [1]
gsVideoLimit            0x83fed480        0x8  Data  Gb  globaldata.o [1]
gsVideoProbeCtrl        0x83fed258       0x1c  Data  Gb  globaldata.o [1]
gsVideoStatus           0x83fed238       0x20  Data  Gb  globaldata.o [1]
gwPID                   0x83fc8e86        0x2  Data  Gb  globaldata.o [1]
gwVID                   0x83fc8d7e        0x2  Data  Gb  globaldata.o [1]
h                       0x83fc7a38        0x4  Data  Lc  xmvideoitem.o [1]
h264AllocateResources   0x801a8090      0x164  Code  Lc  h264decapi.o [1]
h264CacheBlock          0x81400400  0x1001080  Data  Lc  xm_h264_cache_file.o [1]
h264CacheFileHandle     0x83fe9c64      0x400  Data  Lc  xm_h264_cache_file.o [1]
h264CacheFileSema       0x83fea164       0x14  Data  Lc  xm_h264_cache_file.o [1]
h264CheckCabacZeroWords
                        0x801adb98       0x4c  Code  Gb  h264hwd_util.o [1]
h264CheckReleasePpAndHw
                        0x801a88b0       0x84  Code  Lc  h264decapi.o [1]
h264ContextInit         0x80196a38     0x2b20  Data  Lc  H264Cabac.o [1]
h264ContextInitIntra    0x80195bd8      0xe60  Data  Lc  H264Cabac.o [1]
h264DiffMvPenalty       0x801c1404       0xd0  Data  Lc  H264CodeFrame.o [1]
h264DiffMvPenalty4p     0x801c14d4       0xd0  Data  Lc  H264CodeFrame.o [1]
h264DpbUpdateOutputList
                        0x801a4f68      0x22c  Code  Gb  h264hwd_dpb.o [1]
h264GetSarInfo          0x801a86dc      0x1d4  Code  Lc  h264decapi.o [1]
h264InitPicFreezeOutput
                        0x801a81f4      0x4b0  Code  Lc  h264decapi.o [1]
h264InterFavor          0x801c1264       0xd0  Data  Lc  H264CodeFrame.o [1]
h264Intra16Favor        0x801c1194       0xd0  Data  Lc  H264CodeFrame.o [1]
h264PpMultiAddPic       0x801ad1a0       0x5c  Code  Gb  h264_pp_pipeline.o [1]
h264PpMultiFindPic      0x801ad25c       0x3c  Code  Gb  h264_pp_pipeline.o [1]
h264PpMultiInit         0x801ad298       0x44  Code  Gb  h264_pp_pipeline.o [1]
h264PpMultiRemovePic    0x801ad1fc       0x60  Code  Gb  h264_pp_pipeline.o [1]
h264PpsSupported        0x801a7f70       0x78  Code  Lc  h264decapi.o [1]
h264PreparePpRun        0x801acf2c      0x274  Code  Gb  h264_pp_pipeline.o [1]
h264PrevModeFavor       0x801906a8       0xd0  Data  Lc  encasiccontroller.o [1]
h264SkipSadPenalty      0x801c1334       0xd0  Data  Lc  H264CodeFrame.o [1]
h264SpsSupported        0x801a7ec4       0xac  Code  Lc  h264decapi.o [1]
h264StreamIsBaseline    0x801a7fe8       0xa8  Code  Lc  h264decapi.o [1]
h264StreamPosUpdate     0x801abae4       0xac  Code  Lc  h264hwd_asic.o [1]
h264UpdateAfterPictureDecode
                        0x801a7c38      0x28c  Code  Lc  h264decapi.o [1]
h264_arkn141_config_decoder
                        0x801df35c       0xbc  Code  Gb  arkn141_h264_decoder.o [1]
h264_arkn141_decode_end
                        0x801df0ad       0x40  Code  Lc  h264_arkn141.o [5]
h264_class              0x801e1f40       0x2c  Data  Lc  h264_arkn141.o [5]
h264_decode_avi_stream  0x80103541      0x6a8  Code  Gb  tachograph.o [6]
h264_demuxer_class      0x801d2f6c       0x2c  Data  Lc  h264dec.o [6]
h264_encode_avi_stream  0x80104261      0x410  Code  Gb  tachograph.o [6]
h264_encode_avi_stream_two_channel
                        0x80104671      0x7b6  Code  Gb  tachograph.o [6]
h264_encode_event       0x83fecfb0        0x8  Data  Lc  arkn141_codec.o [1]
h264_fclose             0x80117394       0x90  Code  Gb  xm_h264_file.o [1]
h264_fopen              0x80117214      0x180  Code  Gb  xm_h264_file.o [1]
h264_fread              0x80117488       0x54  Code  Gb  xm_h264_file.o [1]
h264_fseek              0x80117424       0x64  Code  Gb  xm_h264_file.o [1]
h264_fwrite             0x801174dc       0x54  Code  Gb  xm_h264_file.o [1]
h264_get_sensor_packet  0x80103fe1      0x144  Code  Lc  tachograph.o [6]
h264_mask_mod           0x83fbe378        0x4  Data  Lc  avi_codec_task.o [1]
h264_options            0x801e1fe0       0x90  Data  Lc  h264_arkn141.o [5]
h264_probe              0x801e1b51      0x14a  Code  Lc  h264dec.o [6]
h264bsdActivateParamSets
                        0x801ac4e0      0x154  Code  Gb  h264hwd_storage.o [1]
h264bsdAllocateDpbImage
                        0x801a52bc      0x178  Code  Gb  h264hwd_dpb.o [1]
h264bsdAllocateSwResources
                        0x801ace24      0x108  Code  Gb  h264hwd_storage.o [1]
h264bsdAspectRatioIdc   0x801a9704       0x3c  Code  Gb  h264hwd_decoder.o [1]
h264bsdCheckAccessUnitBoundary
                        0x801ac764      0x4ac  Code  Gb  h264hwd_storage.o [1]
h264bsdCheckBottomFieldFlag
                        0x801b1450       0xf0  Code  Gb  h264hwd_slice_header.o [1]
h264bsdCheckDeltaPicOrderCnt
                        0x801b0dd4      0x158  Code  Gb  h264hwd_slice_header.o [1]
h264bsdCheckDeltaPicOrderCntBottom
                        0x801b0c74      0x160  Code  Gb  h264hwd_slice_header.o [1]
h264bsdCheckFieldPicFlag
                        0x801b1384       0xcc  Code  Gb  h264hwd_slice_header.o [1]
h264bsdCheckFrameNum    0x801b0968       0xa4  Code  Gb  h264hwd_slice_header.o [1]
h264bsdCheckGapsInFrameNum
                        0x801a59c4      0x22c  Code  Gb  h264hwd_dpb.o [1]
h264bsdCheckIdrPicId    0x801b0a0c      0x118  Code  Gb  h264hwd_slice_header.o [1]
h264bsdCheckPicOrderCntLsb
                        0x801b0b24      0x150  Code  Gb  h264hwd_slice_header.o [1]
h264bsdCheckPpsId       0x801b08e4       0x84  Code  Gb  h264hwd_slice_header.o [1]
h264bsdCheckPriorPicsFlag
                        0x801b0f2c      0x20c  Code  Gb  h264hwd_slice_header.o [1]
h264bsdCheckValidParamSets
                        0x801a96e4       0x20  Code  Gb  h264hwd_decoder.o [1]
h264bsdCompareSeqParamSets
                        0x801aed88      0x278  Code  Gb  h264hwd_seq_param_set.o [1]
h264bsdComputeSliceGroupMap
                        0x801ac738       0x2c  Code  Gb  h264hwd_storage.o [1]
h264bsdConceal          0x801adf3c      0x1c4  Code  Gb  h264hwd_conceal.o [1]
h264bsdCountLeadingZeros
                        0x801ad9f8       0x34  Code  Gb  h264hwd_util.o [1]
h264bsdCroppingParams   0x801a9840       0xf4  Code  Gb  h264hwd_decoder.o [1]
h264bsdDecode           0x801a895c      0xa00  Code  Gb  h264hwd_decoder.o [1]
h264bsdDecodeExpGolombMapped
                        0x801b4c90       0x6c  Code  Gb  h264hwd_vlc.o [1]
h264bsdDecodeExpGolombSigned
                        0x801b4c00       0x90  Code  Gb  h264hwd_vlc.o [1]
h264bsdDecodeExpGolombTruncated
                        0x801b4cfc       0x50  Code  Gb  h264hwd_vlc.o [1]
h264bsdDecodeExpGolombUnsigned
                        0x801b49f8      0x208  Code  Gb  h264hwd_vlc.o [1]
h264bsdDecodeMacroblock
                        0x801b3908      0x25c  Code  Gb  h264hwd_macroblock_layer.o [1]
h264bsdDecodeMacroblockLayerCavlc
                        0x801b2e00      0x258  Code  Gb  h264hwd_macroblock_layer.o [1]
h264bsdDecodeNalUnit    0x801ade64       0xd8  Code  Gb  h264hwd_nal_unit.o [1]
h264bsdDecodePicOrderCnt
                        0x801ad2dc      0x408  Code  Gb  h264hwd_pic_order_cnt.o [1]
h264bsdDecodePicParamSet
                        0x801af3e0      0x790  Code  Gb  h264hwd_pic_param_set.o [1]
h264bsdDecodeResidualBlockCavlc
                        0x801b5d74      0x5c4  Code  Gb  h264hwd_cavlc.o [1]
h264bsdDecodeSeqParamSet
                        0x801ae3c0      0x870  Code  Gb  h264hwd_seq_param_set.o [1]
h264bsdDecodeSliceData  0x801b1540      0x288  Code  Gb  h264hwd_slice_data.o [1]
h264bsdDecodeSliceGroupMap
                        0x801b43c0      0x164  Code  Gb  h264hwd_slice_group_map.o [1]
h264bsdDecodeSliceHeader
                        0x801afb90      0x8c4  Code  Gb  h264hwd_slice_header.o [1]
h264bsdDecodeVuiParameters
                        0x801b4dac      0x7ac  Code  Gb  h264hwd_vui.o [1]
h264bsdDpbOutputPicture
                        0x801a5da0       0x8c  Code  Gb  h264hwd_dpb.o [1]
h264bsdExtractNalUnit   0x801ad6e4      0x29c  Code  Gb  h264hwd_byte_stream.o [1]
h264bsdFindNextStartCode
                        0x801ad980       0x78  Code  Gb  h264hwd_byte_stream.o [1]
h264bsdFlushBits        0x801b4728      0x2b4  Code  Gb  h264hwd_stream.o [1]
h264bsdFlushBuffer      0x801a96d0       0x14  Code  Gb  h264hwd_decoder.o [1]
h264bsdFlushDpb         0x801a5e2c       0x4c  Code  Gb  h264hwd_dpb.o [1]
h264bsdFreeDpb          0x801a5e78       0x6c  Code  Gb  h264hwd_dpb.o [1]
h264bsdGetBits          0x801b4524       0x48  Code  Gb  h264hwd_stream.o [1]
h264bsdGetNeighbourMb   0x801add18       0x64  Code  Gb  h264hwd_neighbour.o [1]
h264bsdGetRefPicData    0x801a5194       0x78  Code  Gb  h264hwd_dpb.o [1]
h264bsdGetRefPicDataVlcMode
                        0x801a520c       0xb0  Code  Gb  h264hwd_dpb.o [1]
h264bsdInit             0x801a8934       0x28  Code  Gb  h264hwd_decoder.o [1]
h264bsdInitDpb          0x801a54ec      0x264  Code  Gb  h264hwd_dpb.o [1]
h264bsdInitMbNeighbours
                        0x801adbe4      0x134  Code  Gb  h264hwd_neighbour.o [1]
h264bsdInitRefPicList   0x801a5830       0x3c  Code  Gb  h264hwd_dpb.o [1]
h264bsdInitStorage      0x801abe84       0x40  Code  Gb  h264hwd_storage.o [1]
h264bsdIsByteAligned    0x801b49dc       0x1c  Code  Gb  h264hwd_stream.o [1]
h264bsdIsEndOfPicture   0x801ac6b0       0x88  Code  Gb  h264hwd_storage.o [1]
h264bsdIsMonoChrome     0x801a96b0       0x20  Code  Gb  h264hwd_decoder.o [1]
h264bsdIsNeighbourAvailable
                        0x801addac       0x28  Code  Gb  h264hwd_neighbour.o [1]
h264bsdIsOppositeFieldPic
                        0x801b12f0       0x94  Code  Gb  h264hwd_slice_header.o [1]
h264bsdIsStartOfPicture
                        0x801ac694       0x1c  Code  Gb  h264hwd_storage.o [1]
h264bsdMarkDecRefPic    0x801a4a94      0x4d4  Code  Gb  h264hwd_dpb.o [1]
h264bsdMarkSliceCorrupted
                        0x801b17c8       0xf4  Code  Gb  h264hwd_slice_data.o [1]
h264bsdMatrixCoefficients
                        0x801a97f4       0x4c  Code  Gb  h264hwd_decoder.o [1]
h264bsdMbPartPredMode   0x801b3058       0x30  Code  Gb  h264hwd_macroblock_layer.o [1]
h264bsdModifyScalingLists
                        0x801ac0c0      0x174  Code  Gb  h264hwd_storage.o [1]
h264bsdMoreRbspData     0x801ada80       0xcc  Code  Gb  h264hwd_util.o [1]
h264bsdNeighbour4x4BlockA
                        0x801add7c       0x10  Code  Gb  h264hwd_neighbour.o [1]
h264bsdNeighbour4x4BlockB
                        0x801add8c       0x10  Code  Gb  h264hwd_neighbour.o [1]
h264bsdNeighbour4x4BlockD
                        0x801add9c       0x10  Code  Gb  h264hwd_neighbour.o [1]
h264bsdNextMbAddress    0x801adb4c       0x4c  Code  Gb  h264hwd_util.o [1]
h264bsdNextOutputPicture
                        0x801a95d8       0x98  Code  Gb  h264hwd_decoder.o [1]
h264bsdNumMbPart        0x801b3088       0x30  Code  Lc  h264hwd_macroblock_layer.o [1]
h264bsdNumSubMbPart     0x801b30b8       0x34  Code  Gb  h264hwd_macroblock_layer.o [1]
h264bsdPicHeight        0x801a9690       0x20  Code  Gb  h264hwd_decoder.o [1]
h264bsdPicWidth         0x801a9670       0x20  Code  Gb  h264hwd_decoder.o [1]
h264bsdPredModeIntra16x16
                        0x801b38f8       0x10  Code  Gb  h264hwd_macroblock_layer.o [1]
h264bsdRbspTrailingBits
                        0x801ada2c       0x28  Code  Gb  h264hwd_util.o [1]
h264bsdReorderRefPicList
                        0x801a4260      0x1a8  Code  Gb  h264hwd_dpb.o [1]
h264bsdResetDpb         0x801a5750       0xe0  Code  Gb  h264hwd_dpb.o [1]
h264bsdResetStorage     0x801ac634       0x60  Code  Gb  h264hwd_storage.o [1]
h264bsdSarSize          0x801a9740       0x6c  Code  Gb  h264hwd_decoder.o [1]
h264bsdShowBits         0x801b456c      0x1bc  Code  Gb  h264hwd_stream.o [1]
h264bsdShutdown         0x801a935c      0x27c  Code  Gb  h264hwd_decoder.o [1]
h264bsdStorePicParamSet
                        0x801ac234      0x2ac  Code  Gb  h264hwd_storage.o [1]
h264bsdStoreSeqParamSet
                        0x801abec4      0x1fc  Code  Gb  h264hwd_storage.o [1]
h264bsdValidParamSets   0x801acd8c       0x98  Code  Gb  h264hwd_storage.o [1]
h264bsdVideoRange       0x801a97ac       0x48  Code  Gb  h264hwd_decoder.o [1]
h264codec_RecorderStart
                        0x80113130      0x354  Code  Lc  avi_codec_task.o [1]
h264codec_command_param
                        0x83fbe2b0       0x90  Data  Lc  avi_codec_task.o [1]
h264codec_frame_rate    0x83fbe37c        0x1  Data  Lc  avi_codec_task.o [1]
h264codec_mailbox       0x83fc25a0       0x1c  Data  Lc  avi_codec_task.o [1]
h264codec_mailbuf       0x83fbe37d        0x1  Data  Lc  avi_codec_task.o [1]
h264codec_mode          0x83fbe358        0x4  Data  Lc  avi_codec_task.o [1]
h264codec_mode_code     0x83fbe360        0xc  Data  Lc  avi_codec_task.o [1]
h264codec_sema          0x83fc258c       0x14  Data  Lc  avi_codec_task.o [1]
h264codec_state         0x83fbe35c        0x4  Data  Lc  avi_codec_task.o [1]
h264codec_state_code    0x83fbe36c        0xc  Data  Lc  avi_codec_task.o [1]
h264file_free           0x83fe9c48        0x8  Data  Lc  xm_h264_file.o [1]
h264file_inited         0x83fea100        0x4  Data  Lc  xm_h264_cache_file.o [1]
h264file_sema           0x83fe9c50       0x14  Data  Lc  xm_h264_file.o [1]
h264file_unit           0x83fe9708      0x540  Data  Lc  xm_h264_file.o [1]
hWnd_AlbumListView      0x83fc8700       0x30  Data  Gb  app_albumlistview.o [1]
hWnd_AlbumView          0x83fc8740       0x30  Data  Gb  app_albumview.o [1]
hWnd_AlertView          0x83fc86c0       0x30  Data  Gb  alert_view.o [1]
hWnd_DateTimeSetting    0x83fc8780       0x30  Data  Gb  app_datetimesetting.o [1]
hWnd_Desktop            0x83fc8ac0       0x30  Data  Gb  desktop.o [1]
hWnd_MenuOptionView     0x83fc87c0       0x30  Data  Gb  app_menuoptionview.o [1]
hWnd_MessageView        0x83fc8800       0x30  Data  Gb  app_messageview.o [1]
hWnd_OkCancelView       0x83fc8840       0x30  Data  Gb  app_okcancelview.o [1]
hWnd_ProcessView        0x83fc8880       0x30  Data  Gb  app_processview.o [1]
hWnd_RecycleVideoAlertView
                        0x83fc8b00       0x30  Data  Gb  recycle_video_alert_view.o [1]
hWnd_RecycleView        0x83fc88c0       0x30  Data  Gb  app_recycleview.o [1]
hWnd_SettingView        0x83fc8900       0x30  Data  Gb  app_settingview.o [1]
hWnd_SoundVolumeView    0x83fc8940       0x30  Data  Gb  app_soundvolumeview.o [1]
hWnd_SystemSettingView  0x83fc8980       0x30  Data  Gb  app_systemsettingview.o [1]
hWnd_SystemVersionView  0x83fc89c0       0x30  Data  Gb  app_systemversionview.o [1]
hWnd_VideoListView      0x83fc8a00       0x30  Data  Gb  app_videolistview.o [1]
hWnd_VideoSettingView   0x83fc8a40       0x30  Data  Gb  app_videosettingview.o [1]
hWnd_VideoView          0x83fc8a80       0x30  Data  Gb  app_videoview.o [1]
head_id                 0x80141818        0x8  Data  Lc  CdrRequest.o [1]
hex_dump_internal       0x800e1ce1      0x750  Code  Lc  utils.o [6]
hex_table_lc.12531      0x801df96c       0x10  Data  Lc  utils.o [6]
hex_table_uc.12530      0x801df95c       0x10  Data  Lc  utils.o [6]
histogram_balance_calculate
                        0x80156758       0x88  Code  Lc  arkn141_isp_exposure.o [1]
histogram_bands_initialize
                        0x801564c0       0x28  Code  Lc  arkn141_isp_exposure.o [1]
histogram_data_read     0x801566e0       0x64  Code  Lc  arkn141_isp_exposure.o [1]
histogram_error_calculate
                        0x80156744       0x14  Code  Lc  arkn141_isp_exposure.o [1]
histogram_initialize    0x801564e8       0x20  Code  Lc  arkn141_isp_exposure.o [1]
histogram_update        0x801567e0       0x2c  Code  Lc  arkn141_isp_exposure.o [1]
hongjing_socket_dev     0x83fed4f8        0x4  Data  Gb  hongjing_uart_socket.o [1]
hwDecRegSpec            0x8016bfe4     0x20e8  Data  Lc  regdrv.o [1]
hw_bAvoutPlugIn         0x83fc8c14        0x4  Data  Gb  target.o [1]
hw_bHdmiPlugIn          0x83fc8c18        0x4  Data  Gb  target.o [1]
hw_bLcdPlugIn           0x83fc8c10        0x4  Data  Gb  target.o [1]
hw_bOsdOn               0x83fc8c2a        0x1  Data  Gb  target.o [1]
hw_bSensorConnect       0x83fc8c28        0x1  Data  Gb  target.o [1]
hw_bVideoRec            0x83fc8c29        0x1  Data  Gb  target.o [1]
hw_backlight_set_auto_off_ticket
                        0x801064b0       0x50  Code  Gb  target.o [1]
hw_decoder_open_count   0x83fed594        0x4  Data  Lc  h264_arkn141.o [5]
hw_uAvoutType           0x83fc8c27        0x1  Data  Gb  target.o [1]
hw_watchdog_init        0x801194f4       0x4c  Code  Gb  wdt.o [1]
hx170dec_cleanup        0x801607cc       0x34  Code  Gb  hx170dec.o [1]
hx170dec_data           0x83fed390       0x14  Data  Lc  hx170dec.o [1]
hx170dec_init           0x80160750       0x7c  Code  Gb  hx170dec.o [1]
hx170dec_isr            0x801608c0       0x78  Code  Lc  hx170dec.o [1]
hx280enc_data           0x83fed2dc       0x18  Data  Lc  hx280enc.o [1]
hx280enc_exit           0x801605c0       0x34  Code  Gb  hx280enc.o [1]
hx280enc_init           0x80160558       0x68  Code  Gb  hx280enc.o [1]
hx280enc_isr            0x80160684       0x54  Code  Lc  hx280enc.o [1]
hybrid_state            0x83fed200        0x4  Data  Lc  xm_hybrid_stream.o [1]
i2c_0_isr               0x8012d6b8       0x30  Code  Lc  xm_i2c.o [1]
i2c_access_sema         0x83fecfc4       0x14  Data  Lc  xm_i2c.o [1]
i2c_client_access_sema  0x83fecfe0       0x14  Data  Lc  xm_i2c.o [1]
i2c_client_head         0x83fecfd8        0x8  Data  Lc  xm_i2c.o [1]
i2c_clock_disable       0x8012ced0        0x4  Code  Lc  xm_i2c.o [1]
i2c_clock_enable        0x8012cecc        0x4  Code  Lc  xm_i2c.o [1]
i2c_delay               0x8012ce34       0x14  Code  Lc  xm_i2c.o [1]
i2c_device              0x83fecfc0        0x4  Data  Lc  xm_i2c.o [1]
i2c_dw_handle_tx_abort  0x8012d390       0xc0  Code  Lc  xm_i2c.o [1]
i2c_dw_init             0x8012cf48      0x11c  Code  Lc  xm_i2c.o [1]
i2c_dw_isr              0x8012d628       0x90  Code  Lc  xm_i2c.o [1]
i2c_dw_read             0x8012d2c4       0xcc  Code  Lc  xm_i2c.o [1]
i2c_dw_read_clear_intrbits
                        0x8012d56c       0xbc  Code  Lc  xm_i2c.o [1]
i2c_dw_scl_hcnt         0x8012ced4       0x4c  Code  Lc  xm_i2c.o [1]
i2c_dw_scl_lcnt         0x8012cf20       0x28  Code  Lc  xm_i2c.o [1]
i2c_dw_wait_bus_not_busy
                        0x8012d064       0x50  Code  Lc  xm_i2c.o [1]
i2c_dw_xfer             0x8012d450      0x11c  Code  Lc  xm_i2c.o [1]
i2c_dw_xfer_init        0x8012d0b4       0x74  Code  Lc  xm_i2c.o [1]
i2c_dw_xfer_msg         0x8012d128      0x19c  Code  Lc  xm_i2c.o [1]
i2c_reg16_read16        0x801554f4       0x98  Code  Gb  arkn141_cmos_sensor_ar0238_io.o [1]
i2c_reg16_write16       0x80155498       0x5c  Code  Gb  arkn141_cmos_sensor_ar0238_io.o [1]
i2c_reset               0x8012ce94       0x38  Code  Lc  xm_i2c.o [1]
iRecordMode             0x83fed470        0x4  Data  Gb  desktop.o [1]
iar_random              0x800f8c58        0x4  Code  Gb  avio.o [1]
icon_image              0x83fec2ec       0x24  Data  Lc  xm_icon_manage.o [1]
icon_scheme             0x83fec298       0x30  Data  Lc  xm_icon_manage.o [1]
icon_semaphore          0x83fec314        0x4  Data  Lc  xm_icon_manage.o [1]
icon_state              0x83fec2c8       0x24  Data  Lc  xm_icon_manage.o [1]
id3v2_2_metadata_conv   0x801ddb38       0x48  Data  Lc  id3v2.o [6]
id3v2_extra_meta_funcs  0x801dd934       0x40  Data  Lc  id3v2.o [6]
image_datatime_32       0x83fed054       0x30  Data  Lc  xm_icon_manage.o [1]
image_datetime          0x83fec268       0x30  Data  Lc  xm_icon_manage.o [1]
image_file_data         0x83fc7d94        0x4  Data  Lc  jpeg_task.o [1]
image_file_size         0x83fc7d98        0x4  Data  Lc  jpeg_task.o [1]
imap1                   0x801e3a78       0x10  Data  Gb  tab_ld8k.o [13]
imap2                   0x801e39d4       0x20  Data  Gb  tab_ld8k.o [13]
imgutils_class          0x801e0dac       0x2c  Data  Lc  imgutils.o [7]
inflate                 0x8014e4b4     0x1058  Code  Gb  inflate.o [14]
inflateEnd              0x8014f510       0x54  Code  Gb  inflate.o [14]
inflateInit2_           0x8014e2b8       0xbc  Code  Gb  inflate.o [14]
inflateInit_            0x8014e384       0x10  Code  Gb  inflate.o [14]
inflateReset            0x8014e204       0x28  Code  Gb  inflate.o [14]
inflateReset2           0x8014e234       0x84  Code  Gb  inflate.o [14]
inflateResetKeep        0x8014e180       0x84  Code  Gb  inflate.o [14]
inflate_fast            0x801615e4      0x470  Code  Gb  inffast.o [14]
inflate_table           0x80160fac      0x538  Code  Gb  inftrees.o [14]
initSetFlicker          0x801663ac       0x24  Code  Gb  globalfunc.o [1]
init_SPI                0x8011b190      0x168  Code  Gb  ssi.o [1]
init_descriptor         0x80177ae4      0xc08  Code  Gb  descript_def.o [1]
init_mparams            0x80148c25       0x2a  Code  Lc  dlmalloc.o [4]
init_sd_mmc             0x80121c38      0x290  Code  Lc  sdmmc.o [1]
init_top                0x80148c51       0x3a  Code  Lc  dlmalloc.o [4]
init_write_file         0x80103cb1      0x330  Code  Lc  tachograph.o [6]
initial_clk             0x8011fca4       0x3c  Code  Lc  sdmmc.o [1]
initialized.5834        0x83fed584        0x4  Data  Lc  allcodecs.o [5]
initialized.7015        0x83fed578        0x4  Data  Lc  allformats.o [6]
initialized.8084        0x83fed294        0x4  Data  Lc  utils.o [5]
inp_L_shl               0x801815d0       0x54  Code  Gb  basic_op.o [13]
inp_calc_ltp            0x801727cc       0x4c  Code  Gb  pst.o [12]
inp_calc_st             0x80172818       0x4c  Code  Gb  pst.o [12]
inp_del                 0x80173ee0       0xb0  Code  Gb  mul64_op.o [12]
inp_div_s               0x801817a8       0x3c  Code  Gb  basic_op.o [13]
inp_gauss_excg          0x80182364       0x6c  Code  Gb  calcexc.o [13]
inp_ld                  0x80172084       0x60  Code  Gb  dec_ld8k.o [13]
inp_lt_3                0x80173de8       0xf8  Code  Gb  mul64_op.o [12]
inp_mu                  0x80172750       0x7c  Code  Gb  pst.o [12]
inp_plt                 0x80172864       0x64  Code  Gb  pst.o [12]
inp_pst_abs             0x801729c0       0x44  Code  Gb  pst.o [12]
inp_scale               0x80172724       0x2c  Code  Gb  pst.o [12]
inp_scale_gain          0x801726b0       0x74  Code  Gb  pst.o [12]
inp_shr                 0x801728c8       0xf8  Code  Gb  pst.o [12]
inp_syn_filt            0x801739f0       0xc8  Code  Gb  mul64_op.o [12]
insertFixup             0x80156fa4      0x168  Code  Lc  common_rbtr.o [1]
insert_video            0x8013121c      0x2f0  Code  Lc  xmvideoitem.o [1]
int_memset              0x801cf250       0x1c  Code  Lc  gif.o [1]
int_memset              0x801538cc       0x1c  Code  Lc  xm_osd_layer_gif.o [1]
inter_3l_1              0x83fc826c       0x50  Data  Lc  pred_lt3.o [13]
inter_3l_2              0x83fc82bc       0x50  Data  Lc  pred_lt3.o [13]
interleave_compare_dts  0x800f1031      0x288  Code  Lc  mux.o [6]
irq                     0x83fc9014        0x4  Data  Lc  hx170dec.o [1]
irq                     0x8016074c        0x4  Data  Lc  hx280enc.o [1]
irqHandler              0x801def58             Code  Gb  cortex_a5_board_cstartup_iar.o [1]
irq_disable             0x8012ea50       0x94  Code  Gb  irq.o [1]
irq_enable              0x8012eae4       0x98  Code  Gb  irq.o [1]
irq_handler             0x80138294             Code  Gb  rtos.o [10]
is_atty.4443            0x83fea5a4        0x4  Data  Lc  log.o [7]
is_card_insert          0x8011f3bc       0x18  Code  Lc  sdmmc.o [1]
is_legal_osd_layer      0x80110244       0x48  Code  Lc  xm_osd_layer.o [1]
is_timer_running        0x801ce444       0x2c  Code  Lc  app_processview.o [1]
is_usb_suspend          0x8015ab18        0xc  Code  Gb  interrupt.o [1]
is_valid_address        0x80106f58       0x30  Code  Lc  target.o [1]
is_valid_image_filename
                        0x801d15c4       0xc0  Code  Lc  app_album.o [1]
is_valid_image_filename
                        0x8015796c       0xc0  Code  Gb  xm_recycle.o [1]
is_valid_video_filename
                        0x80157a2c       0xc0  Code  Gb  xm_recycle.o [1]
isatty                  0x800f8b68        0x8  Code  Gb  avio.o [1]
isdst                   0x8014ad2c        0x1  Data  Lc  xlocale_c.o [4]
isp_SelPad              0x801551e0       0xa8  Code  Gb  Gem_isp_config.o [1]
isp_UnSelPad            0x80155288       0x54  Code  Gb  Gem_isp_config.o [1]
isp_ae_done_event_set   0x8012fc90        0xc  Code  Gb  Gem_isp.o [1]
isp_ae_event_exit       0x80155660        0x8  Code  Gb  Gem_isp_ae.o [1]
isp_ae_event_init       0x80155658        0x8  Code  Gb  Gem_isp_ae.o [1]
isp_ae_event_set        0x80155668        0x8  Code  Gb  Gem_isp_ae.o [1]
isp_ae_info_read        0x801559c0       0xf8  Code  Gb  Gem_isp_ae.o [1]
isp_ae_lum_read         0x8015579c       0x10  Code  Gb  Gem_isp_ae.o [1]
isp_ae_run              0x801557ac      0x214  Code  Gb  Gem_isp_ae.o [1]
isp_ae_sts2_read        0x80155ab8      0x1a0  Code  Gb  Gem_isp_ae.o [1]
isp_ae_window_weight_write
                        0x80155670       0x98  Code  Gb  Gem_isp_ae.o [1]
isp_ae_yavg_s_read      0x80155c58       0x7c  Code  Gb  Gem_isp_ae.o [1]
isp_auto_exposure_compensation
                        0x801565c0      0x120  Code  Gb  arkn141_isp_exposure.o [1]
isp_auto_exposure_initialize
                        0x8015680c       0x3c  Code  Gb  arkn141_isp_exposure.o [1]
isp_auto_exposure_run   0x80156c64       0xb8  Code  Gb  arkn141_isp_exposure.o [1]
isp_auto_run_state      0x83fc8ff8        0x4  Data  Lc  Gem_isp.o [1]
isp_awb_init_io         0x80170cd8      0x180  Code  Gb  Gem_isp_awb.o [1]
isp_clock_init          0x801552dc       0x98  Code  Gb  Gem_isp_config.o [1]
isp_clock_stop          0x80155374       0x28  Code  Gb  Gem_isp_config.o [1]
isp_cmos_inttime_update
                        0x80156060       0x14  Code  Gb  arkn141_isp_exposure_cmos.o [1]
isp_cmos_set_framerate  0x80156074       0xa0  Code  Gb  arkn141_isp_exposure_cmos.o [1]
isp_colors_init_io      0x80170e5c      0x130  Code  Gb  Gem_isp_colors.o [1]
isp_create_rgb2ycbcr_matrix
                        0x80170f8c      0x180  Code  Gb  Gem_isp_colors.o [1]
isp_denoise_init_io     0x80171110      0x168  Code  Gb  Gem_isp_denoise.o [1]
isp_disable             0x80140130       0x18  Code  Gb  Gem_isp_sys.o [1]
isp_enhance_init_io     0x80171560       0x9c  Code  Gb  Gem_isp_enhance.o [1]
isp_eris_init_io        0x80171278      0x110  Code  Gb  Gem_isp_eris.o [1]
isp_exposure            0x83fc6e8c      0x1ec  Data  Gb  Gem_isp.o [1]
isp_exposure_cmos_calculate
                        0x80155ef4      0x16c  Code  Gb  arkn141_isp_exposure_cmos.o [1]
isp_exposure_cmos_initialize
                        0x80156114      0x164  Code  Gb  arkn141_isp_exposure_cmos.o [1]
isp_fesp_init_io        0x80171388      0x1d8  Code  Gb  Gem_isp_fesp.o [1]
isp_gamma_adjust        0x8015c9ac       0x4c  Code  Gb  arkn141_cmos_sensor_ar0238.o [1]
isp_get_auto_run_state  0x8012fa28       0x24  Code  Gb  Gem_isp.o [1]
isp_get_exp_data        0x80130294       0x48  Code  Gb  Gem_isp.o [1]
isp_get_exp_data_size   0x8013028c        0x8  Code  Gb  Gem_isp.o [1]
isp_get_isp_data        0x8013019c       0xe8  Code  Gb  Gem_isp.o [1]
isp_get_isp_data_size   0x80130148        0x8  Code  Gb  Gem_isp.o [1]
isp_get_isp_data_version
                        0x80130284        0x8  Code  Gb  Gem_isp.o [1]
isp_get_sensor_bit      0x8012fa90        0xc  Code  Gb  Gem_isp.o [1]
isp_get_sensor_name     0x8012fc68       0x20  Code  Gb  Gem_isp.o [1]
isp_get_video_format    0x8012fa84        0xc  Code  Gb  Gem_isp.o [1]
isp_get_video_height    0x8012facc        0xc  Code  Gb  Gem_isp.o [1]
isp_get_video_image_size
                        0x8012fad8       0x44  Code  Gb  Gem_isp.o [1]
isp_get_video_width     0x8012fac0        0xc  Code  Gb  Gem_isp.o [1]
isp_get_work_mode       0x8012fc9c        0xc  Code  Gb  Gem_isp.o [1]
isp_get_yuv_buffer      0x8012fa4c       0x38  Code  Gb  Gem_isp.o [1]
isp_hist_data1          0x83fed458        0x4  Data  Lc  Gem_isp_ae.o [1]
isp_hist_data2          0x83fed45c        0x4  Data  Lc  Gem_isp_ae.o [1]
isp_histogram_bands_data
                        0x80155730       0x10  Code  Gb  Gem_isp_ae.o [1]
isp_histogram_bands_read
                        0x80155740       0x5c  Code  Gb  Gem_isp_ae.o [1]
isp_histogram_bands_write
                        0x80155708       0x28  Code  Gb  Gem_isp_ae.o [1]
isp_histogram_thread_update
                        0x80156548       0x78  Code  Gb  arkn141_isp_exposure.o [1]
isp_histogram_thresh_write
                        0x80156518       0x28  Code  Gb  arkn141_isp_exposure.o [1]
isp_i2c_exit            0x80155450       0x48  Code  Gb  arkn141_cmos_sensor_ar0238_io.o [1]
isp_i2c_init            0x801553f0       0x60  Code  Gb  arkn141_cmos_sensor_ar0238_io.o [1]
isp_init_cmos_sensor    0x8015decc       0xfc  Code  Gb  arkn141_cmos_sensor_ar0238.o [1]
isp_int_exit            0x801553c0       0x10  Code  Gb  Gem_isp_config.o [1]
isp_int_init            0x8015539c       0x10  Code  Gb  Gem_isp_config.o [1]
isp_isr                 0x8013ff60      0x1bc  Code  Gb  Gem_isp_sys.o [1]
isp_max_integration_time_set
                        0x80156280        0x8  Code  Gb  arkn141_isp_exposure_cmos.o [1]
isp_min_integration_time_set
                        0x80156278        0x8  Code  Gb  arkn141_isp_exposure_cmos.o [1]
isp_mode                0x83fc7180        0x4  Data  Lc  Gem_isp.o [1]
isp_pixel_clock_abnormal_count
                        0x83fed3fc        0x4  Data  Lc  Gem_isp_sys.o [1]
isp_scalar_access_sema  0x83febf50       0x14  Data  Lc  xm_isp_scalar.o [1]
isp_scalar_anti_aliasing_enhance_1st_rotate_buffer
                        0x83fec5a8        0x4  Data  Lc  arkn141_scale.o [1]
isp_scalar_anti_aliasing_enhance_1st_rotate_bus_address
                        0x83fec5b0        0x4  Data  Lc  arkn141_scale.o [1]
isp_scalar_anti_aliasing_enhance_2nd_scalar_buffer
                        0x83fec5ac        0x4  Data  Lc  arkn141_scale.o [1]
isp_scalar_anti_aliasing_enhance_2nd_scalar_bus_address
                        0x83fec5b4        0x4  Data  Lc  arkn141_scale.o [1]
isp_scalar_anti_aliasing_enhance_image_height
                        0x83fec5a4        0x4  Data  Lc  arkn141_scale.o [1]
isp_scalar_anti_aliasing_enhance_image_width
                        0x83fec5a0        0x4  Data  Lc  arkn141_scale.o [1]
isp_scalar_buffer       0x83febec0       0x80  Data  Lc  xm_isp_scalar.o [1]
isp_scalar_frame_notify
                        0x80138b10      0x198  Code  Lc  xm_isp_scalar.o [1]
isp_scalar_frames_to_discard_to_remove_flash
                        0x83febe8c        0x4  Data  Lc  xm_isp_scalar.o [1]
isp_scalar_index        0x83febe84        0x4  Data  Lc  xm_isp_scalar.o [1]
isp_scalar_int_handler  0x80138ca8       0xc0  Code  Lc  xm_isp_scalar.o [1]
isp_scalar_object       0x83febe88        0x4  Data  Lc  xm_isp_scalar.o [1]
isp_scalar_packet_fifo  0x83febf40        0x8  Data  Lc  xm_isp_scalar.o [1]
isp_scalar_packet_free  0x83febf48        0x8  Data  Lc  xm_isp_scalar.o [1]
isp_scalar_parameters   0x83febe90       0x30  Data  Lc  xm_isp_scalar.o [1]
isp_scalar_push_hardware_address
                        0x80138a30       0xe0  Code  Lc  xm_isp_scalar.o [1]
isp_scalar_run          0x8013ff50       0x10  Code  Gb  Gem_isp_sys.o [1]
isp_scalar_static_fifo  0x828c1000   0x371680  Data  Gb  xm_video_task.o [1]
isp_scale_clock_init    0x801386f0       0x40  Code  Lc  xm_isp_scalar.o [1]
isp_scale_clock_stop    0x80138730        0x8  Code  Lc  xm_isp_scalar.o [1]
isp_scaler_inited       0x83febe80        0x4  Data  Lc  xm_isp_scalar.o [1]
isp_sensor_bit          0x83fc8ff4        0x4  Data  Lc  Gem_isp.o [1]
isp_sensor_set_reset_pin_high
                        0x801551c8        0xc  Code  Gb  Gem_isp_config.o [1]
isp_sensor_set_reset_pin_low
                        0x801551d4        0xc  Code  Gb  Gem_isp_config.o [1]
isp_set_sensor_bit      0x8012fa9c        0xc  Code  Gb  Gem_isp.o [1]
isp_set_video_height    0x8012fab4        0xc  Code  Gb  Gem_isp.o [1]
isp_set_video_width     0x8012faa8        0xc  Code  Gb  Gem_isp.o [1]
isp_state               0x83fc717c        0x4  Data  Lc  Gem_isp.o [1]
isp_sys_init_io         0x8013fc3c      0x2fc  Code  Gb  Gem_isp_sys.o [1]
isp_sys_set_frame_ready
                        0x8013ff38       0x18  Code  Gb  Gem_isp_sys.o [1]
isp_system_ae_black_target_write
                        0x80156508        0x8  Code  Gb  arkn141_isp_exposure.o [1]
isp_system_ae_bright_target_write
                        0x80156510        0x8  Code  Gb  arkn141_isp_exposure.o [1]
isp_system_ae_compensation_write
                        0x80156540        0x8  Code  Gb  arkn141_isp_exposure.o [1]
isp_task                0x8012fcc4      0x3a8  Code  Gb  Gem_isp.o [1]
isp_video_height        0x83fc8e8c        0x4  Data  Lc  Gem_isp.o [1]
isp_video_width         0x83fc8e88        0x4  Data  Lc  Gem_isp.o [1]
isp_videobuf_alloc      0x8012fb1c      0x14c  Code  Gb  Gem_isp.o [1]
isp_yuv_format          0x83fc8e90        0x4  Data  Lc  Gem_isp.o [1]
isspace                 0x80177a64        0x4  Code  Gb  xm_tester_script.o [1]
itc_handler             0x83fec940       0x80  Data  Gb  irq.o [1]
jlink_disable           0x80126470       0x20  Code  Lc  main.o [1]
jpegSetNewFrame         0x8017a664      0x108  Code  Lc  EncJpegCodeFrame.o [1]
jpeg_arkn141_param_default
                        0x8015af60       0xdc  Code  Gb  arkn141_jpeg_encoder.o [1]
jpeg_dummy_mode_exit    0x8013cc78        0x8  Code  Lc  jpeg_task.o [1]
jpeg_dummy_mode_init    0x8013cc70        0x8  Code  Lc  jpeg_task.o [1]
jpeg_frame              0x83fc7d30       0x50  Data  Lc  jpeg_task.o [1]
jpeg_free_link          0x83fc7db4        0x8  Data  Lc  jpeg_task.o [1]
jpeg_image_mode_exit    0x8013cc44       0x2c  Code  Lc  jpeg_task.o [1]
jpeg_image_mode_init    0x8013cb4c       0xf8  Code  Lc  jpeg_task.o [1]
jpeg_isp_scalar_data    0x83fc7dac        0x8  Data  Lc  jpeg_task.o [1]
jpeg_isp_scalar_data_ready_user_callback
                        0x8013c8c8       0x6c  Code  Lc  jpeg_task.o [1]
jpeg_isp_scalar_fifo    0x83fc7c00      0x130  Data  Lc  jpeg_task.o [1]
jpeg_isp_scalar_frame_free_user_callback
                        0x8013c934       0x20  Code  Lc  jpeg_task.o [1]
jpeg_isp_scalar_mode_exit
                        0x8013c954       0x54  Code  Lc  jpeg_task.o [1]
jpeg_isp_scalar_mode_init
                        0x8013c9a8      0x1a4  Code  Lc  jpeg_task.o [1]
jpeg_isp_scalar_object  0x83fc7d90        0x4  Data  Lc  jpeg_task.o [1]
jpeg_mode               0x83fc7d88        0x4  Data  Lc  jpeg_task.o [1]
jpeg_reg_1_2_3_set      0x80147ef0        0xc  Code  Gb  UvcVideo.o [1]
jpegcodec_clear_response_message
                        0x8014861c       0x24  Code  Lc  onekeyphotograph_task.o [1]
jpegcodec_mailbox       0x83feca14       0x1c  Data  Lc  onekeyphotograph_task.o [1]
jpegcodec_mailbuf       0x83fec9c0        0x1  Data  Lc  onekeyphotograph_task.o [1]
jpegcodec_reply_response_message
                        0x801485e8       0x34  Code  Lc  onekeyphotograph_task.o [1]
jpegcodec_sema          0x83feca00       0x14  Data  Lc  onekeyphotograph_task.o [1]
julian_to_mdy           0x80154a68      0x14c  Code  Gb  calender.o [1]
julian_to_wday          0x80154bc4       0x1c  Code  Gb  calender.o [1]
jumpWnd                 0x83fc7744        0x4  Data  Lc  xm_win_user.o [1]
jump_type               0x83fc7766        0x1  Data  Lc  xm_win_user.o [1]
kernel_calloc           0x80107170       0x2c  Code  Gb  target.o [1]
kernel_free             0x80107010      0x160  Code  Gb  target.o [1]
kernel_malloc           0x80106f88       0x88  Code  Gb  target.o [1]
kernel_realloc          0x8010719c      0x130  Code  Gb  target.o [1]
keyInit                 0x83fec72e        0x1  Data  Lc  xm_kbd_drv.o [1]
key_command             0x8014bb0c      0x13c  Code  Lc  hongjing_uart_socket.o [1]
kmsg_buff               0x83fc7768      0x280  Data  Lc  xm_win_user.o [1]
kmsg_pool               0x83fc79e8        0x8  Data  Lc  xm_win_user.o [1]
last_key                0x83feccc4        0x4  Data  Lc  xm_adc.o [1]
last_key_ticket         0x83feccc8        0x4  Data  Lc  xm_adc.o [1]
latency_comp            0x801df420        0x4  Data  Lc  arkn141_h264_decoder.o [1]
lcd_display_enable      0x83fed504        0x4  Data  Lc  lcd.o [1]
lcd_set_display_off     0x80106550       0xc8  Code  Lc  target.o [1]
lcd_set_display_on      0x80106500       0x50  Code  Lc  target.o [1]
lcd_video_opened        0x83fc7f10        0x4  Data  Lc  xm_video_task.o [1]
lcdc_backlight_on       0x83fed500        0x4  Data  Lc  hw_osd_layer_iar.o [1]
lcdc_channel_config     0x801594f4      0x210  Data  Lc  xm_osd_framebuffer_config.o [1]
lcdc_channel_name       0x801197fc       0x20  Code  Lc  hw_osd_layer_iar.o [1]
lcdc_display_on         0x83fed4fc        0x4  Data  Lc  hw_osd_layer_iar.o [1]
lcdc_osd_callback       0x83fed2c4        0xc  Data  Lc  hw_osd_layer_iar.o [1]
lcdc_osd_layer          0x83febc74      0x108  Data  Lc  xm_osd_layer.o [1]
lcdc_osd_layer_verify   0x80136a9c       0x48  Code  Lc  xm_osd_framebuffer.o [1]
lcdc_osd_locked         0x83fed43c        0xc  Data  Lc  xm_osd_layer.o [1]
lcdc_osd_private        0x83fed2d0        0xc  Data  Lc  hw_osd_layer_iar.o [1]
lcdc_osd_state          0x83fc8c1c        0x4  Data  Lc  target.o [1]
lcdc_type               0x83fed438        0x4  Data  Lc  hw_osd_layer_iar.o [1]
lcdc_v_syn_event        0x83fed488        0x8  Data  Lc  hw_osd_layer_iar.o [1]
lcdc_xdots              0x83fed430        0x4  Data  Lc  hw_osd_layer_iar.o [1]
lcdc_ydots              0x83fed434        0x4  Data  Lc  hw_osd_layer_iar.o [1]
lenscoeff               0x8015e2f0      0x188  Data  Gb  arkn141_cmos_sensor_ar0238.o [1]
lg_aHardwareTimerNodes  0x83fe9000      0x700  Data  Lc  hardtimer_task.o [1]
lg_fnGPIOPadIRQHandlers
                        0x83feaedc      0x240  Data  Lc  gpio.o [1]
lg_pFreeHardwareTimerNodeList
                        0x83fe9700        0x4  Data  Lc  hardtimer_task.o [1]
lg_pHardwareTimerNodeList
                        0x83fe9704        0x4  Data  Lc  hardtimer_task.o [1]
lg_pSDMMC0_DetheringTimer
                        0x83fc8450        0x4  Data  Lc  sdmmc.o [1]
lg_pTmpBuf              0x83f52000    0x10000  Data  Lc  FAT_Read.o [1]
lg_stChannelManagerInfo
                        0x83fec840       0x80  Data  Lc  dma.o [1]
lg_ulCard0DeDitheringStatus
                        0x83fc8454        0x4  Data  Lc  sdmmc.o [1]
lg_ulLeftVolume         0x83fc8e60        0x4  Data  Lc  xm_iisadc.o [1]
lg_ulRightVolume        0x83fc8e64        0x4  Data  Lc  xm_iisadc.o [1]
lin_nsxx                0x801c0358       0x54  Code  Lc  H264Mad.o [1]
lin_nsxx                0x801bec04       0x44  Code  Lc  H264RateControl.o [1]
lin_sx                  0x801c02d0       0x3c  Code  Lc  H264Mad.o [1]
lin_sx                  0x801beac8       0x30  Code  Lc  H264RateControl.o [1]
lin_sxy                 0x801c030c       0x4c  Code  Lc  H264Mad.o [1]
lin_sxy                 0x801beaf8      0x10c  Code  Lc  H264RateControl.o [1]
lin_sy                  0x801bea40       0x88  Code  Lc  H264RateControl.o [1]
linear_to_alaw          0x83fc9044     0x4000  Data  Lc  pcm.o [5]
linear_to_ulaw          0x83fcd044     0x4000  Data  Lc  pcm.o [5]
llrint                  0x801061d1       0x4c  Code  Gb  llrint.o [9]
lmos                    0x801255bc       0x18  Data  Lc  xttotm.o [4]
lnbias                  0x80125030      0x420  Data  Lc  pow.o [9]
load_boot               0x80135998       0xf0  Code  Lc  xm_system_update.o [1]
load_boot_from_spi      0x80135a88       0x9c  Code  Lc  xm_system_update.o [1]
load_image              0x8013ab74       0x7c  Code  Lc  xm_icon_manage.o [1]
localtime               0x80109acd       0x18  Code  Gb  localtim.o [4]
lockmgr_cb              0x83fed29c        0x4  Data  Lc  utils.o [5]
log                     0x80107919        0xa  Code  Gb  log.o [9]
log_value               0x800fa8b1      0x170  Code  Lc  opt.o [7]
longjmp                 0x80150f54             Code  Gb  setjmp.o [11]
low_level_init          0x80112a3c       0x20  Code  Gb  rtosinit.o [1]
lrintf                  0x800f94d1       0x40  Code  Gb  lrintf.o [9]
lsc_match               0x8015d9c8       0xe0  Code  Lc  arkn141_cmos_sensor_ar0238.o [1]
lsc_polyline_tbl        0x8015e720       0x18  Data  Lc  arkn141_cmos_sensor_ar0238.o [1]
lseek64                 0x8013d80c       0x34  Code  Gb  xm_core_file.o [1]
lspSid                  0x83fc8d50       0x14  Data  Lc  dec_sid.o [13]
lsp_old                 0x83fc8ba0       0x14  Data  Lc  dec_ld8k.o [13]
lspcb1                  0x801d4c28      0xa00  Data  Gb  rom_table.o [13]
lspcb2                  0x801dfbe8      0x280  Data  Gb  rom_table.o [13]
mac_r                   0x801816ac       0x18  Code  Gb  basic_op.o [13]
main                    0x801264e8       0xf8  Code  Gb  main.o [1]
map.10174               0x801e3320       0x50  Data  Lc  utils.o [5]
map_memcpy              0x80164c58       0xb8  Code  Gb  xm_file.o [1]
marg                    0x801da2de        0x6  Data  Gb  rom_table.o [13]
match_cluster_set       0x8015edc0       0x68  Code  Lc  FAT_FreeCluster.o [1]
match_mmc_vcc           0x80120018       0xcc  Code  Lc  sdmmc.o [1]
match_resolt_colort     0x8015d728      0x1fc  Code  Lc  arkn141_cmos_sensor_ar0238.o [1]
match_sd_vcc            0x8011fd98      0x27c  Code  Lc  sdmmc.o [1]
max_alloc_size          0x83fc9028        0x4  Data  Lc  mem.o [7]
max_cache_cmd_count     0x83fe1908        0x4  Data  Lc  xm_h264_cache_command_queue.o [1]
max_cmd_done_delay      0x83fe1910        0x4  Data  Lc  xm_h264_cache_command_queue.o [1]
max_write_time          0x83fed550        0x4  Data  Lc  xm_h264_cache_file.o [1]
maximum_block_alloc_delay_time
                        0x83fea0f0        0x4  Data  Lc  xm_h264_cache_file.o [1]
maximum_command_insert_delay_time
                        0x83fe190c        0x4  Data  Lc  xm_h264_cache_command_queue.o [1]
mbDataPerFormat         0x801b2d98       0x68  Data  Lc  refbuffer.o [1]
mcb_post_msg            0x83fc79f0        0x8  Data  Lc  xm_win_user.o [1]
mdy_to_julian           0x8015493c      0x124  Code  Gb  calender.o [1]
memStatsPerFormat       0x801b2cfc       0x9c  Data  Lc  refbuffer.o [1]
mem_stp                 0x83feb904       0x14  Data  Lc  pst.o [12]
mem_syn                 0x83feb6f4       0x14  Data  Lc  dec_ld8k.o [13]
mem_zero                0x83feb918       0x14  Data  Lc  pst.o [12]
memchr                  0x801256a4             Code  Gb  memchr.o [11]
memcmp                  0x8010a4e0             Code  Gb  memcmp.o [11]
memcpy                  0x800eca88       0x14  Code  Gb  xmvideoitem.o [1]
memmove                 0x801016a0       0x14  Code  Gb  memmove.o [11]
memset                  0x80103400       0x24  Code  Gb  xmvideoitem.o [1]
menuOptionBtn           0x801cd2b8       0x18  Data  Lc  app_menuoptionview.o [1]
menuOptionComfirmBtn    0x801890d4       0x18  Data  Lc  app_messageview.o [1]
menuOptionReturnBtn     0x801890c8        0xc  Data  Lc  app_messageview.o [1]
menu_cb                 0x801777f8        0x8  Code  Lc  app_systemupdate.o [1]
message_access_sema     0x83feac88       0x14  Data  Lc  message_task.o [1]
message_free            0x83feac68        0x8  Data  Lc  message_task.o [1]
message_live            0x83feac70        0x8  Data  Lc  message_task.o [1]
message_sema            0x83feac78       0x10  Data  Lc  message_task.o [1]
message_unit            0x83fea9e8      0x280  Data  Lc  message_task.o [1]
mic_vol_mapTbl          0x83fc81bc       0xb0  Data  Gb  globaldata.o [1]
min_vol                 0x83fc9040        0x1  Data  Gb  globaldata.o [1]
mjpeg_wFrameSize_height
                        0x83fc66d8       0x20  Data  Gb  descript_def.o [1]
mjpeg_wFrameSize_width  0x83fc66b8       0x20  Data  Gb  descript_def.o [1]
mjpeg_winFrame_BufferSize
                        0x83fc6734       0x3c  Data  Gb  descript_def.o [1]
mjpeg_winFrame_order    0x83fc6788       0x10  Data  Gb  descript_def.o [1]
mktime                  0x8010993d       0xe8  Code  Gb  mktime.o [4]
mmc_bus_width           0x801216d8      0x110  Code  Lc  sdmmc.o [1]
mmc_spec                0x83fc8c60       0x14  Data  Lc  sdmmc.o [1]
mmu_tlb_table           0x83f94000     0x4000  Data  Gb  cortex_a5_mmu.o [1]
modify_lock_unlock_button
                        0x801d19dc       0x54  Code  Lc  app_videoview.o [1]
mons                    0x8014ad30       0x88  Data  Lc  xlocale_c.o [4]
months                  0x801e1e50       0x30  Data  Lc  avidec.o [6]
mos                     0x801255d4       0x18  Data  Lc  xttotm.o [4]
move_step               0x83fe2d24     0x1400  Data  Lc  xm_osd_layer_animate.o [1]
move_step_count         0x83fed554        0x4  Data  Lc  xm_osd_layer_animate.o [1]
mparams                 0x83fed30c       0x18  Data  Lc  dlmalloc.o [4]
mpeg4DiffMvPenalty      0x80190628       0x80  Data  Lc  encasiccontroller.o [1]
mpeg4InterFavor         0x801905a8       0x80  Data  Lc  encasiccontroller.o [1]
msu_r                   0x801816c4       0x18  Code  Gb  basic_op.o [13]
mtx                     0x83fed328       0x14  Data  Lc  xsyslock.o [4]
mult                    0x801812e4       0x24  Code  Gb  basic_op.o [13]
mult_r                  0x801815b4       0x1c  Code  Gb  basic_op.o [13]
nDescLength             0x83fc6676        0x2  Data  Gb  descript_def.o [1]
nMaxSectorSize          0x83fed1dc        0x4  Data  Lc  ssi.o [1]
nMinSectorSize          0x83fed1d8        0x4  Data  Lc  ssi.o [1]
nanosleep               0x800f8b70        0x8  Code  Gb  avio.o [1]
ndigs                   0x801242ec       0x28  Data  Lc  xstoul.o [4]
ndigs                   0x8014b124       0x28  Data  Lc  xstoull.o [4]
nearbyint               0x80118b7d       0x1e  Code  Gb  nearbyint.o [9]
nearbyintf              0x8010f6d1       0x1c  Code  Gb  nearbyintf.o [9]
negate                  0x80181328       0x14  Code  Gb  basic_op.o [13]
new_isp_mode            0x83fc7184        0x4  Data  Gb  Gem_isp.o [1]
new_kmsg                0x801514c0       0x74  Code  Lc  xm_win_user.o [1]
new_pic_quant           0x801be3c4      0x348  Code  Lc  H264RateControl.o [1]
next_ticket_to_verify_file_system
                        0x83fea064        0x4  Data  Lc  xm_h264_cache_file.o [1]
noise0_0                0x8015e220       0x14  Data  Lc  arkn141_cmos_sensor_ar0238.o [1]
noise1_0                0x8015e234       0x14  Data  Lc  arkn141_cmos_sensor_ar0238.o [1]
noise_fg                0x83fec3c4       0xa0  Data  Gb  tab_dtx.o [13]
noise_fg_sum            0x801e387c       0x28  Data  Gb  rom_table.o [13]
norm_l                  0x80181818       0x40  Code  Gb  basic_op.o [13]
norm_s                  0x80181764       0x44  Code  Gb  basic_op.o [13]
notify_system_update_event
                        0x83feca34        0x4  Data  Lc  xm_system_update.o [1]
old_T0                  0x83fc8b8a        0x2  Data  Lc  dec_ld8k.o [13]
old_exc                 0x83feb520      0x1d4  Data  Lc  dec_ld8k.o [13]
open64                  0x8013d6d4       0xa0  Code  Gb  xm_core_file.o [1]
open_map_file           0x801654c4       0x7c  Code  Lc  xm_tester_script.o [1]
open_recycle_task       0x80114548       0x10  Code  Lc  avi_codec_task.o [1]
open_uart               0x8012bd58      0x448  Code  Lc  xm_uart.o [1]
opt_list                0x800fcd41      0x4fc  Code  Lc  opt.o [7]
option                  0x801b9870      0x330  Data  Lc  arkn141_h264_encoder.o [1]
options                 0x801d8b40      0x7e0  Data  Lc  options.o [6]
options                 0x801e1ee0       0x60  Data  Lc  avidec.o [6]
options                 0x801e1640      0x180  Data  Lc  x264_arkn141.o [5]
options                 0x80191dc8     0x3c60  Data  Lc  options.o [5]
options                 0x801e3420       0x30  Data  Lc  avio.o [6]
osd_framebuffer_busy    0x83fed160        0x4  Data  Lc  xm_osd_framebuffer.o [1]
osd_framebuffer_free_link
                        0x83fed164       0x10  Data  Lc  xm_osd_framebuffer.o [1]
osd_framebuffer_live_link
                        0x83fed174       0x10  Data  Lc  xm_osd_framebuffer.o [1]
osd_framebuffer_semaphore
                        0x83fed15c        0x4  Data  Lc  xm_osd_framebuffer.o [1]
osd_layer_setup_position
                        0x8011032c      0x384  Code  Lc  xm_osd_layer.o [1]
osd_layer_setup_position_limit
                        0x801106b0      0x2a4  Code  Lc  xm_osd_layer.o [1]
osd_minimum_moving_h_pixels
                        0x80112878        0x8  Data  Lc  xm_osd_layer.o [1]
osd_minimum_moving_h_pixels_clr
                        0x80112880        0x8  Data  Lc  xm_osd_layer.o [1]
osd_minimum_moving_v_pixels
                        0x80112888        0x8  Data  Lc  xm_osd_layer.o [1]
osd_minimum_moving_v_pixels_clr
                        0x80112890        0x8  Data  Lc  xm_osd_layer.o [1]
osd_rgb_framebuffer     0x83fde440     0x1af4  Data  Lc  xm_osd_framebuffer.o [1]
osd_ui_format           0x83fc9024        0x4  Data  Lc  xm_osd_layer.o [1]
osd_yuv_framebuffer     0x83fd6044     0x23f0  Data  Lc  xm_osd_framebuffer.o [1]
out                     0x80159705       0x14  Code  Lc  xreportassert.o [4]
output_format           0x801df430        0x4  Data  Lc  arkn141_h264_decoder.o [1]
output_picture_endian   0x801df424        0x4  Data  Lc  arkn141_h264_decoder.o [1]
output_picture_endian   0x83fc8ffc        0x4  Data  Lc  arkn141_jpeg_decoder.o [1]
pDesc                   0x83fc6770        0x4  Data  Gb  descript_def.o [1]
pFs_AltSet_addr         0x83fed4bc        0x4  Data  Gb  SensorCommon.o [1]
pFunc_AudioInit         0x83fed518        0x4  Data  Gb  sensorlib.o [1]
pFunc_GpioInitProcess   0x83fed514        0x4  Data  Gb  sensorlib.o [1]
pFunc_SensorSetAttributes
                        0x83fed53c        0x4  Data  Gb  sensorlib.o [1]
pFunc_SensorSetChannelGain
                        0x83fed530        0x4  Data  Gb  sensorlib.o [1]
pFunc_SensorSetDspWin   0x83fed494        0x4  Data  Gb  sensorlib.o [1]
pFunc_SensorSetGain     0x83fed538        0x4  Data  Gb  sensorlib.o [1]
pFunc_SensorSetShutter  0x83fed534        0x4  Data  Gb  sensorlib.o [1]
pFunc_Sensor_Sel_AltSet
                        0x83fed490        0x4  Data  Gb  sensorlib.o [1]
pFunc_UsbSetInterface   0x83fed524        0x4  Data  Gb  sensorlib.o [1]
pFunc_pFunc_AudioCtrl_SetCur
                        0x83fed51c        0x4  Data  Gb  sensorlib.o [1]
pFunc_pFunc_AudioEpCtrl_SetCur
                        0x83fed520        0x4  Data  Gb  sensorlib.o [1]
pFunc_setInterfaceStart
                        0x83fed528        0x4  Data  Gb  sensorlib.o [1]
pFunc_setInterfaceStop  0x83fed52c        0x4  Data  Gb  sensorlib.o [1]
pFunc_usb_endpoints_reset
                        0x83fed540        0x4  Data  Gb  sensorlib.o [1]
pFunc_usb_reset         0x83fed548        0x4  Data  Gb  sensorlib.o [1]
pFunc_usb_resume        0x83fed544        0x4  Data  Gb  sensorlib.o [1]
pFunc_usb_suspend       0x83fed54c        0x4  Data  Gb  sensorlib.o [1]
pHs_AltSet_addr         0x83fed4c0        0x4  Data  Gb  SensorCommon.o [1]
pInLine                 0x83fb6064        0x4  Data  Lc  xm_tester_script.o [1]
pSpiDev                 0x83fed1d4        0x4  Data  Lc  ssi.o [1]
pWcLine                 0x83fb6068        0x4  Data  Lc  xm_tester_script.o [1]
p_ae                    0x83fc7078       0xa4  Data  Gb  Gem_isp.o [1]
p_awb                   0x83fc7604       0x4c  Data  Gb  Gem_isp.o [1]
p_colors                0x83fc7258       0xc4  Data  Gb  Gem_isp.o [1]
p_denoise               0x83fc731c       0x54  Data  Gb  Gem_isp.o [1]
p_enhance               0x83fc6e78       0x14  Data  Gb  Gem_isp.o [1]
p_eris                  0x83fc7370       0xa0  Data  Gb  Gem_isp.o [1]
p_fesp                  0x83fc7410      0x1f4  Data  Gb  Gem_isp.o [1]
p_sen                   0x83fc724c        0xc  Data  Lc  Gem_isp.o [1]
p_sys                   0x83fc7188       0xc4  Data  Gb  Gem_isp.o [1]
p_wdt                   0x83fc9020        0x4  Data  Gb  wdt.o [1]
padbuf.8383             0x801e32dc       0x10  Data  Lc  aviobuf.o [6]
parse_expr              0x80108b01       0xb8  Code  Lc  eval.o [7]
parse_factor            0x80109431      0x190  Code  Lc  eval.o [7]
parse_packet            0x800e7051      0x2fe  Code  Lc  utils.o [6]
parse_primary           0x80108bc1      0x866  Code  Lc  eval.o [7]
parse_subexpr           0x80109691       0xb8  Code  Lc  eval.o [7]
parse_term              0x801095c1       0xc8  Code  Lc  eval.o [7]
past_ftyp               0x83fc8b92        0x2  Data  Lc  dec_ld8k.o [13]
past_qua_en@Dec_gain_0  0x83fc8fe8        0x8  Data  Lc  dec_gain.o [13]
pccamera_init           0x8015a7cc       0xe0  Code  Gb  pc_main.o [1]
pccamera_process        0x8015a8ac       0x58  Code  Gb  pc_main.o [1]
pcm_decode_frame        0x801c88e1      0x92a  Code  Lc  pcm.o [5]
pcm_decode_init         0x801e03e1       0xa4  Code  Lc  pcm.o [5]
pcm_encode_close        0x801e0485        0xe  Code  Lc  pcm.o [5]
pcm_encode_frame        0x801c9211      0x616  Code  Lc  pcm.o [5]
pcm_encode_init         0x801e0495       0x9c  Code  Lc  pcm.o [5]
pix_fmts_8bit           0x801e15d8       0x14  Data  Lc  x264_arkn141.o [5]
pkt_dump_internal       0x800e3d01      0x2c2  Code  Lc  utils.o [6]
play_dma_stop           0x80115d48       0x10  Code  Lc  xm_iisadc.o [1]
png_32bit_exp           0x80128654       0x40  Data  Lc  png.o [8]
png_8bit_l2             0x80128454      0x200  Data  Lc  png.o [8]
png_app_error           0x8014d224       0x14  Code  Gb  pngerror.o [8]
png_build_16bit_table   0x80127d14      0x118  Code  Lc  png.o [8]
png_build_16to8_table   0x80127e2c      0x104  Code  Lc  png.o [8]
png_build_8bit_table    0x80127f30       0x64  Code  Lc  png.o [8]
png_build_gamma_table   0x801280ac      0x1c4  Code  Gb  png.o [8]
png_calculate_crc       0x80127404        0x4  Code  Gb  png.o [8]
png_calloc              0x8014e09c       0x20  Code  Gb  pngmem.o [8]
png_check_IHDR          0x801277a0       0xd8  Code  Gb  png.o [8]
png_check_chunk_name    0x8014c918       0x44  Code  Gb  pngrutil.o [8]
png_chunk_benign_error  0x8014d238       0x14  Code  Gb  pngerror.o [8]
png_chunk_report        0x8014d24c       0x18  Code  Gb  pngerror.o [8]
png_chunk_unknown_handling
                        0x801276c0       0x38  Code  Gb  png.o [8]
png_combine_row         0x8014c95c       0xe0  Code  Gb  pngrutil.o [8]
png_crc_error           0x8014c4ec       0x18  Code  Gb  pngrutil.o [8]
png_crc_finish          0x8014c454       0x98  Code  Gb  pngrutil.o [8]
png_crc_read            0x8014c424       0x30  Code  Gb  pngrutil.o [8]
png_create_info_struct  0x80127570       0x30  Code  Gb  png.o [8]
png_create_png_struct   0x801274ac       0xc4  Code  Gb  png.o [8]
png_create_read_struct  0x801266d0       0x50  Code  Gb  pngread.o [8]
png_destroy_gamma_table
                        0x80127f94      0x118  Code  Gb  png.o [8]
png_destroy_info_struct
                        0x801275a0       0x50  Code  Gb  png.o [8]
png_destroy_png_struct  0x8014e054       0x48  Code  Gb  pngmem.o [8]
png_destroy_read_struct
                        0x80126a68       0xd0  Code  Gb  pngread.o [8]
png_do_bgr              0x80150520       0x80  Code  Gb  pngtrans.o [8]
png_do_compose          0x8014dae4      0x2e4  Code  Gb  pngrtran.o [8]
png_do_encode_alpha     0x8014de9c       0x60  Code  Gb  pngrtran.o [8]
png_do_expand           0x8014defc       0xf0  Code  Gb  pngrtran.o [8]
png_do_gamma            0x8014ddc8       0xd4  Code  Gb  pngrtran.o [8]
png_do_read_filler      0x8014da30       0xb4  Code  Gb  pngrtran.o [8]
png_do_read_swap_alpha  0x8014d9cc       0x64  Code  Gb  pngrtran.o [8]
png_do_read_transformations
                        0x8014d868      0x164  Code  Gb  pngrtran.o [8]
png_err                 0x8014d19c       0x2c  Code  Gb  pngerror.o [8]
png_exp                 0x80127b0c       0xec  Code  Lc  png.o [8]
png_free                0x8014e124       0x2c  Code  Gb  pngmem.o [8]
png_free_data           0x801275f0       0x6c  Code  Gb  png.o [8]
png_free_jmpbuf         0x8014d264       0x6c  Code  Gb  pngerror.o [8]
png_gamma_16bit_correct
                        0x80127ca8       0x6c  Code  Gb  png.o [8]
png_gamma_8bit_correct  0x80127c00       0xa8  Code  Gb  png.o [8]
png_gamma_significant   0x801279ec       0x20  Code  Gb  png.o [8]
png_get_uint_31         0x8014c2f0       0x38  Code  Gb  pngrutil.o [8]
png_handle_IEND         0x8014c898       0x58  Code  Gb  pngrutil.o [8]
png_handle_IHDR         0x8014c5e4      0x15c  Code  Gb  pngrutil.o [8]
png_handle_PLTE         0x8014c740      0x158  Code  Gb  pngrutil.o [8]
png_handle_as_unknown   0x8012765c       0x64  Code  Gb  png.o [8]
png_handle_unknown      0x8014c8f0       0x28  Code  Gb  pngrutil.o [8]
png_image_begin_read_from_memory
                        0x80126c2c      0x158  Code  Gb  pngread.o [8]
png_image_error         0x8012832c       0x38  Code  Gb  png.o [8]
png_image_finish_read   0x80126f20      0x100  Code  Gb  pngread.o [8]
png_image_format        0x80126b38       0x28  Code  Lc  pngread.o [8]
png_image_free          0x801282e0       0x3c  Code  Gb  png.o [8]
png_image_free_function
                        0x80128270       0x70  Code  Lc  png.o [8]
png_image_memory_read   0x80126bb8       0x74  Code  Lc  pngread.o [8]
png_image_read_direct   0x80126d84      0x19c  Code  Lc  pngread.o [8]
png_image_read_header   0x80126b60       0x58  Code  Lc  pngread.o [8]
png_inflate_claim       0x8014c504       0xe0  Code  Lc  pngrutil.o [8]
png_init_read_transformations
                        0x8014d5dc      0x1b0  Code  Gb  pngrtran.o [8]
png_log16bit            0x80127a40       0xc0  Code  Lc  png.o [8]
png_longjmp             0x8014d2d8       0x28  Code  Gb  pngerror.o [8]
png_malloc              0x8014e0dc       0x28  Code  Gb  pngmem.o [8]
png_malloc_base         0x8014e0bc       0x20  Code  Gb  pngmem.o [8]
png_malloc_warn         0x8014e10c       0x18  Code  Gb  pngmem.o [8]
png_muldiv              0x80127878      0x14c  Code  Gb  png.o [8]
png_read_IDAT_data      0x8014ccc4      0x1e8  Code  Gb  pngrutil.o [8]
png_read_chunk_header   0x8014c3ac       0x78  Code  Gb  pngrutil.o [8]
png_read_data           0x8014c2bc       0x14  Code  Gb  pngrio.o [8]
png_read_filter_row     0x8014cc48       0x7c  Code  Gb  pngrutil.o [8]
png_read_filter_row_avg
                        0x8014cab8       0x7c  Code  Lc  pngrutil.o [8]
png_read_filter_row_paeth_1byte_pixel
                        0x8014cb34       0x74  Code  Lc  pngrutil.o [8]
png_read_filter_row_paeth_multibyte_pixel
                        0x8014cba8       0xa0  Code  Lc  pngrutil.o [8]
png_read_filter_row_sub
                        0x8014ca3c       0x4c  Code  Lc  pngrutil.o [8]
png_read_filter_row_up  0x8014ca88       0x30  Code  Lc  pngrutil.o [8]
png_read_finish_IDAT    0x8014ceac       0x74  Code  Gb  pngrutil.o [8]
png_read_finish_row     0x8014cf20       0x28  Code  Gb  pngrutil.o [8]
png_read_info           0x80126720      0x160  Code  Gb  pngread.o [8]
png_read_row            0x801268cc      0x19c  Code  Gb  pngread.o [8]
png_read_sig            0x8014c328       0x84  Code  Gb  pngrutil.o [8]
png_read_start_row      0x8014cf48      0x1b0  Code  Gb  pngrutil.o [8]
png_read_transform_info
                        0x8014d78c       0xdc  Code  Gb  pngrtran.o [8]
png_read_update_info    0x80126880       0x4c  Code  Gb  pngread.o [8]
png_reciprocal          0x801279c4       0x14  Code  Gb  png.o [8]
png_reciprocal2         0x80127a0c       0x34  Code  Gb  png.o [8]
png_reset_crc           0x80127400        0x4  Code  Gb  png.o [8]
png_rtran_ok            0x8014d438       0x5c  Code  Lc  pngrtran.o [8]
png_safe_error          0x8014d310       0x84  Code  Gb  pngerror.o [8]
png_safe_execute        0x8014d394       0x94  Code  Gb  pngerror.o [8]
png_safecat             0x8014d1c8       0x50  Code  Gb  pngerror.o [8]
png_set_IHDR            0x8014ffc4       0xd0  Code  Gb  pngset.o [8]
png_set_PLTE            0x80150094       0xd4  Code  Gb  pngset.o [8]
png_set_add_alpha       0x801504f4       0x24  Code  Gb  pngtrans.o [8]
png_set_alpha_mode_fixed
                        0x8014d4e4       0xb8  Code  Gb  pngrtran.o [8]
png_set_benign_errors   0x8015038c       0x18  Code  Gb  pngset.o [8]
png_set_bgr             0x8015049c       0x10  Code  Gb  pngtrans.o [8]
png_set_error_fn        0x8014d300       0x10  Code  Gb  pngerror.o [8]
png_set_expand          0x8014d5ac        0x4  Code  Gb  pngrtran.o [8]
png_set_filler          0x801504ac       0x48  Code  Gb  pngtrans.o [8]
png_set_keep_unknown_chunks
                        0x80150168      0x220  Code  Gb  pngset.o [8]
png_set_palette_to_rgb  0x8014d5b0             Code  Gb  pngrtran.o [8]
png_set_read_fn         0x8014c2d0       0x20  Code  Gb  pngrio.o [8]
png_sig_cmp             0x8012735c       0x5c  Code  Gb  png.o [8]
png_user_version_check  0x80127408       0xa4  Code  Gb  png.o [8]
png_zalloc              0x801273b8       0x44  Code  Gb  png.o [8]
png_zfree               0x801273fc        0x4  Code  Gb  png.o [8]
png_zstream_error       0x801276f8       0xa8  Code  Gb  png.o [8]
pool_release_buffer     0x801018a1       0xa6  Code  Lc  buffer.o [7]
pow                     0x80125021        0xe  Code  Gb  pow.o [9]
powerkey_delay_time     0x83fc8bb4        0x2  Data  Lc  xm_power.o [1]
powerkey_first          0x83fc8bbc        0x4  Data  Lc  xm_power.o [1]
powerkey_intr           0x801195a4        0x8  Code  Lc  xm_power.o [1]
powerkey_process        0x801195d0       0xf0  Code  Lc  xm_power.o [1]
powerkey_state          0x83fc8bb8        0x4  Data  Lc  xm_power.o [1]
pows                    0x8014a540       0x48  Data  Lc  xdtento.o [9]
pred                    0x83fc8fd8        0x8  Data  Gb  tab_ld8k.o [13]
prep_packet_discard_count
                        0x83febbe0        0x4  Data  Lc  sensor_task.o [1]
prepend_alloc           0x80148c99      0x2e8  Code  Lc  dlmalloc.o [4]
prev.4440               0x83fea5a8      0x400  Data  Lc  log.o [7]
prev_lsp                0x83fecaf0       0x14  Data  Lc  lspdec.o [13]
prev_ma                 0x83fc9036        0x2  Data  Lc  lspdec.o [13]
print_fps               0x800e27a1       0xc8  Code  Lc  utils.o [6]
print_prefix.4438       0x83fc8e74        0x4  Data  Lc  log.o [7]
printf                  0x8010f5f5       0x24  Code  Gb  printf.o [4]
prm2bits_ld8k           0x80174448      0x14c  Code  Gb  bits.o [13]
probe_codec             0x800e5961      0x264  Code  Lc  utils.o [6]
process_2_column_asm    0x80139ed8       0xe8  Code  Lc  arkn141_scale.o [1]
process_cbcr            0x80139fc0       0x70  Code  Lc  arkn141_scale.o [1]
process_task_exit       0x801ce700       0x38  Code  Lc  app_processview.o [1]
process_task_init       0x801ce63c       0xc0  Code  Lc  app_processview.o [1]
profiles                0x801e1f6c       0x70  Data  Lc  h264_arkn141.o [5]
pst_ltp                 0x80172ed8      0x46c  Code  Lc  pst.o [12]
ptr_mem_stp             0x83fc8f8c        0x4  Data  Gb  pst.o [12]
pullWnd                 0x83fc774c        0x4  Data  Lc  xm_win_user.o [1]
pushWnd                 0x83fc7748        0x4  Data  Lc  xm_win_user.o [1]
putchar                 0x8016637d       0x26  Code  Gb  putchar.o [4]
puts                    0x80110149       0x30  Code  Gb  puts.o [4]
q_step                  0x801bec9c       0xd4  Data  Lc  H264RateControl.o [1]
qpReorderTable          0x80190778      0x100  Data  Lc  encasiccontroller.o [1]
queue_delete            0x80138668       0x30  Code  Gb  queue.o [1]
queue_delete_next       0x801386a0       0x24  Code  Gb  queue.o [1]
queue_empty             0x801386d4       0x1c  Code  Gb  queue.o [1]
queue_head              0x80138698        0x8  Code  Gb  queue.o [1]
queue_initialize        0x80138640        0xc  Code  Gb  queue.o [1]
queue_insert            0x8013864c       0x1c  Code  Gb  queue.o [1]
queue_next              0x801386c4        0x8  Code  Gb  queue.o [1]
queue_prev              0x801386cc        0x8  Code  Gb  queue.o [1]
rand                    0x8010f635       0x98  Code  Gb  rand.o [4]
raw_decode              0x80105b91      0x638  Code  Lc  rawdec.o [5]
rbtBegin                0x801574e8       0x34  Code  Gb  common_rbtr.o [1]
rbtDelete               0x80156e90       0x1c  Code  Gb  common_rbtr.o [1]
rbtEnd                  0x8015751c        0x8  Code  Gb  common_rbtr.o [1]
rbtErase                0x801573c4       0xc4  Code  Gb  common_rbtr.o [1]
rbtFind                 0x80157538       0x58  Code  Gb  common_rbtr.o [1]
rbtInsert               0x8015710c       0xdc  Code  Gb  common_rbtr.o [1]
rbtKeyValue             0x80157524       0x14  Code  Gb  common_rbtr.o [1]
rbtNew                  0x80156e08       0x4c  Code  Gb  common_rbtr.o [1]
rbtNext                 0x80157488       0x60  Code  Gb  common_rbtr.o [1]
rbt_free                0x83fed4a0        0x8  Data  Lc  xmvideoitem.o [1]
rbt_pool                0x83f30000    0x22000  Data  Lc  xmvideoitem.o [1]
read                    0x8013d840       0x24  Code  Gb  xm_core_file.o [1]
readStillWinIndex       0x80166630       0x34  Code  Gb  globalfunc.o [1]
readVideoWinIndex       0x801665e4       0x4c  Code  Gb  globalfunc.o [1]
read_apic               0x80102681      0x1b0  Code  Lc  id3v2.o [6]
read_braindead_odml_indx
                        0x8019ac01      0x364  Code  Lc  avidec.o [6]
read_chapter            0x80102561       0xfc  Code  Lc  id3v2.o [6]
read_frame_internal     0x800e7351      0x724  Code  Lc  utils.o [6]
read_geobtag            0x80102831      0x16a  Code  Lc  id3v2.o [6]
readl                   0x80160550        0x8  Code  Gb  hx280enc.o [1]
ready_framebuffer       0x83fc7f5c        0x8  Data  Lc  xm_video_task.o [1]
rec_count               0x83fecbec        0x4  Data  Lc  xm_iisadc.o [1]
record_delay_time       0x8012fa14       0x14  Data  Lc  app_menudata.o [1]
recycleViewBtn          0x801d5f84       0x24  Data  Lc  app_recycleview.o [1]
recycle_enum_item       0x80157bac      0x10c  Code  Lc  xm_recycle.o [1]
recycle_item_count      0x83fed498        0x4  Data  Lc  xm_recycle.o [1]
recycle_item_pool       0x83fed49c        0x4  Data  Lc  xm_recycle.o [1]
recycle_task_stop       0x83fed4e0        0x4  Data  Lc  avi_codec_task.o [1]
refBase                 0x801abd44       0x40  Data  Gb  h264hwd_asic.o [1]
refPicList0             0x801abdc4       0x40  Data  Gb  h264hwd_asic.o [1]
refPicList1             0x801abe04       0x40  Data  Gb  h264hwd_asic.o [1]
refPicListP             0x801abe44       0x40  Data  Gb  h264hwd_asic.o [1]
refPicNum               0x801abd84       0x40  Data  Gb  h264hwd_asic.o [1]
ref_zero.6951           0x801d2f4c       0x20  Data  Lc  h264dec.o [6]
regMask                 0x8016bf60       0x84  Data  Lc  regdrv.o [1]
reg_brightness_w        0x8015a730        0xc  Code  Gb  pc_main.o [1]
reg_contrast_r          0x8015a70c        0xc  Code  Gb  pc_main.o [1]
reg_contrast_w          0x8015a73c        0xc  Code  Gb  pc_main.o [1]
reg_hue_r               0x8015a718        0xc  Code  Gb  pc_main.o [1]
reg_hue_w               0x8015a748        0xc  Code  Gb  pc_main.o [1]
reg_jpegWinIdx          0x83fed400        0x4  Data  Lc  UvcVideo.o [1]
reg_osd_u_addr          0x83fed1b8        0xc  Data  Lc  hw_osd_layer_iar.o [1]
reg_osd_v_addr          0x83fed1c4        0xc  Data  Lc  hw_osd_layer_iar.o [1]
reg_osd_y_addr          0x83fed1ac        0xc  Data  Lc  hw_osd_layer_iar.o [1]
reg_saturation_r        0x8015a724        0xc  Code  Gb  pc_main.o [1]
reg_saturation_w        0x8015a754        0xc  Code  Gb  pc_main.o [1]
reget_buffer_internal   0x800f6171      0x154  Code  Lc  utils.o [5]
register_channel_IRQHandler
                        0x8012aa7c      0x12c  Code  Gb  dma.o [1]
remove_video_files      0x801310cc      0x148  Code  Lc  xmvideoitem.o [1]
reply_response_message  0x80112e40       0x24  Code  Lc  avi_codec_task.o [1]
request_irq             0x80112b90       0x28  Code  Gb  rtosinit.o [1]
res2                    0x83feb92c      0x180  Data  Lc  pst.o [12]
res2_ptr                0x83fc8f88        0x4  Data  Gb  pst.o [12]
resp_code               0x83fc8cd8        0xc  Data  Lc  xm_uvc_socket.o [1]
restore_setting_view_system_event_handler
                        0x801cd704        0x4  Code  Lc  app_systemsettingview.o [1]
riff_tags               0x801cffe8       0x87  Data  Lc  riff.o [6]
rom_buffer              0x83fed468        0x4  Data  Lc  app_task.o [1]
rom_length              0x83fed46c        0x4  Data  Lc  app_task.o [1]
romimage_count          0x83fea58c        0x4  Data  Lc  xm_gdi_rom_image.o [1]
romimage_fifo           0x83fea18c      0x400  Data  Lc  xm_gdi_rom_image.o [1]
romimage_free           0x83fea598        0x8  Data  Lc  xm_gdi_rom_image.o [1]
romimage_head           0x83fea590        0x8  Data  Lc  xm_gdi_rom_image.o [1]
rotateLeft              0x80156eac       0x7c  Code  Lc  common_rbtr.o [1]
rotateRight             0x80156f28       0x7c  Code  Lc  common_rbtr.o [1]
rotate_degree90         0x8013a030      0x120  Code  Gb  arkn141_scale.o [1]
round                   0x80181378       0x14  Code  Gb  basic_op.o [13]
rtc_bad                 0x83fed3d8        0x4  Data  Lc  rtc.o [1]
rtc_get_time            0x80129ff8      0x184  Code  Gb  rtc.o [1]
rtc_hour                0x83fed3e0        0x1  Data  Lc  rtc.o [1]
rtc_init                0x80129dd8       0x40  Code  Gb  rtc.o [1]
rtc_julian              0x83fed3dc        0x4  Data  Lc  rtc.o [1]
rtc_millisecond         0x83fed3d4        0x2  Data  Lc  rtc.o [1]
rtc_minute              0x83fed3e1        0x1  Data  Lc  rtc.o [1]
rtc_reset               0x8012a288       0x10  Code  Gb  rtc.o [1]
rtc_second              0x83fed3e2        0x1  Data  Lc  rtc.o [1]
rtc_set_time            0x80129e18      0x15c  Code  Gb  rtc.o [1]
runBefore_1             0x801b6ac4        0x2  Data  Lc  h264hwd_cavlc.o [1]
runBefore_2             0x801b6ac0        0x4  Data  Lc  h264hwd_cavlc.o [1]
runBefore_3             0x801b6abc        0x4  Data  Lc  h264hwd_cavlc.o [1]
runBefore_4             0x801b6ab4        0x8  Data  Lc  h264hwd_cavlc.o [1]
runBefore_5             0x801b6aac        0x8  Data  Lc  h264hwd_cavlc.o [1]
runBefore_6             0x801b6aa4        0x8  Data  Lc  h264hwd_cavlc.o [1]
s32_white_black_datetime_char_length
                        0x8013b980       0x30  Data  Lc  xm_icon_manage.o [1]
s32_white_black_datetime_char_offset
                        0x8013b950       0x30  Data  Lc  xm_icon_manage.o [1]
safe_send_system_event  0x80131aac       0x50  Code  Lc  xmvideoitem.o [1]
sample_fmt_info         0x801e2a08       0xc8  Data  Lc  samplefmt.o [7]
satuation_match         0x8015dce4      0x10c  Code  Lc  arkn141_cmos_sensor_ar0238.o [1]
satuation_polyline_tbl  0x8015e7a8       0x20  Data  Lc  arkn141_cmos_sensor_ar0238.o [1]
sature                  0x801811d4       0x30  Code  Gb  basic_op.o [13]
save_photo              0x80148640      0x144  Code  Lc  onekeyphotograph_task.o [1]
scalar_anti_aliasing_enhance_1st_rotate_buffer
                        0x83fec5c8        0x4  Data  Lc  arkn141_scale.o [1]
scalar_anti_aliasing_enhance_1st_rotate_bus_address
                        0x83fec5d4        0x4  Data  Lc  arkn141_scale.o [1]
scalar_anti_aliasing_enhance_1st_scalar_buffer
                        0x83fec5c4        0x4  Data  Lc  arkn141_scale.o [1]
scalar_anti_aliasing_enhance_1st_scalar_bus_address
                        0x83fec5d0        0x4  Data  Lc  arkn141_scale.o [1]
scalar_anti_aliasing_enhance_2nd_scalar_buffer
                        0x83fec5cc        0x4  Data  Lc  arkn141_scale.o [1]
scalar_anti_aliasing_enhance_2nd_scalar_bus_address
                        0x83fec5d8        0x4  Data  Lc  arkn141_scale.o [1]
scalar_anti_aliasing_enhance_image_height
                        0x83fec5c0        0x4  Data  Lc  arkn141_scale.o [1]
scalar_anti_aliasing_enhance_image_width
                        0x83fec5bc        0x4  Data  Lc  arkn141_scale.o [1]
scalar_frame_free_user_callback
                        0x8011666c       0x30  Code  Lc  xm_video_task.o [1]
scalar_frame_ready_user_callback
                        0x801165f0       0x7c  Code  Lc  xm_video_task.o [1]
scale_arkn141_open      0x801399b0       0x44  Code  Gb  arkn141_scale.o [1]
scale_arkn141_set_source_addr
                        0x80139abc       0x90  Code  Gb  arkn141_scale.o [1]
scale_arkn141_set_writeback_addr
                        0x80139970       0x10  Code  Gb  arkn141_scale.o [1]
scale_arkn141_writeback_start
                        0x80139980       0x30  Code  Gb  arkn141_scale.o [1]
scale_inited            0x83fed4d8        0x4  Data  Lc  arkn141_scale.o [1]
scale_interrupt_status  0x83fec590        0x4  Data  Lc  arkn141_scale.o [1]
scale_middle_finish_callback
                        0x83fec594        0x4  Data  Lc  arkn141_scale.o [1]
scale_middle_finish_private
                        0x83fec598        0x4  Data  Lc  arkn141_scale.o [1]
scriptFile              0x83fb608c       0x80  Data  Lc  xm_tester_script.o [1]
script_gets             0x80165b24       0x6c  Code  Gb  xm_tester_script.o [1]
script_gets_key         0x80165ab8       0x6c  Code  Gb  xm_tester_script.o [1]
sd1_pad_group           0x83fed510        0x4  Data  Lc  sdmmc.o [1]
sd_bus_width            0x80120820      0x128  Code  Lc  sdmmc.o [1]
sd_command_done         0x8011f9c8       0xe0  Code  Lc  sdmmc.o [1]
sd_command_done_no_clear_RINTSYS
                        0x8011faa8       0xd0  Code  Lc  sdmmc.o [1]
sd_mmc_card_identify    0x801217ec      0x3d4  Code  Gb  sdmmc.o [1]
sd_mmc_read_dma         0x8012102c      0x1f8  Code  Gb  sdmmc.o [1]
sd_mmc_write_dma        0x80121228      0x2e4  Code  Lc  sdmmc.o [1]
sd_read_dma_new         0x80120ad8      0x2bc  Code  Lc  sdmmc.o [1]
sd_read_multi_buffer_through_dma
                        0x801227d0      0x234  Code  Lc  sdmmc.o [1]
sd_spec                 0x83fc8c54        0xc  Data  Lc  sdmmc.o [1]
sd_write_dma_new        0x80120d98      0x28c  Code  Lc  sdmmc.o [1]
sd_write_multi_buffer_through_dma
                        0x801222c0      0x258  Code  Lc  sdmmc.o [1]
sdcard_0_reinit         0x80122ca8      0x10c  Code  Lc  sdmmc.o [1]
sdmmc_busy_ticket_event
                        0x83fc8488        0x8  Data  Lc  sdmmc.o [1]
sdmmc_chip0             0x83fc843c        0x4  Data  Gb  sdmmc.o [1]
sdmmc_dma_channel       0x83fc844c        0x4  Data  Lc  sdmmc.o [1]
sdmmc_dma_lli           0x83fc8448        0x4  Data  Lc  sdmmc.o [1]
sdmmc_dma_lli_base      0x83fc8444        0x4  Data  Lc  sdmmc.o [1]
sdmmc_dma_transfer_over_IRQHandler_lli
                        0x80120a94       0x44  Code  Lc  sdmmc.o [1]
sdmmc_event             0x83fc8480        0x8  Data  Lc  sdmmc.o [1]
sdmmc_info_chip0        0x83fecda0       0x40  Data  Gb  sdmmc.o [1]
sdmmc_message_handler   0x80147244      0x1e8  Code  Lc  message_task.o [1]
sdmmc_reg_info_chip0    0x83fc8458       0x28  Data  Gb  sdmmc.o [1]
search_del              0x80173344      0x560  Code  Lc  pst.o [12]
seed                    0x83fc8b94        0x2  Data  Lc  dec_ld8k.o [13]
seed_fer                0x83fc8b90        0x2  Data  Lc  dec_ld8k.o [13]
select_i2c_pad          0x8012ce48       0x30  Code  Lc  xm_i2c.o [1]
select_sd               0x801206cc       0x78  Code  Lc  sdmmc.o [1]
select_sd_pad           0x8011f478      0x16c  Code  Lc  sdmmc.o [1]
send_finish_command     0x8011f954       0x74  Code  Lc  sdmmc.o [1]
sensor_device           0x83fed4cc        0x4  Data  Lc  arkn141_cmos_sensor_ar0238_io.o [1]
sensor_lib_init         0x80166814       0x28  Code  Gb  sensorlib.o [1]
sensor_mailbox          0x83febc58       0x1c  Data  Lc  sensor_task.o [1]
sensor_mailbuf          0x83febbf4        0x1  Data  Lc  sensor_task.o [1]
setInterfaceStart       0x80166dcc       0x10  Code  Gb  SensorCommon.o [1]
setInterfaceStop        0x80166ddc       0x44  Code  Gb  SensorCommon.o [1]
set_RCA                 0x801215ec       0xcc  Code  Lc  sdmmc.o [1]
set_blocklen            0x80120744       0xdc  Code  Lc  sdmmc.o [1]
set_debounce_time       0x8011a748       0x44  Code  Lc  xm_adc.o [1]
set_dsp_default         0x8016683c       0x30  Code  Gb  SensorCommon.o [1]
set_focus_item          0x801d247c       0xf4  Code  Lc  app_videolistview.o [1]
set_frame_ready         0x801175b8       0x1c  Code  Lc  sensor_task.o [1]
set_pst_table           0x80172618        0x4  Code  Gb  pst.o [12]
set_string_number       0x800fba51      0x4a0  Code  Lc  opt.o [7]
set_transform_interval  0x8011a78c       0x3c  Code  Lc  xm_adc.o [1]
set_volume              0x80115b90       0x38  Code  Lc  xm_iisadc.o [1]
setjmp                  0x80150f48             Code  Gb  setjmp.o [11]
settingBtn              0x801cc2c8       0x24  Data  Lc  app_settingview.o [1]
setting_switch_callback
                        0x801cb5d4       0x14  Code  Lc  app_settingview.o [1]
sh_sid_sav              0x83fc8b98        0x2  Data  Lc  dec_ld8k.o [13]
sharp                   0x83fc8b88        0x2  Data  Lc  dec_ld8k.o [13]
shl                     0x80181290       0x54  Code  Gb  basic_op.o [13]
show_local_time         0x8013af18      0x12c  Code  Lc  xm_icon_manage.o [1]
show_time               0x8013ae2c       0xec  Code  Lc  xm_icon_manage.o [1]
shr                     0x80181260       0x30  Code  Gb  basic_op.o [13]
shr_r                   0x80181668       0x44  Code  Gb  basic_op.o [13]
shutdown_type           0x83fec6b0        0x4  Data  Lc  xm_file_manager_task.o [1]
si_prefixes             0x801e2e50       0x36  Data  Lc  eval.o [7]
sid_gain                0x83fc8d4a        0x2  Data  Lc  dec_sid.o [13]
sid_lsfq_decode         0x801740dc      0x18c  Code  Gb  dec_sid.o [13]
sid_sav                 0x83fc8b96        0x2  Data  Lc  dec_ld8k.o [13]
sin                     0x801e3aa9        0xa  Code  Gb  sin.o [9]
sinh                    0x801e3a89       0x10  Code  Gb  sinh.o [9]
skip_frames_to_on_lcd   0x83fc7f1c        0x4  Data  Lc  xm_video_task.o [1]
slope                   0x801e3092       0x80  Data  Gb  rom_table.o [13]
slope_acos              0x801e3212       0x80  Data  Gb  rom_table.o [13]
slope_cos               0x801e3192       0x80  Data  Gb  rom_table.o [13]
snprintf                0x800f8ccd       0x48  Code  Gb  snprintf.o [4]
speech_decode           0x80161f14      0x118  Code  Gb  g729_dec.o [13]
speech_id               0x83fc25e4        0x4  Data  Lc  app_voice.o [1]
speech_init             0x80161e78       0x60  Code  Gb  g729_dec.o [13]
sprintf                 0x80117189       0x38  Code  Gb  sprintf.o [4]
sqrt                    0x8012492c             Code  Gb  sqrt.o [9]
sqrtl                   0x8012492c             Code  Gb  sqrt.o [9]
sscanf                  0x80177a41       0x24  Code  Gb  sscanf.o [4]
start_move_animate      0x80162f4c      0x110  Code  Lc  xm_osd_layer_animate.o [1]
start_timer             0x801ce498       0x48  Code  Lc  app_processview.o [1]
startup_ticket          0x83fed4c8        0x4  Data  Lc  app_init.o [1]
stderr                  0x83fed4e4        0x4  Data  Gb  avio.o [1]
stop_timer              0x801ce470       0x28  Code  Lc  app_processview.o [1]
strcat                  0x801578d5       0x20  Code  Gb  strcat.o [4]
strchr                  0x800efe30             Code  Gb  strchr.o [11]
strcmp                  0x800eca14             Code  Gb  strcmp.o [11]
strcpy                  0x801077c8             Code  Gb  strcpy.o [11]
strcspn                 0x800f9401       0x24  Code  Gb  strcspn.o [4]
strftime                0x80125687       0x1e  Code  Gb  strftime.o [4]
strlen                  0x800ec9c0             Code  Gb  strlen.o [11]
strmatch                0x80107a81       0x74  Code  Lc  eval.o [7]
strncmp                 0x801079b1       0x30  Code  Gb  strncmp.o [4]
strncpy                 0x801809a4             Code  Gb  strncpy.o [11]
strrchr                 0x800f04e4        0x4  Code  Gb  xmvideoitem.o [1]
strspn                  0x800ebe71       0x24  Code  Gb  strspn.o [4]
strstr                  0x800f04d8        0x4  Code  Gb  xmvideoitem.o [1]
strtod                  0x80107a31        0xa  Code  Gb  strtod.o [9]
strtol                  0x800ed1b1        0xa  Code  Gb  strtol.o [4]
strtoll                 0x801258c9        0x8  Code  Gb  strtoll.o [4]
strtoul                 0x801079e1        0x8  Code  Gb  strtoul.o [4]
sub                     0x80181224       0x20  Code  Gb  basic_op.o [13]
subtitle_rect_options   0x80191a68      0x180  Data  Lc  options.o [5]
sync_channel_name       0x8013502c        0x8  Data  Lc  xmvideoitem.o [1]
synth_buf               0x83fec1b4       0xb4  Data  Gb  g729_dec.o [13]
sysColor                0x83fecb64       0x58  Data  Lc  xm_win_gdi.o [1]
sys_alloc               0x80149185      0x14e  Code  Lc  dlmalloc.o [4]
sys_clk_disable         0x80142b44      0x4fc  Code  Gb  CpuClkCounter.o [1]
sys_clk_enable          0x80142634      0x4f8  Code  Gb  CpuClkCounter.o [1]
sys_soft_reset          0x80142378      0x2bc  Code  Gb  CpuClkCounter.o [1]
syslock_o               0x83fed324        0x4  Data  Lc  xsyslock.o [4]
systemSettingBtn_1      0x801cdac0       0x24  Data  Lc  app_systemsettingview.o [1]
systemVersionBtn        0x801dd91c       0x18  Data  Lc  app_systemversionview.o [1]
system_update           0x80135b28      0x4c4  Code  Lc  xm_system_update.o [1]
system_update_check     0x80135704      0x294  Code  Lc  xm_system_update.o [1]
system_update_view_system_event_handler
                        0x801776fc       0xfc  Code  Lc  app_systemupdate.o [1]
systemupdate_sema       0x83feca3c       0x14  Data  Lc  xm_system_update.o [1]
systemupdate_state      0x83feca39        0x1  Data  Lc  xm_system_update.o [1]
systemupdate_step       0x83feca38        0x1  Data  Lc  xm_system_update.o [1]
systemupdate_version    0x83feca30        0x4  Data  Lc  xm_system_update.o [1]
szMapData               0x83fb62b0     0x8000  Data  Lc  xm_tester_script.o [1]
t18xx_wdt_settimeout    0x8011943c       0xb8  Code  Lc  wdt.o [1]
tab_Sidgain             0x801e36b8       0x40  Data  Gb  rom_table.o [13]
tab_hup_l               0x801e2694       0xe0  Data  Gb  rom_table.o [13]
tab_hup_s               0x801e3738       0x38  Data  Gb  rom_table.o [13]
tab_zone                0x801e2d98       0x99  Data  Gb  rom_table.o [13]
table                   0x801e3010       0x82  Data  Gb  rom_table.o [13]
table2                  0x801e3112       0x80  Data  Gb  rom_table.o [13]
tablog                  0x801385fe       0x42  Data  Gb  rom_table.o [13]
tabpow                  0x80118b9a       0x42  Data  Gb  rom_table.o [13]
tabsqr                  0x80107922       0x62  Data  Gb  rom_table.o [13]
tail_id                 0x80141820        0x8  Data  Lc  CdrRequest.o [1]
tan                     0x801e17c1      0x1cc  Code  Gb  tan.o [9]
tanh                    0x801df435      0x298  Code  Gb  tanh.o [9]
testBtnKey              0x8019140c       0x3c  Code  Lc  app_button.o [1]
test_err                0x80190d18       0x8c  Code  Gb  taming.o [13]
testerLive              0x83fec61c        0x4  Data  Lc  xm_tester.o [1]
testerMode              0x83fec618        0x4  Data  Lc  xm_tester.o [1]
ticket_to_card_verify_warning
                        0x83fed4e8        0x4  Data  Lc  desktop.o [1]
time                    0x80109921        0xe  Code  Gb  time.o [4]
time_command            0x8014bc48       0x6c  Code  Lc  hongjing_uart_socket.o [1]
time_init               0x83fc8e48       0x10  Data  Lc  rtc.o [1]
timer_100hz             0x83fc8bc0       0x1c  Data  Gb  xm_power.o [1]
timer_100hz_callback    0x801196fc       0x14  Code  Lc  xm_power.o [1]
timer_12345_intr_hander
                        0x801295f8       0xf8  Code  Gb  timer.o [1]
timer_event_intr_handler
                        0x80120948        0x4  Code  Lc  sdmmc.o [1]
timer_init              0x80129488       0x60  Code  Gb  timer.o [1]
timer_user_private_data
                        0x83fed03c       0x18  Data  Lc  timer.o [1]
timer_user_tick_callback
                        0x83fed024       0x18  Data  Lc  timer.o [1]
timer_x_start           0x801296f0      0x2a4  Code  Gb  timer.o [1]
timer_x_stop            0x80129994      0x11c  Code  Gb  timer.o [1]
tmalloc_large           0x801492dd      0x39a  Code  Lc  dlmalloc.o [4]
tmalloc_small           0x8014967d      0x1e2  Code  Lc  dlmalloc.o [4]
to_delete_channel       0x83fec6b4        0x1  Data  Lc  xm_file_manager_task.o [1]
to_delete_file_name     0x83fec724        0x8  Data  Lc  xm_file_manager_task.o [1]
to_delete_type          0x83fec6b5        0x1  Data  Lc  xm_file_manager_task.o [1]
totalZeros_10           0x801b6a58       0x20  Data  Lc  h264hwd_cavlc.o [1]
totalZeros_11           0x801b6a78       0x10  Data  Lc  h264hwd_cavlc.o [1]
totalZeros_12           0x801b6a88       0x10  Data  Lc  h264hwd_cavlc.o [1]
totalZeros_13           0x801b6a98        0x8  Data  Lc  h264hwd_cavlc.o [1]
totalZeros_14           0x801b6aa0        0x4  Data  Lc  h264hwd_cavlc.o [1]
totalZeros_1_0          0x801b6858       0x20  Data  Lc  h264hwd_cavlc.o [1]
totalZeros_1_1          0x801b6878       0x20  Data  Lc  h264hwd_cavlc.o [1]
totalZeros_2            0x801b6898       0x40  Data  Lc  h264hwd_cavlc.o [1]
totalZeros_3            0x801b68d8       0x40  Data  Lc  h264hwd_cavlc.o [1]
totalZeros_4            0x801b6918       0x20  Data  Lc  h264hwd_cavlc.o [1]
totalZeros_5            0x801b6938       0x20  Data  Lc  h264hwd_cavlc.o [1]
totalZeros_6            0x801b6958       0x40  Data  Lc  h264hwd_cavlc.o [1]
totalZeros_7            0x801b6998       0x40  Data  Lc  h264hwd_cavlc.o [1]
totalZeros_8            0x801b69d8       0x40  Data  Lc  h264hwd_cavlc.o [1]
totalZeros_9            0x801b6a18       0x40  Data  Lc  h264hwd_cavlc.o [1]
toupper                 0x8015e8ac        0x4  Code  Gb  FAT_VolumeLabel.o [1]
tp_command              0x8014baa8       0x64  Code  Lc  hongjing_uart_socket.o [1]
translate_gamma_flags   0x8014d494       0x50  Code  Lc  pngrtran.o [8]
trunc                   0x8012480f       0x12  Code  Gb  trunc.o [9]
try_decode_frame        0x800e8451      0x36e  Code  Lc  utils.o [6]
tv_ntsc_osd_init        0x801418c0      0x130  Code  Lc  tv_ntsc.o [1]
tv_ntsc_screen_init     0x80141ab8       0x88  Code  Lc  tv_ntsc.o [1]
tv_pal_osd_init         0x8014316c      0x134  Code  Lc  tv_pal.o [1]
tv_pal_screen_init      0x80143368       0x88  Code  Lc  tv_pal.o [1]
tvencoder_init_pal      0x801432a0       0xc8  Code  Lc  tv_pal.o [1]
tvencoder_ntsc_init     0x801419f0       0xc8  Code  Lc  tv_ntsc.o [1]
txt.4128                0x801e1dec       0x1c  Data  Lc  bprint.o [7]
txtColor                0x83fecbbc        0x4  Data  Gb  xm_win_gdi.o [1]
tzone                   0x8014adb8        0x1  Data  Lc  xlocale_c.o [4]
uart0_init              0x80128be8       0xa4  Code  Gb  uart.o [1]
uart0_isr               0x8012bcd4       0x28  Code  Lc  xm_uart.o [1]
uart0_send_char         0x80128c8c       0x34  Code  Gb  uart.o [1]
uart123_isr             0x8012bcfc       0x5c  Code  Lc  xm_uart.o [1]
uartInit                0x83fed3f2        0x1  Data  Lc  xm_uart_drv.o [1]
uart_access_sema        0x83fec054       0xa0  Data  Lc  xm_uart.o [1]
uart_base               0x8012cdfc       0x20  Data  Lc  xm_uart.o [1]
uart_ch_buff            0x83fed3f0        0x2  Data  Lc  xm_uart_drv.o [1]
uart_ch_size            0x83fed3e4        0x4  Data  Lc  xm_uart_drv.o [1]
uart_device             0x83fec030       0x20  Data  Lc  xm_uart.o [1]
uart_dma_transfer_over_IRQHandler
                        0x8012c4c0       0x4c  Code  Lc  xm_uart.o [1]
uart_inited             0x83fec050        0x1  Data  Lc  xm_uart.o [1]
uart_isr                0x8012bc80       0x54  Code  Lc  xm_uart.o [1]
uart_last_key           0x83fed3e8        0x4  Data  Lc  xm_uart_drv.o [1]
uart_recv               0x83fed3ec        0x4  Data  Lc  xm_uart_drv.o [1]
uart_rx                 0x8012bb78      0x108  Code  Lc  xm_uart.o [1]
ulChip                  0x83fed1d0        0x4  Data  Lc  ssi.o [1]
ulaw2linear             0x801e0331       0x22  Code  Lc  pcm.o [5]
unselect_i2c_pad        0x8012ce78       0x1c  Code  Lc  xm_i2c.o [1]
update_audio_cur_attribute
                        0x801666e8       0x64  Code  Gb  globalfunc.o [1]
update_exc_err          0x80190da4      0x158  Code  Gb  taming.o [13]
update_frame_pool       0x800f73b1      0x4d0  Code  Lc  utils.o [5]
update_initial_timestamps
                        0x800e46b1      0x64a  Code  Lc  utils.o [6]
update_model            0x801c03ac      0x1a8  Code  Lc  H264Mad.o [1]
update_model            0x801be854      0x1ec  Code  Lc  H264RateControl.o [1]
update_rc_error         0x801be1b0       0x94  Code  Lc  H264RateControl.o [1]
update_stream_timings   0x800e41e1      0x45c  Code  Lc  utils.o [6]
update_tables           0x801c0274       0x5c  Code  Lc  H264Mad.o [1]
update_tables           0x801be7e0       0x74  Code  Lc  H264RateControl.o [1]
update_video_cur_attribute
                        0x80166664       0x84  Code  Gb  globalfunc.o [1]
updatewindow            0x8014e394      0x120  Code  Lc  inflate.o [14]
url_alloc_for_protocol  0x801051a1      0x1ea  Code  Lc  avio.o [6]
url_feof                0x800ff0e1       0x1c  Code  Gb  aviobuf.o [6]
urlcontext_child_class_next
                        0x80104e91       0x5e  Code  Lc  avio.o [6]
urlcontext_child_next   0x80104e71       0x18  Code  Lc  avio.o [6]
urlcontext_to_name      0x80104e51       0x1a  Code  Lc  avio.o [6]
usb_di_count            0x83fed50c        0x4  Data  Lc  pc_main.o [1]
usb_dma_interrupt       0x8015ae44        0x4  Code  Gb  interrupt.o [1]
usb_endpoints_reset     0x8015a950      0x144  Code  Gb  interrupt.o [1]
usb_ep0_isr             0x8015abd4      0x15c  Code  Gb  interrupt.o [1]
usb_ep0_transfer        0x80167ca8       0xb8  Code  Gb  UsbRequest.o [1]
usb_fetch_out           0x80166fb8       0x84  Code  Gb  UsbRequest.o [1]
usb_init_descriptor     0x80166e74       0xf8  Code  Gb  UsbRequest.o [1]
usb_interrupt_rom       0x8015ad30       0xe4  Code  Gb  interrupt.o [1]
usb_proc_cmd            0x80167bb8       0xe8  Code  Gb  UsbRequest.o [1]
usb_read_cmd            0x8015ab58       0x7c  Code  Gb  interrupt.o [1]
usb_request             0x80167b54       0x60  Code  Gb  UsbRequest.o [1]
usb_reset               0x8015aa94       0x84  Code  Gb  interrupt.o [1]
usb_resume              0x8015ab24       0x14  Code  Gb  interrupt.o [1]
usb_setup_in            0x80166f8c       0x2c  Code  Gb  UsbRequest.o [1]
usb_start_video         0x80166f6c       0x20  Code  Gb  UsbRequest.o [1]
usb_suspend             0x8015ab38       0x20  Code  Gb  interrupt.o [1]
usb_video_opened        0x83fc7f18        0x4  Data  Lc  xm_video_task.o [1]
use_color               0x83fc8e70        0x4  Data  Lc  log.o [7]
uvc_command             0x83fc7f8c        0x4  Data  Lc  CdrRequest.o [1]
uvc_dma_stop            0x801484cc       0x74  Code  Lc  UvcVideo.o [1]
uvc_message_socket_access_sema
                        0x83fc8360       0x14  Data  Lc  xm_uvc_socket.o [1]
uvc_output_image_cx     0x83fed404        0x4  Data  Lc  UvcVideo.o [1]
uvc_output_image_cy     0x83fed408        0x4  Data  Lc  UvcVideo.o [1]
uvc_parameter           0x83fc7fa4      0x100  Data  Lc  CdrRequest.o [1]
uvc_parameter_len       0x83fc7f90        0x4  Data  Lc  CdrRequest.o [1]
uvc_parameter_received  0x83fc7f94        0x4  Data  Lc  CdrRequest.o [1]
uvc_request             0x80178a20       0xc4  Code  Gb  UvcRequest.o [1]
uvc_response_command    0x83fc7f98        0x4  Data  Lc  CdrRequest.o [1]
uvc_response_data       0x83fc80a4       0x40  Data  Lc  CdrRequest.o [1]
uvc_response_left_to_transfer
                        0x83fc7fa0        0x4  Data  Lc  CdrRequest.o [1]
uvc_response_len        0x83fc7f9c        0x4  Data  Lc  CdrRequest.o [1]
uvc_socket_enabled      0x83fc8cd4        0x4  Data  Lc  xm_uvc_socket.o [1]
uvc_socket_inited       0x83fc830c        0x4  Data  Lc  xm_uvc_socket.o [1]
uvc_usb_dma_transfer_finish_interrupt
                        0x80148540       0x2c  Code  Gb  UvcVideo.o [1]
v_read_frame            0x80161ed8       0x3c  Code  Gb  g729_dec.o [13]
vaddr_to_page_addr      0x80128ef8       0x18  Code  Gb  cortex_a5_mmu.o [1]
verify_buffer           0x83fe8000     0x1000  Data  Lc  xm_h264_cache_file.o [1]
verify_expr             0x80107b01       0xf0  Code  Lc  eval.o [7]
verify_icon_state       0x8013a9c0       0x60  Code  Lc  xm_icon_manage.o [1]
videoItemMonitorSema    0x83fed098       0x14  Data  Lc  xmvideoitem.o [1]
videoItemMutexSema      0x83fed084       0x14  Data  Lc  xmvideoitem.o [1]
videoListViewBtn_0      0x801d2ee0       0x24  Data  Lc  app_videolistview.o [1]
videoListViewBtn_1      0x801d2f04       0x24  Data  Lc  app_videolistview.o [1]
videoRecordBtn          0x801d4bd8       0x24  Data  Lc  app_videosettingview.o [1]
videoViewBtn_0          0x801d2458       0x24  Data  Lc  app_videoview.o [1]
video_control_get_cur   0x8018967c      0x308  Code  Gb  VideoFunction.o [1]
video_control_get_def   0x80189d0c      0x258  Code  Gb  VideoFunction.o [1]
video_control_get_info  0x8018a0ac      0x1e0  Code  Gb  VideoFunction.o [1]
video_control_get_len   0x8018a294       0xe8  Code  Gb  VideoFunction.o [1]
video_control_get_max   0x80189ae4      0x228  Code  Gb  VideoFunction.o [1]
video_control_get_min   0x80189984      0x160  Code  Gb  VideoFunction.o [1]
video_control_get_res   0x80189f70      0x12c  Code  Gb  VideoFunction.o [1]
video_control_set_cur   0x80189158      0x524  Code  Gb  VideoFunction.o [1]
video_framebuffer       0x83fc7f04        0x4  Data  Lc  xm_video_task.o [1]
video_get_buffer        0x800f4731      0x258  Code  Lc  utils.o [5]
video_h                 0x83fc7f0c        0x4  Data  Lc  xm_video_task.o [1]
video_isp_scalar_fifo   0x83fc7dd0      0x130  Data  Lc  xm_video_task.o [1]
video_isp_scalar_inited
                        0x83fc7f00        0x4  Data  Lc  xm_video_task.o [1]
video_item_alarm_time   0x83fc7a3c        0x4  Data  Lc  xmvideoitem.o [1]
video_item_count        0x83fc7a40        0x4  Data  Lc  xmvideoitem.o [1]
video_item_locked_space
                        0x83fc7a30        0x8  Data  Lc  xmvideoitem.o [1]
video_item_next         0x83fc7a20        0x8  Data  Lc  xmvideoitem.o [1]
video_item_recycle_space
                        0x83fc7a28        0x8  Data  Lc  xmvideoitem.o [1]
video_path              0x83fc6670        0x4  Data  Lc  main.o [1]
video_path_count        0x83fc7a64        0x4  Data  Lc  xmvideoitem.o [1]
video_path_name         0x83fc7a80      0x100  Data  Lc  xmvideoitem.o [1]
video_rate_abbrs        0x801da948       0x60  Data  Lc  parseutils.o [7]
video_scalar_frame_exit
                        0x801164c8       0x40  Code  Lc  xm_video_task.o [1]
video_scalar_frame_init
                        0x80116508       0xe8  Code  Lc  xm_video_task.o [1]
video_scalar_object     0x83fc7f14        0x4  Data  Lc  xm_video_task.o [1]
video_size_abbrs        0x801da2e4      0x204  Data  Lc  parseutils.o [7]
video_stream_get_cur    0x8018a55c      0x120  Code  Gb  VideoFunction.o [1]
video_stream_set_cur    0x8018a37c      0x1dc  Code  Gb  VideoFunction.o [1]
video_task_semaphore    0x83fc7f64       0x14  Data  Lc  xm_video_task.o [1]
video_temp_index        0x83fc7a6c        0x4  Data  Lc  xmvideoitem.o [1]
video_volume_count      0x83fc7a68        0x4  Data  Lc  xmvideoitem.o [1]
video_volume_name       0x83fc7b80       0x80  Data  Lc  xmvideoitem.o [1]
video_w                 0x83fc7f08        0x4  Data  Lc  xm_video_task.o [1]
videoitem_debug         0x83fc7a7c        0x4  Data  Lc  xmvideoitem.o [1]
videoitem_free          0x80130b8c       0x60  Code  Lc  xmvideoitem.o [1]
videoitem_int           0x80130acc       0x44  Code  Gb  xmvideoitem.o [1]
videoitem_malloc        0x80130b10       0x7c  Code  Lc  xmvideoitem.o [1]
videoitem_service_opened
                        0x83fc7a74        0x4  Data  Lc  xmvideoitem.o [1]
videorecord_mode        0x83fc7a78        0x4  Data  Lc  xmvideoitem.o [1]
view_animating_direction
                        0x83fc7754        0x4  Data  Lc  xm_win_user.o [1]
view_default_align      0x83fc7760        0x4  Data  Lc  xm_win_user.o [1]
view_default_horz_ratio
                        0x83fc7758        0x4  Data  Lc  xm_win_user.o [1]
view_default_vert_ratio
                        0x83fc775c        0x4  Data  Lc  xm_win_user.o [1]
voice_array             0x83fc25bc       0x20  Data  Lc  app_voice.o [1]
voice_count             0x83fc25dc        0x4  Data  Lc  app_voice.o [1]
voice_decode            0x80150b50       0x48  Code  Lc  app_voice.o [1]
voice_id_2_rom_res      0x80150a0c       0x2c  Code  Gb  app_voice.o [1]
voice_index             0x83fc25e0        0x4  Data  Lc  app_voice.o [1]
voice_prompts_count_sema
                        0x83fc25f4        0x4  Data  Lc  app_voice.o [1]
voice_prompts_count_sema_name
                        0x83fc25f0        0x4  Data  Lc  app_voice.o [1]
voice_prompts_sema      0x83fc25ec        0x4  Data  Lc  app_voice.o [1]
voice_prompts_sema_name
                        0x83fc25e8        0x4  Data  Lc  app_voice.o [1]
voice_text              0x83fc8dc8       0x14  Data  Lc  app_voice.o [1]
voicing                 0x83fc8db0        0x2  Data  Lc  g729_dec.o [13]
vsnprintf               0x800f2981       0x3c  Code  Gb  vsnprint.o [4]
vsprintf                0x8012ec25       0x2c  Code  Gb  vsprintf.o [4]
vsscanf                 0x8010f619       0x1c  Code  Gb  vsscanf.o [4]
wAutoPowerOffTime       0x83fc8c04        0x2  Data  Lc  target.o [1]
warned.9050             0x83fed580        0x4  Data  Lc  mux.o [6]
watchdog_reset          0x80119540       0x14  Code  Gb  wdt.o [1]
wav_inited              0x83fecbf8        0x4  Data  Lc  xm_iisadc.o [1]
week_day                0x8012a17c       0xf8  Code  Gb  rtc.o [1]
white_datetime_char_length
                        0x80187c60       0x38  Data  Lc  app_time.o [1]
white_datetime_char_offset
                        0x80187c28       0x38  Data  Lc  app_time.o [1]
widget_count            0x83fc7765        0x1  Data  Lc  xm_win_user.o [1]
widget_flag             0x83fc79f8        0x8  Data  Lc  xm_win_user.o [1]
widget_userdata         0x83fc7a00       0x20  Data  Lc  xm_win_user.o [1]
window_count            0x83fc7764        0x1  Data  Lc  xm_win_user.o [1]
window_stack            0x83fc7664       0xe0  Data  Lc  xm_win_user.o [1]
wingdi_exit             0x80128730        0x4  Code  Gb  xm_win_gdi.o [1]
wingdi_init             0x80128694       0x9c  Code  Gb  xm_win_gdi.o [1]
winmem_init             0x801506a4       0x54  Code  Gb  xm_win_mem.o [1]
winmem_restore_environment
                        0x8015074c       0x58  Code  Gb  xm_win_mem.o [1]
winmem_save_environment
                        0x801506f8       0x54  Code  Gb  xm_win_mem.o [1]
winuser_exit            0x801516a0        0x4  Code  Gb  xm_win_user.o [1]
winuser_init            0x801515e8       0xb8  Code  Gb  xm_win_user.o [1]
workingFifoSampleCount  0x83fecbe4        0x8  Data  Lc  xm_iisadc.o [1]
wrap_timestamp          0x800e0571       0xe6  Code  Lc  utils.o [6]
write                   0x8013d864       0x24  Code  Gb  xm_core_file.o [1]
write_audio_frame       0x80103bf1       0xb4  Code  Lc  tachograph.o [6]
write_number            0x800fab71      0x1e6  Code  Lc  opt.o [7]
write_packet            0x800f0ea1      0x148  Code  Lc  mux.o [6]
write_video_frame       0x80104131      0x12c  Code  Lc  tachograph.o [6]
writel                  0x80160548        0x8  Code  Gb  hx280enc.o [1]
x0                      0x83fc8f78        0x2  Data  Lc  mul64_op.o [12]
x1                      0x83fc8f7a        0x2  Data  Lc  mul64_op.o [12]
x264_arkn141_H264SliceReady
                        0x801b7850        0x4  Code  Gb  arkn141_h264_encoder.o [1]
x264_arkn141_close_encoder
                        0x801b8058       0x84  Code  Gb  arkn141_h264_encoder.o [1]
x264_arkn141_defaults   0x801e1618       0x28  Data  Lc  x264_arkn141.o [5]
x264_arkn141_encoder_encode
                        0x801b8380      0x530  Code  Gb  arkn141_h264_encoder.o [1]
x264_arkn141_encoder_headers
                        0x801b8220      0x160  Code  Gb  arkn141_h264_encoder.o [1]
x264_arkn141_open_encoder
                        0x801b80dc      0x144  Code  Gb  arkn141_h264_encoder.o [1]
x264_arkn141_param_default
                        0x801b7854      0x198  Code  Gb  arkn141_h264_encoder.o [1]
x264_arkn141_parse_param
                        0x801b88b4      0x988  Code  Gb  arkn141_h264_encoder.o [1]
xm_adc_init             0x8011a99c      0x108  Code  Gb  xm_adc.o [1]
xm_arkn141_isp_set_exposure_compensation
                        0x801302dc       0x88  Code  Gb  Gem_isp.o [1]
xm_arkn141_isp_set_sharpening_value
                        0x80130364       0xb0  Code  Gb  Gem_isp.o [1]
xm_autotest_init        0x801589bc       0x18  Code  Gb  xm_at.o [1]
xm_autotest_run         0x80158a54      0x184  Code  Gb  xm_at.o [1]
xm_autotest_stop        0x801589d4       0x80  Code  Gb  xm_at.o [1]
xm_close_volume_service
                        0x801471f0       0x54  Code  Gb  message_task.o [1]
xm_core_allocate_linear_memory
                        0x8015ae90       0x84  Code  Gb  xm_core_linear_memory.o [1]
xm_core_free_linear_memory
                        0x8015af14       0x4c  Code  Gb  xm_core_linear_memory.o [1]
xm_do_change_task       0x801293bc       0x60  Code  Gb  os_change_task.o [1]
xm_h264_cache_command_queue_init
                        0x8015bfe8       0xd8  Code  Gb  xm_h264_cache_command_queue.o [1]
xm_h264_cache_command_queue_insert_command
                        0x8015c0c0      0x19c  Code  Gb  xm_h264_cache_command_queue.o [1]
xm_h264_cache_command_queue_remove_command
                        0x8015c25c       0xac  Code  Gb  xm_h264_cache_command_queue.o [1]
xm_h264_file_init       0x801171c0       0x54  Code  Gb  xm_h264_file.o [1]
xm_i2c_close            0x8012d964       0x9c  Code  Gb  xm_i2c.o [1]
xm_i2c_device_close     0x8012ddcc      0x108  Code  Gb  xm_i2c.o [1]
xm_i2c_device_open      0x8012dbc0      0x204  Code  Gb  xm_i2c.o [1]
xm_i2c_init             0x8012d6e8       0x50  Code  Gb  xm_i2c.o [1]
xm_i2c_open             0x8012d738      0x22c  Code  Gb  xm_i2c.o [1]
xm_i2c_read             0x8012dad8       0xe8  Code  Gb  xm_i2c.o [1]
xm_i2c_write            0x8012da00       0xd8  Code  Gb  xm_i2c.o [1]
xm_isp_init             0x8012fc88        0x8  Code  Gb  Gem_isp.o [1]
xm_isp_scalar_buffer_clear
                        0x80138a1c       0x14  Code  Lc  xm_isp_scalar.o [1]
xm_isp_scalar_config    0x801387fc      0x220  Code  Gb  xm_isp_scalar.o [1]
xm_isp_scalar_create    0x80139094       0xf4  Code  Gb  xm_isp_scalar.o [1]
xm_isp_scalar_delete    0x80138f58      0x11c  Code  Gb  xm_isp_scalar.o [1]
xm_isp_scalar_init      0x80138738       0xc4  Code  Gb  xm_isp_scalar.o [1]
xm_isp_scalar_register_user_buffer
                        0x80138e44      0x114  Code  Gb  xm_isp_scalar.o [1]
xm_isp_scalar_run       0x80138d68       0xdc  Code  Gb  xm_isp_scalar.o [1]
xm_jpeg_decode          0x8013cd9c      0x174  Code  Gb  jpeg_task.o [1]
xm_led_on               0x8014b528        0x4  Code  Gb  xm_led.o [1]
xm_memset               0x801578f4       0x2c  Code  Gb  common_string.o [1]
xm_open_volume_service  0x80147144       0xac  Code  Gb  message_task.o [1]
xm_power_unlock         0x801196c0       0x3c  Code  Gb  xm_power.o [1]
xm_powerkey_init        0x80119710       0x98  Code  Gb  xm_power.o [1]
xm_powerkey_test        0x801195ac       0x24  Code  Gb  xm_power.o [1]
xm_restore_environment  0x80151328      0x198  Code  Gb  xm_win_user.o [1]
xm_save_environment     0x80151294       0x94  Code  Gb  xm_win_user.o [1]
xm_strcmpi              0x80157920       0x48  Code  Gb  common_string.o [1]
xm_stricmp              0x80157968        0x4  Code  Gb  common_string.o [1]
xm_uart_init            0x8012c1a0       0x54  Code  Gb  xm_uart.o [1]
xm_uart_open            0x8012c1f4      0x2cc  Code  Gb  xm_uart.o [1]
xm_uart_read            0x8012c7b0      0x218  Code  Gb  xm_uart.o [1]
xm_uart_write           0x8012c50c      0x2a4  Code  Gb  xm_uart.o [1]
y1                      0x83fc8f80        0x4  Data  Lc  mul64_op.o [12]
y2                      0x83fc8f7c        0x4  Data  Lc  mul64_op.o [12]
yuv_buf0                0x82c32800   0x2f7600  Data  Gb  Gem_isp.o [1]
yuv_buf1                0x82f2a000   0x2f7600  Data  Gb  Gem_isp.o [1]
yuv_buf2                0x83221800   0x2f7600  Data  Gb  Gem_isp.o [1]
yuv_buf3                0x83519000   0x2f7600  Data  Gb  Gem_isp.o [1]
yuv_wFrameSize_height   0x83fc6698       0x20  Data  Gb  descript_def.o [1]
yuv_wFrameSize_width    0x83fc6678       0x20  Data  Gb  descript_def.o [1]
yuv_winFrame_BufferSize
                        0x83fc66f8       0x3c  Data  Gb  descript_def.o [1]
yuv_winFrame_order      0x83fc6778       0x10  Data  Gb  descript_def.o [1]
zcalloc                 0x801e34b0       0x18  Code  Gb  zutil.o [14]
zcfree                  0x801e34c8       0x10  Code  Gb  zutil.o [14]
zerobuffer.9132         0x83fed18c       0x20  Data  Lc  utils.o [6]
zigZag4x4               0x801af2a0       0x40  Data  Lc  h264hwd_seq_param_set.o [1]
zigZag8x8               0x801af2e0      0x100  Data  Lc  h264hwd_seq_param_set.o [1]
zigzag                  0x8018bcf4       0x40  Data  Lc  EncJpeg.o [1]
zzOrder                 0x8017f454       0x40  Data  Lc  jpegdecinternal.o [1]


[1] = E:\proj\ARKN141\sw\xspace\proj\ARKN141_DEMO\HONGJING_CVBS_3D_OFF\Obj
[2] = E:\proj\ARKN141\sw\xspace\rtos\core
[3] = command line
[4] = dl5E_tln.a
[5] = libavcodec.a
[6] = libavformat.a
[7] = libavutil.a
[8] = lpng167.a
[9] = m5E_tl.a
[10] = os5t_al__d.a
[11] = rt5E_al.a
[12] = speech_decoder_arm.a
[13] = speech_decoder_thumb.a
[14] = zlib-1.2.8.a

     948 954 bytes of readonly  code memory
   1 036 429 bytes of readonly  data memory
  63 886 779 bytes of readwrite data memory

Errors: none
Warnings: 3
